###############################################################################
#                                                                             #
# IAR C/C++ Compiler V8.10.3.10338/W32 for 8051         23/May/2015  15:18:45 #
# Copyright 2004-2011 IAR Systems AB.                                         #
#                                                                             #
#    Core               =  plain                                              #
#    Code model         =  banked                                             #
#    Data model         =  large                                              #
#    Calling convention =  xdata reentrant                                    #
#    Constant location  =  data_rom                                           #
#    Dptr setup         =  1,16                                               #
#    Source file        =  E:\wireless-switch\demo\ZStack-CC2530-2.3.0-1.4.0\ #
#                          Components\mt\DebugTrace.c                         #
#    Command line       =  -f E:\wireless-switch\demo\ZStack-CC2530-2.3.0-1.4 #
#                          .0\Projects\zstack\Samples\SampleApp\CC2530DB\..\. #
#                          .\..\Tools\CC2530DB\f8wRouter.cfg (-DCPU32MHZ      #
#                          -DROOT=__near_func -DMAC_CFG_APP_PENDING_QUEUE=TRU #
#                          E -DRTR_NWK -DBLINK_LEDS) -f                       #
#                          E:\wireless-switch\demo\ZStack-CC2530-2.3.0-1.4.0\ #
#                          Projects\zstack\Samples\SampleApp\CC2530DB\..\..\. #
#                          .\Tools\CC2530DB\f8wConfig.cfg (-DSECURE=0         #
#                          -DZG_SECURE_DYNAMIC=0 -DREFLECTOR                  #
#                          -DDEFAULT_CHANLIST=0x00000800                      #
#                          -DZDAPP_CONFIG_PAN_ID=0xFFF1                       #
#                          -DNWK_START_DELAY=100 -DEXTENDED_JOINING_RANDOM_MA #
#                          SK=0x007F -DBEACON_REQUEST_DELAY=100               #
#                          -DBEACON_REQ_DELAY_MASK=0x00FF                     #
#                          -DROUTE_EXPIRY_TIME=30 -DAPSC_ACK_WAIT_DURATION_PO #
#                          LLED=3000 -DNWK_INDIRECT_MSG_TIMEOUT=7             #
#                          -DMAX_RREQ_ENTRIES=8 -DAPSC_MAX_FRAME_RETRIES=3    #
#                          -DNWK_MAX_DATA_RETRIES=2                           #
#                          -DMAX_POLL_FAILURE_RETRIES=2 -DMAX_BCAST=9         #
#                          -DAPS_MAX_GROUPS=16 -DMAX_RTG_ENTRIES=40           #
#                          -DNWK_MAX_BINDING_ENTRIES=4                        #
#                          -DMAX_BINDING_CLUSTER_IDS=4 "-DDEFAULT_KEY={0x01,  #
#                          0x03, 0x05, 0x07, 0x09, 0x0B, 0x0D, 0x0F, 0x00,    #
#                          0x02, 0x04, 0x06, 0x08, 0x0A, 0x0C, 0x0D}"         #
#                          -DMAC_MAX_FRAME_SIZE=116 "-DCONST=const __code"    #
#                          -DGENERIC=__generic -DRFD_RCVC_ALWAYS_ON=FALSE     #
#                          -DPOLL_RATE=1000 -DQUEUED_POLL_RATE=100            #
#                          -DRESPONSE_POLL_RATE=100) -DREJOIN_POLL_RATE=440   #
#                          E:\wireless-switch\demo\ZStack-CC2530-2.3.0-1.4.0\ #
#                          Components\mt\DebugTrace.c -D ZIGBEEPRO -D         #
#                          ZTOOL_P1 -D MT_TASK -D MT_SYS_FUNC -D MT_ZDO_FUNC  #
#                          -D LCD_SUPPORTED=DEBUG -D ROUTER_ME -lC            #
#                          E:\wireless-switch\demo\ZStack-CC2530-2.3.0-1.4.0\ #
#                          Projects\zstack\Samples\SampleApp\CC2530DB\RouterE #
#                          B-Pro\List\ -lA E:\wireless-switch\demo\ZStack-CC2 #
#                          530-2.3.0-1.4.0\Projects\zstack\Samples\SampleApp\ #
#                          CC2530DB\RouterEB-Pro\List\ --diag_suppress        #
#                          Pe001,Pa010 -o E:\wireless-switch\demo\ZStack-CC25 #
#                          30-2.3.0-1.4.0\Projects\zstack\Samples\SampleApp\C #
#                          C2530DB\RouterEB-Pro\Obj\ -e --debug --core=plain  #
#                          --dptr=16,1 --data_model=large                     #
#                          --code_model=banked --calling_convention=xdata_ree #
#                          ntrant --place_constants=data_rom                  #
#                          --nr_virtual_regs 16 -I E:\wireless-switch\demo\ZS #
#                          tack-CC2530-2.3.0-1.4.0\Projects\zstack\Samples\Sa #
#                          mpleApp\CC2530DB\ -I E:\wireless-switch\demo\ZStac #
#                          k-CC2530-2.3.0-1.4.0\Projects\zstack\Samples\Sampl #
#                          eApp\CC2530DB\..\SOURCE\ -I                        #
#                          E:\wireless-switch\demo\ZStack-CC2530-2.3.0-1.4.0\ #
#                          Projects\zstack\Samples\SampleApp\CC2530DB\..\..\. #
#                          .\ZMAIN\TI2530DB\ -I E:\wireless-switch\demo\ZStac #
#                          k-CC2530-2.3.0-1.4.0\Projects\zstack\Samples\Sampl #
#                          eApp\CC2530DB\..\..\..\..\..\COMPONENTS\MT\ -I     #
#                          E:\wireless-switch\demo\ZStack-CC2530-2.3.0-1.4.0\ #
#                          Projects\zstack\Samples\SampleApp\CC2530DB\..\..\. #
#                          .\..\..\COMPONENTS\HAL\INCLUDE\ -I                 #
#                          E:\wireless-switch\demo\ZStack-CC2530-2.3.0-1.4.0\ #
#                          Projects\zstack\Samples\SampleApp\CC2530DB\..\..\. #
#                          .\..\..\COMPONENTS\HAL\TARGET\CC2530EB\ -I         #
#                          E:\wireless-switch\demo\ZStack-CC2530-2.3.0-1.4.0\ #
#                          Projects\zstack\Samples\SampleApp\CC2530DB\..\..\. #
#                          .\..\..\COMPONENTS\OSAL\MCU\CCSOC\ -I              #
#                          E:\wireless-switch\demo\ZStack-CC2530-2.3.0-1.4.0\ #
#                          Projects\zstack\Samples\SampleApp\CC2530DB\..\..\. #
#                          .\..\..\COMPONENTS\OSAL\INCLUDE\ -I                #
#                          E:\wireless-switch\demo\ZStack-CC2530-2.3.0-1.4.0\ #
#                          Projects\zstack\Samples\SampleApp\CC2530DB\..\..\. #
#                          .\..\..\COMPONENTS\STACK\AF\ -I                    #
#                          E:\wireless-switch\demo\ZStack-CC2530-2.3.0-1.4.0\ #
#                          Projects\zstack\Samples\SampleApp\CC2530DB\..\..\. #
#                          .\..\..\COMPONENTS\STACK\NWK\ -I                   #
#                          E:\wireless-switch\demo\ZStack-CC2530-2.3.0-1.4.0\ #
#                          Projects\zstack\Samples\SampleApp\CC2530DB\..\..\. #
#                          .\..\..\COMPONENTS\STACK\SEC\ -I                   #
#                          E:\wireless-switch\demo\ZStack-CC2530-2.3.0-1.4.0\ #
#                          Projects\zstack\Samples\SampleApp\CC2530DB\..\..\. #
#                          .\..\..\COMPONENTS\STACK\SAPI\ -I                  #
#                          E:\wireless-switch\demo\ZStack-CC2530-2.3.0-1.4.0\ #
#                          Projects\zstack\Samples\SampleApp\CC2530DB\..\..\. #
#                          .\..\..\COMPONENTS\STACK\SYS\ -I                   #
#                          E:\wireless-switch\demo\ZStack-CC2530-2.3.0-1.4.0\ #
#                          Projects\zstack\Samples\SampleApp\CC2530DB\..\..\. #
#                          .\..\..\COMPONENTS\STACK\ZDO\ -I                   #
#                          E:\wireless-switch\demo\ZStack-CC2530-2.3.0-1.4.0\ #
#                          Projects\zstack\Samples\SampleApp\CC2530DB\..\..\. #
#                          .\..\..\COMPONENTS\ZMAC\F8W\ -I                    #
#                          E:\wireless-switch\demo\ZStack-CC2530-2.3.0-1.4.0\ #
#                          Projects\zstack\Samples\SampleApp\CC2530DB\..\..\. #
#                          .\..\..\COMPONENTS\ZMAC\ -I                        #
#                          E:\wireless-switch\demo\ZStack-CC2530-2.3.0-1.4.0\ #
#                          Projects\zstack\Samples\SampleApp\CC2530DB\..\..\. #
#                          .\..\..\COMPONENTS\SERVICES\SADDR\ -I              #
#                          E:\wireless-switch\demo\ZStack-CC2530-2.3.0-1.4.0\ #
#                          Projects\zstack\Samples\SampleApp\CC2530DB\..\..\. #
#                          .\..\..\COMPONENTS\SERVICES\SDATA\ -I              #
#                          E:\wireless-switch\demo\ZStack-CC2530-2.3.0-1.4.0\ #
#                          Projects\zstack\Samples\SampleApp\CC2530DB\..\..\. #
#                          .\..\..\COMPONENTS\MAC\INCLUDE\ -I                 #
#                          E:\wireless-switch\demo\ZStack-CC2530-2.3.0-1.4.0\ #
#                          Projects\zstack\Samples\SampleApp\CC2530DB\..\..\. #
#                          .\..\..\COMPONENTS\MAC\HIGH_LEVEL\ -I              #
#                          E:\wireless-switch\demo\ZStack-CC2530-2.3.0-1.4.0\ #
#                          Projects\zstack\Samples\SampleApp\CC2530DB\..\..\. #
#                          .\..\..\COMPONENTS\MAC\LOW_LEVEL\srf04\ -I         #
#                          E:\wireless-switch\demo\ZStack-CC2530-2.3.0-1.4.0\ #
#                          Projects\zstack\Samples\SampleApp\CC2530DB\..\..\. #
#                          .\..\..\COMPONENTS\MAC\LOW_LEVEL\srf04\SINGLE_CHIP #
#                          \ -Ohs --require_prototypes                        #
#    List file          =  E:\wireless-switch\demo\ZStack-CC2530-2.3.0-1.4.0\ #
#                          Projects\zstack\Samples\SampleApp\CC2530DB\RouterE #
#                          B-Pro\List\DebugTrace.lst                          #
#    Object file        =  E:\wireless-switch\demo\ZStack-CC2530-2.3.0-1.4.0\ #
#                          Projects\zstack\Samples\SampleApp\CC2530DB\RouterE #
#                          B-Pro\Obj\DebugTrace.r51                           #
#                                                                             #
#                                                                             #
###############################################################################

E:\wireless-switch\demo\ZStack-CC2530-2.3.0-1.4.0\Components\mt\DebugTrace.c
      1          /**************************************************************************************************
      2            Filename:       DebugTrace.c
      3            Revised:        $Date: 2008-01-17 12:22:57 -0800 (Thu, 17 Jan 2008) $
      4            Revision:       $Revision: 16223 $
      5          
      6          
      7            Description:    This interface provides quick one-function-call functions to
      8                            Monitor and Test reporting mechanisms.
      9          
     10          
     11            Copyright 2007 Texas Instruments Incorporated. All rights reserved.
     12          
     13            IMPORTANT: Your use of this Software is limited to those specific rights
     14            granted under the terms of a software license agreement between the user
     15            who downloaded the software, his/her employer (which must be your employer)
     16            and Texas Instruments Incorporated (the "License").  You may not use this
     17            Software unless you agree to abide by the terms of the License. The License
     18            limits your use, and you acknowledge, that the Software may not be modified,
     19            copied or distributed unless embedded on a Texas Instruments microcontroller
     20            or used solely and exclusively in conjunction with a Texas Instruments radio
     21            frequency transceiver, which is integrated into your product.  Other than for
     22            the foregoing purpose, you may not use, reproduce, copy, prepare derivative
     23            works of, modify, distribute, perform, display or sell this Software and/or
     24            its documentation for any purpose.
     25          
     26            YOU FURTHER ACKNOWLEDGE AND AGREE THAT THE SOFTWARE AND DOCUMENTATION ARE
     27            PROVIDED “AS IS” WITHOUT WARRANTY OF ANY KIND, EITHER EXPRESS OR IMPLIED,
     28            INCLUDING WITHOUT LIMITATION, ANY WARRANTY OF MERCHANTABILITY, TITLE,
     29            NON-INFRINGEMENT AND FITNESS FOR A PARTICULAR PURPOSE. IN NO EVENT SHALL
     30            TEXAS INSTRUMENTS OR ITS LICENSORS BE LIABLE OR OBLIGATED UNDER CONTRACT,
     31            NEGLIGENCE, STRICT LIABILITY, CONTRIBUTION, BREACH OF WARRANTY, OR OTHER
     32            LEGAL EQUITABLE THEORY ANY DIRECT OR INDIRECT DAMAGES OR EXPENSES
     33            INCLUDING BUT NOT LIMITED TO ANY INCIDENTAL, SPECIAL, INDIRECT, PUNITIVE
     34            OR CONSEQUENTIAL DAMAGES, LOST PROFITS OR LOST DATA, COST OF PROCUREMENT
     35            OF SUBSTITUTE GOODS, TECHNOLOGY, SERVICES, OR ANY CLAIMS BY THIRD PARTIES
     36            (INCLUDING BUT NOT LIMITED TO ANY DEFENSE THEREOF), OR OTHER SIMILAR COSTS.
     37          
     38            Should you have any questions regarding your right to use this Software,
     39            contact Texas Instruments Incorporated at www.TI.com.
     40          
     41          **************************************************************************************************/
     42          
     43          #if defined( MT_TASK ) || defined( APP_DEBUG )
     44          
     45          /*********************************************************************
     46           * INCLUDES
     47           */
     48          #include "ZComDef.h"
     49          #include "OSAL.h"
     50          #include "MT.h"
     51          #include "MT_TASK.h"
     52          #include "MT_DEBUG.h"
     53          #include "DebugTrace.h"
     54          
     55          #if defined ( APP_DEBUG )
     56            #include "DebugApp.h"
     57          #endif
     58          
     59           /*********************************************************************
     60           * MACROS
     61           */
     62          
     63          /*********************************************************************
     64           * CONSTANTS
     65           */
     66          
     67          
     68          /*********************************************************************
     69           * TYPEDEFS
     70           */
     71          
     72          /*********************************************************************
     73           * GLOBAL VARIABLES
     74           */
     75          
     76          /*********************************************************************
     77           * EXTERNAL VARIABLES
     78           */
     79          
     80          /*********************************************************************
     81           * EXTERNAL FUNCTIONS
     82           */
     83          
     84           /*********************************************************************
     85           * LOCAL VARIABLES
     86           */
     87          
     88          /*********************************************************************
     89           * LOCAL FUNCTIONS
     90           */
     91          
     92          /*********************************************************************
     93           * @fn      debug_msg
     94           *
     95           * @brief
     96           *
     97           *   This feature allows modules to display debug information as
     98           *   applications execute in real-time.  This feature will work similar
     99           *   to "printf()" but will output to the serial port for display in
    100           *   the Z-Test tool.
    101           *
    102           *   This feature will most likely be compiled out in the production code
    103           *   to save code space.
    104           *
    105           * @param   byte compID - Component ID
    106           * @param   byte severity - CRITICAL(0x01), ERROR(0x02), INFORMATION(0x03)
    107           *                          or TRACE(0x04)
    108           * @param   byte numParams - number of parameter fields (param1-3)
    109           * @param   UINT16 param1 - user defined data
    110           * @param   UINT16 param2 - user defined data
    111           * @param   UINT16 param3 - user defined data
    112           *
    113           * @return  void
    114           */

   \                                 In  segment BANKED_CODE, align 1, keep-with-next
    115          void debug_msg( byte compID, byte severity, byte numParams, UINT16 param1,
   \                     debug_msg:
    116          																								UINT16 param2, UINT16 param3 )
    117          {
   \   000000   74EE         MOV     A,#-0x12
   \   000002   12....       LCALL   ?BANKED_ENTER_XDATA
   \   000005                ; Saved register size: 18
   \   000005                ; Auto size: 0
   \   000005   89..         MOV     ?V0 + 4,R1
   \   000007   8A..         MOV     ?V0 + 5,R2
   \   000009   8B..         MOV     ?V0 + 6,R3
   \   00000B   EC           MOV     A,R4
   \   00000C   FE           MOV     R6,A
   \   00000D   ED           MOV     A,R5
   \   00000E   FF           MOV     R7,A
   \   00000F   7412         MOV     A,#0x12
   \   000011   12....       LCALL   ?XSTACK_DISP0_8
   \   000014   E0           MOVX    A,@DPTR
   \   000015   F5..         MOV     ?V0 + 0,A
   \   000017   A3           INC     DPTR
   \   000018   E0           MOVX    A,@DPTR
   \   000019   F5..         MOV     ?V0 + 1,A
   \   00001B   7414         MOV     A,#0x14
   \   00001D   12....       LCALL   ?XSTACK_DISP0_8
   \   000020   E0           MOVX    A,@DPTR
   \   000021   F5..         MOV     ?V0 + 2,A
   \   000023   A3           INC     DPTR
   \   000024   E0           MOVX    A,@DPTR
   \   000025   F5..         MOV     ?V0 + 3,A
    118          
    119            mtDebugMsg_t *mtDebugMsg;
    120            UINT16 timestamp;
    121          
    122            if ( debugThreshold == 0 || debugCompId != compID )
   \   000027   90....       MOV     DPTR,#debugThreshold
   \   00002A   E0           MOVX    A,@DPTR
   \   00002B   607E         JZ      ??debug_msg_0
   \   00002D   90....       MOV     DPTR,#debugCompId
   \   000030   E0           MOVX    A,@DPTR
   \   000031   65..         XRL     A,?V0 + 4
   \   000033   7076         JNZ     ??debug_msg_0
    123              return;
    124          
    125            // Fill in the timestamp
    126            timestamp = 0;
    127          
    128            // Get a message buffer to build the debug message
    129            mtDebugMsg = (mtDebugMsg_t *)osal_msg_allocate( sizeof( mtDebugMsg_t ) );
   \   000035                ; Setup parameters for call to function osal_msg_allocate
   \   000035   7A0D         MOV     R2,#0xd
   \   000037   7B00         MOV     R3,#0x0
   \   000039   12....       LCALL   ??osal_msg_allocate?relay
    130            if ( mtDebugMsg )
   \   00003C   EA           MOV     A,R2
   \   00003D   4B           ORL     A,R3
   \   00003E   606B         JZ      ??debug_msg_0
    131            {
    132                mtDebugMsg->hdr.event = CMD_DEBUG_MSG;
   \   000040   8A82         MOV     DPL,R2
   \   000042   8B83         MOV     DPH,R3
   \   000044   7402         MOV     A,#0x2
   \   000046   F0           MOVX    @DPTR,A
    133                mtDebugMsg->compID = compID;
   \   000047   A3           INC     DPTR
   \   000048   A3           INC     DPTR
   \   000049   E5..         MOV     A,?V0 + 4
   \   00004B   F0           MOVX    @DPTR,A
    134                mtDebugMsg->severity = severity;
   \   00004C   8A82         MOV     DPL,R2
   \   00004E   8B83         MOV     DPH,R3
   \   000050   A3           INC     DPTR
   \   000051   A3           INC     DPTR
   \   000052   A3           INC     DPTR
   \   000053   E5..         MOV     A,?V0 + 5
   \   000055   F0           MOVX    @DPTR,A
    135                mtDebugMsg->numParams = numParams;
   \   000056   8A82         MOV     DPL,R2
   \   000058   8B83         MOV     DPH,R3
   \   00005A   A3           INC     DPTR
   \   00005B   A3           INC     DPTR
   \   00005C   A3           INC     DPTR
   \   00005D   A3           INC     DPTR
   \   00005E   E5..         MOV     A,?V0 + 6
   \   000060   F0           MOVX    @DPTR,A
    136          
    137                mtDebugMsg->param1 = param1;
   \   000061   8A82         MOV     DPL,R2
   \   000063   8B83         MOV     DPH,R3
   \   000065   A3           INC     DPTR
   \   000066   A3           INC     DPTR
   \   000067   A3           INC     DPTR
   \   000068   A3           INC     DPTR
   \   000069   A3           INC     DPTR
   \   00006A   EE           MOV     A,R6
   \   00006B   F0           MOVX    @DPTR,A
   \   00006C   A3           INC     DPTR
   \   00006D   EF           MOV     A,R7
   \   00006E   F0           MOVX    @DPTR,A
    138                mtDebugMsg->param2 = param2;
   \   00006F   8A82         MOV     DPL,R2
   \   000071   8B83         MOV     DPH,R3
   \   000073   A3           INC     DPTR
   \   000074   A3           INC     DPTR
   \   000075   A3           INC     DPTR
   \   000076   A3           INC     DPTR
   \   000077   A3           INC     DPTR
   \   000078   A3           INC     DPTR
   \   000079   A3           INC     DPTR
   \   00007A   E5..         MOV     A,?V0 + 0
   \   00007C   F0           MOVX    @DPTR,A
   \   00007D   A3           INC     DPTR
   \   00007E   E5..         MOV     A,?V0 + 1
   \   000080   F0           MOVX    @DPTR,A
    139                mtDebugMsg->param3 = param3;
   \   000081   8A82         MOV     DPL,R2
   \   000083   8B83         MOV     DPH,R3
   \   000085   A3           INC     DPTR
   \   000086   A3           INC     DPTR
   \   000087   A3           INC     DPTR
   \   000088   A3           INC     DPTR
   \   000089   A3           INC     DPTR
   \   00008A   A3           INC     DPTR
   \   00008B   A3           INC     DPTR
   \   00008C   A3           INC     DPTR
   \   00008D   A3           INC     DPTR
   \   00008E   E5..         MOV     A,?V0 + 2
   \   000090   F0           MOVX    @DPTR,A
   \   000091   A3           INC     DPTR
   \   000092   E5..         MOV     A,?V0 + 3
   \   000094   F0           MOVX    @DPTR,A
    140                mtDebugMsg->timestamp = timestamp;
   \   000095   EA           MOV     A,R2
   \   000096   240B         ADD     A,#0xb
   \   000098   F582         MOV     DPL,A
   \   00009A   EB           MOV     A,R3
   \   00009B   3400         ADDC    A,#0x0
   \   00009D   F583         MOV     DPH,A
   \   00009F   E4           CLR     A
   \   0000A0   F0           MOVX    @DPTR,A
   \   0000A1   A3           INC     DPTR
   \   0000A2   F0           MOVX    @DPTR,A
    141          
    142                osal_msg_send( MT_TaskID, (uint8 *)mtDebugMsg );
   \   0000A3                ; Setup parameters for call to function osal_msg_send
   \   0000A3   90....       MOV     DPTR,#MT_TaskID
   \   0000A6   E0           MOVX    A,@DPTR
   \   0000A7   F9           MOV     R1,A
   \   0000A8   12....       LCALL   ??osal_msg_send?relay
   \                     ??debug_msg_0:
   \   0000AB   7F0A         MOV     R7,#0xa
   \   0000AD   02....       LJMP    ?BANKED_LEAVE_XDATA
    143            }
    144          
    145          } /* debug_msg() */
    146          
    147          /*********************************************************************
    148           * @fn      debug_str
    149           *
    150           * @brief
    151           *
    152           *   This feature allows modules to display a debug text string as
    153           *   applications execute in real-time. This feature will output to
    154           *   the serial port for display in the Z-Test tool.
    155           *
    156           *   This feature will most likely be compiled out in the production
    157           *   code in order to save code space.
    158           *
    159           * @param   byte *str_ptr - pointer to null-terminated string
    160           *
    161           * @return  void
    162           */

   \                                 In  segment BANKED_CODE, align 1, keep-with-next
    163          void debug_str( byte *str_ptr )
   \                     debug_str:
    164          {
   \   000000   74F1         MOV     A,#-0xf
   \   000002   12....       LCALL   ?BANKED_ENTER_XDATA
   \   000005                ; Saved register size: 15
   \   000005                ; Auto size: 0
   \   000005   EA           MOV     A,R2
   \   000006   FE           MOV     R6,A
   \   000007   EB           MOV     A,R3
   \   000008   FF           MOV     R7,A
    165            mtDebugStr_t *msg;
    166            byte mln;
    167            byte strLen;
    168          
    169            // Text string length
    170            strLen = (byte)osal_strlen( (void*)str_ptr );
   \   000009                ; Setup parameters for call to function osal_strlen
   \   000009   12....       LCALL   ??osal_strlen?relay
   \   00000C   EA           MOV     A,R2
   \   00000D   F5..         MOV     ?V0 + 2,A
    171          
    172            // Debug string message length
    173            mln = sizeof ( mtDebugStr_t ) + strLen;
    174          
    175            // Get a message buffer to build the debug message
    176            msg = (mtDebugStr_t *)osal_msg_allocate( mln );
   \   00000F                ; Setup parameters for call to function osal_msg_allocate
   \   00000F   7405         MOV     A,#0x5
   \   000011   25..         ADD     A,?V0 + 2
   \   000013   FA           MOV     R2,A
   \   000014   7B00         MOV     R3,#0x0
   \   000016   12....       LCALL   ??osal_msg_allocate?relay
   \   000019   8A..         MOV     ?V0 + 0,R2
   \   00001B   8B..         MOV     ?V0 + 1,R3
    177            if ( msg )
   \   00001D   EA           MOV     A,R2
   \   00001E   45..         ORL     A,?V0 + 1
   \   000020   6058         JZ      ??debug_str_0
    178            {
    179              // Message type, length
    180              msg->hdr.event = CMD_DEBUG_STR;
   \   000022   8A82         MOV     DPL,R2
   \   000024   8B83         MOV     DPH,R3
   \   000026   7406         MOV     A,#0x6
   \   000028   F0           MOVX    @DPTR,A
    181              msg->strLen = strLen;
   \   000029   A3           INC     DPTR
   \   00002A   A3           INC     DPTR
   \   00002B   E5..         MOV     A,?V0 + 2
   \   00002D   F0           MOVX    @DPTR,A
    182          
    183              // Append message, no terminator
    184              msg->pString = (uint8 *)(msg+1);
   \   00002E   EA           MOV     A,R2
   \   00002F   2403         ADD     A,#0x3
   \   000031   F8           MOV     R0,A
   \   000032   EB           MOV     A,R3
   \   000033   3400         ADDC    A,#0x0
   \   000035   0A           INC     R2
   \   000036   0A           INC     R2
   \   000037   0A           INC     R2
   \   000038   FB           MOV     R3,A
   \   000039   E5..         MOV     A,?V0 + 0
   \   00003B   2405         ADD     A,#0x5
   \   00003D   08           INC     R0
   \   00003E   08           INC     R0
   \   00003F   E5..         MOV     A,?V0 + 1
   \   000041   3400         ADDC    A,#0x0
   \   000043   F9           MOV     R1,A
   \   000044   8A82         MOV     DPL,R2
   \   000046   8B83         MOV     DPH,R3
   \   000048   E8           MOV     A,R0
   \   000049   F0           MOVX    @DPTR,A
   \   00004A   A3           INC     DPTR
   \   00004B   E9           MOV     A,R1
   \   00004C   F0           MOVX    @DPTR,A
    185              osal_memcpy ( msg->pString, str_ptr, strLen );
   \   00004D                ; Setup parameters for call to function osal_memcpy
   \   00004D   8E..         MOV     ?V0 + 4,R6
   \   00004F   8F..         MOV     ?V0 + 5,R7
   \   000051   75..00       MOV     ?V0 + 6,#0x0
   \   000054   78..         MOV     R0,#?V0 + 4
   \   000056   12....       LCALL   ?PUSH_XSTACK_I_THREE
   \   000059   AC..         MOV     R4,?V0 + 2
   \   00005B   7D00         MOV     R5,#0x0
   \   00005D   8A82         MOV     DPL,R2
   \   00005F   8B83         MOV     DPH,R3
   \   000061   E0           MOVX    A,@DPTR
   \   000062   FA           MOV     R2,A
   \   000063   A3           INC     DPTR
   \   000064   E0           MOVX    A,@DPTR
   \   000065   FB           MOV     R3,A
   \   000066   12....       LCALL   ??osal_memcpy?relay
   \   000069   7403         MOV     A,#0x3
   \   00006B   12....       LCALL   ?DEALLOC_XSTACK8
    186          
    187              osal_msg_send( MT_TaskID, (uint8 *)msg );
   \   00006E                ; Setup parameters for call to function osal_msg_send
   \   00006E   AA..         MOV     R2,?V0 + 0
   \   000070   AB..         MOV     R3,?V0 + 1
   \   000072   90....       MOV     DPTR,#MT_TaskID
   \   000075   E0           MOVX    A,@DPTR
   \   000076   F9           MOV     R1,A
   \   000077   12....       LCALL   ??osal_msg_send?relay
    188            }
    189          } // debug_str()
   \                     ??debug_str_0:
   \   00007A   7F07         MOV     R7,#0x7
   \   00007C   02....       LJMP    ?BANKED_LEAVE_XDATA

   \                                 In  segment BANK_RELAYS, align 1
   \                     ??debug_msg?relay:
   \   000000   12....       LCALL   ?BDISPATCH
   \   000003   ......       DC24    debug_msg

   \                                 In  segment BANK_RELAYS, align 1
   \                     ??debug_str?relay:
   \   000000   12....       LCALL   ?BDISPATCH
   \   000003   ......       DC24    debug_str
    190          
    191          /*********************************************************************
    192          *********************************************************************/
    193          #endif  // MT_TASK

   Maximum stack usage in bytes:

     Function               ISTACK PSTACK XSTACK
     --------               ------ ------ ------
     debug_msg                  1      0     22
       -> osal_msg_allocate     0      0     36
       -> osal_msg_send         0      0     36
     debug_str                  1      0     18
       -> osal_strlen           0      0     30
       -> osal_msg_allocate     0      0     30
       -> osal_memcpy           0      0     36
       -> osal_msg_send         0      0     30


   Segment part sizes:

     Function/Label    Bytes
     --------------    -----
     debug_msg          176
     debug_str          127
     ??debug_msg?relay    6
     ??debug_str?relay    6

 
 303 bytes in segment BANKED_CODE
  12 bytes in segment BANK_RELAYS
 
 315 bytes of CODE memory

Errors: none
Warnings: none
