###############################################################################
#                                                                             #
# IAR C/C++ Compiler V8.10.3.10338/W32 for 8051         23/May/2015  15:18:41 #
# Copyright 2004-2011 IAR Systems AB.                                         #
#                                                                             #
#    Core               =  plain                                              #
#    Code model         =  banked                                             #
#    Data model         =  large                                              #
#    Calling convention =  xdata reentrant                                    #
#    Constant location  =  data_rom                                           #
#    Dptr setup         =  1,16                                               #
#    Source file        =  E:\wireless-switch\demo\ZStack-CC2530-2.3.0-1.4.0\ #
#                          Components\hal\target\CC2530EB\hal_lcd.c           #
#    Command line       =  -f E:\wireless-switch\demo\ZStack-CC2530-2.3.0-1.4 #
#                          .0\Projects\zstack\Samples\SampleApp\CC2530DB\..\. #
#                          .\..\Tools\CC2530DB\f8wRouter.cfg (-DCPU32MHZ      #
#                          -DROOT=__near_func -DMAC_CFG_APP_PENDING_QUEUE=TRU #
#                          E -DRTR_NWK -DBLINK_LEDS) -f                       #
#                          E:\wireless-switch\demo\ZStack-CC2530-2.3.0-1.4.0\ #
#                          Projects\zstack\Samples\SampleApp\CC2530DB\..\..\. #
#                          .\Tools\CC2530DB\f8wConfig.cfg (-DSECURE=0         #
#                          -DZG_SECURE_DYNAMIC=0 -DREFLECTOR                  #
#                          -DDEFAULT_CHANLIST=0x00000800                      #
#                          -DZDAPP_CONFIG_PAN_ID=0xFFF1                       #
#                          -DNWK_START_DELAY=100 -DEXTENDED_JOINING_RANDOM_MA #
#                          SK=0x007F -DBEACON_REQUEST_DELAY=100               #
#                          -DBEACON_REQ_DELAY_MASK=0x00FF                     #
#                          -DROUTE_EXPIRY_TIME=30 -DAPSC_ACK_WAIT_DURATION_PO #
#                          LLED=3000 -DNWK_INDIRECT_MSG_TIMEOUT=7             #
#                          -DMAX_RREQ_ENTRIES=8 -DAPSC_MAX_FRAME_RETRIES=3    #
#                          -DNWK_MAX_DATA_RETRIES=2                           #
#                          -DMAX_POLL_FAILURE_RETRIES=2 -DMAX_BCAST=9         #
#                          -DAPS_MAX_GROUPS=16 -DMAX_RTG_ENTRIES=40           #
#                          -DNWK_MAX_BINDING_ENTRIES=4                        #
#                          -DMAX_BINDING_CLUSTER_IDS=4 "-DDEFAULT_KEY={0x01,  #
#                          0x03, 0x05, 0x07, 0x09, 0x0B, 0x0D, 0x0F, 0x00,    #
#                          0x02, 0x04, 0x06, 0x08, 0x0A, 0x0C, 0x0D}"         #
#                          -DMAC_MAX_FRAME_SIZE=116 "-DCONST=const __code"    #
#                          -DGENERIC=__generic -DRFD_RCVC_ALWAYS_ON=FALSE     #
#                          -DPOLL_RATE=1000 -DQUEUED_POLL_RATE=100            #
#                          -DRESPONSE_POLL_RATE=100) -DREJOIN_POLL_RATE=440   #
#                          E:\wireless-switch\demo\ZStack-CC2530-2.3.0-1.4.0\ #
#                          Components\hal\target\CC2530EB\hal_lcd.c -D        #
#                          ZIGBEEPRO -D ZTOOL_P1 -D MT_TASK -D MT_SYS_FUNC    #
#                          -D MT_ZDO_FUNC -D LCD_SUPPORTED=DEBUG -D           #
#                          ROUTER_ME -lC E:\wireless-switch\demo\ZStack-CC253 #
#                          0-2.3.0-1.4.0\Projects\zstack\Samples\SampleApp\CC #
#                          2530DB\RouterEB-Pro\List\ -lA                      #
#                          E:\wireless-switch\demo\ZStack-CC2530-2.3.0-1.4.0\ #
#                          Projects\zstack\Samples\SampleApp\CC2530DB\RouterE #
#                          B-Pro\List\ --diag_suppress Pe001,Pa010 -o         #
#                          E:\wireless-switch\demo\ZStack-CC2530-2.3.0-1.4.0\ #
#                          Projects\zstack\Samples\SampleApp\CC2530DB\RouterE #
#                          B-Pro\Obj\ -e --debug --core=plain --dptr=16,1     #
#                          --data_model=large --code_model=banked             #
#                          --calling_convention=xdata_reentrant               #
#                          --place_constants=data_rom --nr_virtual_regs 16    #
#                          -I E:\wireless-switch\demo\ZStack-CC2530-2.3.0-1.4 #
#                          .0\Projects\zstack\Samples\SampleApp\CC2530DB\ -I  #
#                          E:\wireless-switch\demo\ZStack-CC2530-2.3.0-1.4.0\ #
#                          Projects\zstack\Samples\SampleApp\CC2530DB\..\SOUR #
#                          CE\ -I E:\wireless-switch\demo\ZStack-CC2530-2.3.0 #
#                          -1.4.0\Projects\zstack\Samples\SampleApp\CC2530DB\ #
#                          ..\..\..\ZMAIN\TI2530DB\ -I                        #
#                          E:\wireless-switch\demo\ZStack-CC2530-2.3.0-1.4.0\ #
#                          Projects\zstack\Samples\SampleApp\CC2530DB\..\..\. #
#                          .\..\..\COMPONENTS\MT\ -I                          #
#                          E:\wireless-switch\demo\ZStack-CC2530-2.3.0-1.4.0\ #
#                          Projects\zstack\Samples\SampleApp\CC2530DB\..\..\. #
#                          .\..\..\COMPONENTS\HAL\INCLUDE\ -I                 #
#                          E:\wireless-switch\demo\ZStack-CC2530-2.3.0-1.4.0\ #
#                          Projects\zstack\Samples\SampleApp\CC2530DB\..\..\. #
#                          .\..\..\COMPONENTS\HAL\TARGET\CC2530EB\ -I         #
#                          E:\wireless-switch\demo\ZStack-CC2530-2.3.0-1.4.0\ #
#                          Projects\zstack\Samples\SampleApp\CC2530DB\..\..\. #
#                          .\..\..\COMPONENTS\OSAL\MCU\CCSOC\ -I              #
#                          E:\wireless-switch\demo\ZStack-CC2530-2.3.0-1.4.0\ #
#                          Projects\zstack\Samples\SampleApp\CC2530DB\..\..\. #
#                          .\..\..\COMPONENTS\OSAL\INCLUDE\ -I                #
#                          E:\wireless-switch\demo\ZStack-CC2530-2.3.0-1.4.0\ #
#                          Projects\zstack\Samples\SampleApp\CC2530DB\..\..\. #
#                          .\..\..\COMPONENTS\STACK\AF\ -I                    #
#                          E:\wireless-switch\demo\ZStack-CC2530-2.3.0-1.4.0\ #
#                          Projects\zstack\Samples\SampleApp\CC2530DB\..\..\. #
#                          .\..\..\COMPONENTS\STACK\NWK\ -I                   #
#                          E:\wireless-switch\demo\ZStack-CC2530-2.3.0-1.4.0\ #
#                          Projects\zstack\Samples\SampleApp\CC2530DB\..\..\. #
#                          .\..\..\COMPONENTS\STACK\SEC\ -I                   #
#                          E:\wireless-switch\demo\ZStack-CC2530-2.3.0-1.4.0\ #
#                          Projects\zstack\Samples\SampleApp\CC2530DB\..\..\. #
#                          .\..\..\COMPONENTS\STACK\SAPI\ -I                  #
#                          E:\wireless-switch\demo\ZStack-CC2530-2.3.0-1.4.0\ #
#                          Projects\zstack\Samples\SampleApp\CC2530DB\..\..\. #
#                          .\..\..\COMPONENTS\STACK\SYS\ -I                   #
#                          E:\wireless-switch\demo\ZStack-CC2530-2.3.0-1.4.0\ #
#                          Projects\zstack\Samples\SampleApp\CC2530DB\..\..\. #
#                          .\..\..\COMPONENTS\STACK\ZDO\ -I                   #
#                          E:\wireless-switch\demo\ZStack-CC2530-2.3.0-1.4.0\ #
#                          Projects\zstack\Samples\SampleApp\CC2530DB\..\..\. #
#                          .\..\..\COMPONENTS\ZMAC\F8W\ -I                    #
#                          E:\wireless-switch\demo\ZStack-CC2530-2.3.0-1.4.0\ #
#                          Projects\zstack\Samples\SampleApp\CC2530DB\..\..\. #
#                          .\..\..\COMPONENTS\ZMAC\ -I                        #
#                          E:\wireless-switch\demo\ZStack-CC2530-2.3.0-1.4.0\ #
#                          Projects\zstack\Samples\SampleApp\CC2530DB\..\..\. #
#                          .\..\..\COMPONENTS\SERVICES\SADDR\ -I              #
#                          E:\wireless-switch\demo\ZStack-CC2530-2.3.0-1.4.0\ #
#                          Projects\zstack\Samples\SampleApp\CC2530DB\..\..\. #
#                          .\..\..\COMPONENTS\SERVICES\SDATA\ -I              #
#                          E:\wireless-switch\demo\ZStack-CC2530-2.3.0-1.4.0\ #
#                          Projects\zstack\Samples\SampleApp\CC2530DB\..\..\. #
#                          .\..\..\COMPONENTS\MAC\INCLUDE\ -I                 #
#                          E:\wireless-switch\demo\ZStack-CC2530-2.3.0-1.4.0\ #
#                          Projects\zstack\Samples\SampleApp\CC2530DB\..\..\. #
#                          .\..\..\COMPONENTS\MAC\HIGH_LEVEL\ -I              #
#                          E:\wireless-switch\demo\ZStack-CC2530-2.3.0-1.4.0\ #
#                          Projects\zstack\Samples\SampleApp\CC2530DB\..\..\. #
#                          .\..\..\COMPONENTS\MAC\LOW_LEVEL\srf04\ -I         #
#                          E:\wireless-switch\demo\ZStack-CC2530-2.3.0-1.4.0\ #
#                          Projects\zstack\Samples\SampleApp\CC2530DB\..\..\. #
#                          .\..\..\COMPONENTS\MAC\LOW_LEVEL\srf04\SINGLE_CHIP #
#                          \ -Ohs --require_prototypes                        #
#    List file          =  E:\wireless-switch\demo\ZStack-CC2530-2.3.0-1.4.0\ #
#                          Projects\zstack\Samples\SampleApp\CC2530DB\RouterE #
#                          B-Pro\List\hal_lcd.lst                             #
#    Object file        =  E:\wireless-switch\demo\ZStack-CC2530-2.3.0-1.4.0\ #
#                          Projects\zstack\Samples\SampleApp\CC2530DB\RouterE #
#                          B-Pro\Obj\hal_lcd.r51                              #
#                                                                             #
#                                                                             #
###############################################################################

E:\wireless-switch\demo\ZStack-CC2530-2.3.0-1.4.0\Components\hal\target\CC2530EB\hal_lcd.c
      1          /****************************************************************************
      2          * Filename: hal_lcd.c
      3          * Author:      Andy
      4          * Date:        2013-01-11
      5          * Version:     1.0
      6          * Description: OLED driver
      7          ****************************************************************************/
      8          #include "hal_types.h"
      9          #include "hal_lcd.h"

   \                                 In  segment SFR_AN, at 0x80
   \   union <unnamed> volatile __sfr _A_P0
   \                     _A_P0:
   \   000000                DS 1

   \                                 In  segment SFR_AN, at 0x90
   \   union <unnamed> volatile __sfr _A_P1
   \                     _A_P1:
   \   000000                DS 1

   \                                 In  segment SFR_AN, at 0xf3
   \   unsigned char volatile __sfr P0SEL
   \                     P0SEL:
   \   000000                DS 1

   \                                 In  segment SFR_AN, at 0xf4
   \   unsigned char volatile __sfr P1SEL
   \                     P1SEL:
   \   000000                DS 1

   \                                 In  segment SFR_AN, at 0xfd
   \   unsigned char volatile __sfr P0DIR
   \                     P0DIR:
   \   000000                DS 1

   \                                 In  segment SFR_AN, at 0xfe
   \   unsigned char volatile __sfr P1DIR
   \                     P1DIR:
   \   000000                DS 1
     10          #include "OSAL.h"
     11          #include "OnBoard.h"
     12          #include "hal_assert.h"
     13          #include <string.h>
     14          
     15          #if defined (ZTOOL_P1) || defined (ZTOOL_P2)
     16            #include "DebugTrace.h"
     17          #endif
     18          
     19          #define LCD_SCL P1_2       //SCLK  时钟 D0（SCLK）
     20          #define LCD_SDA P1_3       //SDA   D1（MOSI） 数据
     21          #define LCD_RST P1_7       //_RES  hardware reset   复位 
     22          #define LCD_DC  P0_0       //A0  H/L 命令数据选通端，H：数据，L:命令
     23          
     24          #define XLevelL            0x00
     25          #define XLevelH            0x10
     26          #define XLevel             ((XLevelH&0x0F)*16+XLevelL)
     27          #define Max_Column         128
     28          #define Max_Row            64
     29          #define Brightness         0xCF 
     30          #define X_WIDTH            128
     31          #define Y_WIDTH            64
     32          
     33          #define LCD_MAX_BUF        25
     34          #define HAL_LCD_MAX_CHARS  16   // Max number of chars on a single LCD line 
     35          
     36          

   \                                 In  segment XDATA_ROM_C, align 1
     37          const unsigned char F8X16[]=	  
   \                     F8X16:
   \   000000   00           DB 0
   \   000001   00           DB 0
   \   000002   00           DB 0
   \   000003   00           DB 0
   \   000004   00           DB 0
   \   000005   00           DB 0
   \   000006   00           DB 0
   \   000007   00           DB 0
   \   000008   00           DB 0
   \   000009   00           DB 0
   \   00000A   00           DB 0
   \   00000B   00           DB 0
   \   00000C   00           DB 0
   \   00000D   00           DB 0
   \   00000E   00           DB 0
   \   00000F   00           DB 0
   \   000010   00           DB 0
   \   000011   00           DB 0
   \   000012   00           DB 0
   \   000013   F8           DB 248
   \   000014   00           DB 0
   \   000015   00           DB 0
   \   000016   00           DB 0
   \   000017   00           DB 0
   \   000018   00           DB 0
   \   000019   00           DB 0
   \   00001A   00           DB 0
   \   00001B   33           DB 51
   \   00001C   30           DB 48
   \   00001D   00           DB 0
   \   00001E   00           DB 0
   \   00001F   00           DB 0
   \   000020   00           DB 0
   \   000021   10           DB 16
   \   000022   0C           DB 12
   \   000023   06           DB 6
   \   000024   10           DB 16
   \   000025   0C           DB 12
   \   000026   06           DB 6
   \   000027   00           DB 0
   \   000028   00           DB 0
   \   000029   00           DB 0
   \   00002A   00           DB 0
   \   00002B   00           DB 0
   \   00002C   00           DB 0
   \   00002D   00           DB 0
   \   00002E   00           DB 0
   \   00002F   00           DB 0
   \   000030   40           DB 64
   \   000031   C0           DB 192
   \   000032   78           DB 120
   \   000033   40           DB 64
   \   000034   C0           DB 192
   \   000035   78           DB 120
   \   000036   40           DB 64
   \   000037   00           DB 0
   \   000038   04           DB 4
   \   000039   3F           DB 63
   \   00003A   04           DB 4
   \   00003B   04           DB 4
   \   00003C   3F           DB 63
   \   00003D   04           DB 4
   \   00003E   04           DB 4
   \   00003F   00           DB 0
   \   000040   00           DB 0
   \   000041   70           DB 112
   \   000042   88           DB 136
   \   000043   FC           DB 252
   \   000044   08           DB 8
   \   000045   30           DB 48
   \   000046   00           DB 0
   \   000047   00           DB 0
   \   000048   00           DB 0
   \   000049   18           DB 24
   \   00004A   20           DB 32
   \   00004B   FF           DB 255
   \   00004C   21           DB 33
   \   00004D   1E           DB 30
   \   00004E   00           DB 0
   \   00004F   00           DB 0
   \   000050   F0           DB 240
   \   000051   08           DB 8
   \   000052   F0           DB 240
   \   000053   00           DB 0
   \   000054   E0           DB 224
   \   000055   18           DB 24
   \   000056   00           DB 0
   \   000057   00           DB 0
   \   000058   00           DB 0
   \   000059   21           DB 33
   \   00005A   1C           DB 28
   \   00005B   03           DB 3
   \   00005C   1E           DB 30
   \   00005D   21           DB 33
   \   00005E   1E           DB 30
   \   00005F   00           DB 0
   \   000060   00           DB 0
   \   000061   F0           DB 240
   \   000062   08           DB 8
   \   000063   88           DB 136
   \   000064   70           DB 112
   \   000065   00           DB 0
   \   000066   00           DB 0
   \   000067   00           DB 0
   \   000068   1E           DB 30
   \   000069   21           DB 33
   \   00006A   23           DB 35
   \   00006B   24           DB 36
   \   00006C   19           DB 25
   \   00006D   27           DB 39
   \   00006E   21           DB 33
   \   00006F   10           DB 16
   \   000070   10           DB 16
   \   000071   16           DB 22
   \   000072   0E           DB 14
   \   000073   00           DB 0
   \   000074   00           DB 0
   \   000075   00           DB 0
   \   000076   00           DB 0
   \   000077   00           DB 0
   \   000078   00           DB 0
   \   000079   00           DB 0
   \   00007A   00           DB 0
   \   00007B   00           DB 0
   \   00007C   00           DB 0
   \   00007D   00           DB 0
   \   00007E   00           DB 0
   \   00007F   00           DB 0
   \   000080   00           DB 0
   \   000081   00           DB 0
   \   000082   00           DB 0
   \   000083   E0           DB 224
   \   000084   18           DB 24
   \   000085   04           DB 4
   \   000086   02           DB 2
   \   000087   00           DB 0
   \   000088   00           DB 0
   \   000089   00           DB 0
   \   00008A   00           DB 0
   \   00008B   07           DB 7
   \   00008C   18           DB 24
   \   00008D   20           DB 32
   \   00008E   40           DB 64
   \   00008F   00           DB 0
   \   000090   00           DB 0
   \   000091   02           DB 2
   \   000092   04           DB 4
   \   000093   18           DB 24
   \   000094   E0           DB 224
   \   000095   00           DB 0
   \   000096   00           DB 0
   \   000097   00           DB 0
   \   000098   00           DB 0
   \   000099   40           DB 64
   \   00009A   20           DB 32
   \   00009B   18           DB 24
   \   00009C   07           DB 7
   \   00009D   00           DB 0
   \   00009E   00           DB 0
   \   00009F   00           DB 0
   \   0000A0   40           DB 64
   \   0000A1   40           DB 64
   \   0000A2   80           DB 128
   \   0000A3   F0           DB 240
   \   0000A4   80           DB 128
   \   0000A5   40           DB 64
   \   0000A6   40           DB 64
   \   0000A7   00           DB 0
   \   0000A8   02           DB 2
   \   0000A9   02           DB 2
   \   0000AA   01           DB 1
   \   0000AB   0F           DB 15
   \   0000AC   01           DB 1
   \   0000AD   02           DB 2
   \   0000AE   02           DB 2
   \   0000AF   00           DB 0
   \   0000B0   00           DB 0
   \   0000B1   00           DB 0
   \   0000B2   00           DB 0
   \   0000B3   F0           DB 240
   \   0000B4   00           DB 0
   \   0000B5   00           DB 0
   \   0000B6   00           DB 0
   \   0000B7   00           DB 0
   \   0000B8   01           DB 1
   \   0000B9   01           DB 1
   \   0000BA   01           DB 1
   \   0000BB   1F           DB 31
   \   0000BC   01           DB 1
   \   0000BD   01           DB 1
   \   0000BE   01           DB 1
   \   0000BF   00           DB 0
   \   0000C0   00           DB 0
   \   0000C1   00           DB 0
   \   0000C2   00           DB 0
   \   0000C3   00           DB 0
   \   0000C4   00           DB 0
   \   0000C5   00           DB 0
   \   0000C6   00           DB 0
   \   0000C7   00           DB 0
   \   0000C8   80           DB 128
   \   0000C9   B0           DB 176
   \   0000CA   70           DB 112
   \   0000CB   00           DB 0
   \   0000CC   00           DB 0
   \   0000CD   00           DB 0
   \   0000CE   00           DB 0
   \   0000CF   00           DB 0
   \   0000D0   00           DB 0
   \   0000D1   00           DB 0
   \   0000D2   00           DB 0
   \   0000D3   00           DB 0
   \   0000D4   00           DB 0
   \   0000D5   00           DB 0
   \   0000D6   00           DB 0
   \   0000D7   00           DB 0
   \   0000D8   00           DB 0
   \   0000D9   01           DB 1
   \   0000DA   01           DB 1
   \   0000DB   01           DB 1
   \   0000DC   01           DB 1
   \   0000DD   01           DB 1
   \   0000DE   01           DB 1
   \   0000DF   01           DB 1
   \   0000E0   00           DB 0
   \   0000E1   00           DB 0
   \   0000E2   00           DB 0
   \   0000E3   00           DB 0
   \   0000E4   00           DB 0
   \   0000E5   00           DB 0
   \   0000E6   00           DB 0
   \   0000E7   00           DB 0
   \   0000E8   00           DB 0
   \   0000E9   30           DB 48
   \   0000EA   30           DB 48
   \   0000EB   00           DB 0
   \   0000EC   00           DB 0
   \   0000ED   00           DB 0
   \   0000EE   00           DB 0
   \   0000EF   00           DB 0
   \   0000F0   00           DB 0
   \   0000F1   00           DB 0
   \   0000F2   00           DB 0
   \   0000F3   00           DB 0
   \   0000F4   80           DB 128
   \   0000F5   60           DB 96
   \   0000F6   18           DB 24
   \   0000F7   04           DB 4
   \   0000F8   00           DB 0
   \   0000F9   60           DB 96
   \   0000FA   18           DB 24
   \   0000FB   06           DB 6
   \   0000FC   01           DB 1
   \   0000FD   00           DB 0
   \   0000FE   00           DB 0
   \   0000FF   00           DB 0
   \   000100   00           DB 0
   \   000101   E0           DB 224
   \   000102   10           DB 16
   \   000103   08           DB 8
   \   000104   08           DB 8
   \   000105   10           DB 16
   \   000106   E0           DB 224
   \   000107   00           DB 0
   \   000108   00           DB 0
   \   000109   0F           DB 15
   \   00010A   10           DB 16
   \   00010B   20           DB 32
   \   00010C   20           DB 32
   \   00010D   10           DB 16
   \   00010E   0F           DB 15
   \   00010F   00           DB 0
   \   000110   00           DB 0
   \   000111   10           DB 16
   \   000112   10           DB 16
   \   000113   F8           DB 248
   \   000114   00           DB 0
   \   000115   00           DB 0
   \   000116   00           DB 0
   \   000117   00           DB 0
   \   000118   00           DB 0
   \   000119   20           DB 32
   \   00011A   20           DB 32
   \   00011B   3F           DB 63
   \   00011C   20           DB 32
   \   00011D   20           DB 32
   \   00011E   00           DB 0
   \   00011F   00           DB 0
   \   000120   00           DB 0
   \   000121   70           DB 112
   \   000122   08           DB 8
   \   000123   08           DB 8
   \   000124   08           DB 8
   \   000125   88           DB 136
   \   000126   70           DB 112
   \   000127   00           DB 0
   \   000128   00           DB 0
   \   000129   30           DB 48
   \   00012A   28           DB 40
   \   00012B   24           DB 36
   \   00012C   22           DB 34
   \   00012D   21           DB 33
   \   00012E   30           DB 48
   \   00012F   00           DB 0
   \   000130   00           DB 0
   \   000131   30           DB 48
   \   000132   08           DB 8
   \   000133   88           DB 136
   \   000134   88           DB 136
   \   000135   48           DB 72
   \   000136   30           DB 48
   \   000137   00           DB 0
   \   000138   00           DB 0
   \   000139   18           DB 24
   \   00013A   20           DB 32
   \   00013B   20           DB 32
   \   00013C   20           DB 32
   \   00013D   11           DB 17
   \   00013E   0E           DB 14
   \   00013F   00           DB 0
   \   000140   00           DB 0
   \   000141   00           DB 0
   \   000142   C0           DB 192
   \   000143   20           DB 32
   \   000144   10           DB 16
   \   000145   F8           DB 248
   \   000146   00           DB 0
   \   000147   00           DB 0
   \   000148   00           DB 0
   \   000149   07           DB 7
   \   00014A   04           DB 4
   \   00014B   24           DB 36
   \   00014C   24           DB 36
   \   00014D   3F           DB 63
   \   00014E   24           DB 36
   \   00014F   00           DB 0
   \   000150   00           DB 0
   \   000151   F8           DB 248
   \   000152   08           DB 8
   \   000153   88           DB 136
   \   000154   88           DB 136
   \   000155   08           DB 8
   \   000156   08           DB 8
   \   000157   00           DB 0
   \   000158   00           DB 0
   \   000159   19           DB 25
   \   00015A   21           DB 33
   \   00015B   20           DB 32
   \   00015C   20           DB 32
   \   00015D   11           DB 17
   \   00015E   0E           DB 14
   \   00015F   00           DB 0
   \   000160   00           DB 0
   \   000161   E0           DB 224
   \   000162   10           DB 16
   \   000163   88           DB 136
   \   000164   88           DB 136
   \   000165   18           DB 24
   \   000166   00           DB 0
   \   000167   00           DB 0
   \   000168   00           DB 0
   \   000169   0F           DB 15
   \   00016A   11           DB 17
   \   00016B   20           DB 32
   \   00016C   20           DB 32
   \   00016D   11           DB 17
   \   00016E   0E           DB 14
   \   00016F   00           DB 0
   \   000170   00           DB 0
   \   000171   38           DB 56
   \   000172   08           DB 8
   \   000173   08           DB 8
   \   000174   C8           DB 200
   \   000175   38           DB 56
   \   000176   08           DB 8
   \   000177   00           DB 0
   \   000178   00           DB 0
   \   000179   00           DB 0
   \   00017A   00           DB 0
   \   00017B   3F           DB 63
   \   00017C   00           DB 0
   \   00017D   00           DB 0
   \   00017E   00           DB 0
   \   00017F   00           DB 0
   \   000180   00           DB 0
   \   000181   70           DB 112
   \   000182   88           DB 136
   \   000183   08           DB 8
   \   000184   08           DB 8
   \   000185   88           DB 136
   \   000186   70           DB 112
   \   000187   00           DB 0
   \   000188   00           DB 0
   \   000189   1C           DB 28
   \   00018A   22           DB 34
   \   00018B   21           DB 33
   \   00018C   21           DB 33
   \   00018D   22           DB 34
   \   00018E   1C           DB 28
   \   00018F   00           DB 0
   \   000190   00           DB 0
   \   000191   E0           DB 224
   \   000192   10           DB 16
   \   000193   08           DB 8
   \   000194   08           DB 8
   \   000195   10           DB 16
   \   000196   E0           DB 224
   \   000197   00           DB 0
   \   000198   00           DB 0
   \   000199   00           DB 0
   \   00019A   31           DB 49
   \   00019B   22           DB 34
   \   00019C   22           DB 34
   \   00019D   11           DB 17
   \   00019E   0F           DB 15
   \   00019F   00           DB 0
   \   0001A0   00           DB 0
   \   0001A1   00           DB 0
   \   0001A2   00           DB 0
   \   0001A3   C0           DB 192
   \   0001A4   C0           DB 192
   \   0001A5   00           DB 0
   \   0001A6   00           DB 0
   \   0001A7   00           DB 0
   \   0001A8   00           DB 0
   \   0001A9   00           DB 0
   \   0001AA   00           DB 0
   \   0001AB   30           DB 48
   \   0001AC   30           DB 48
   \   0001AD   00           DB 0
   \   0001AE   00           DB 0
   \   0001AF   00           DB 0
   \   0001B0   00           DB 0
   \   0001B1   00           DB 0
   \   0001B2   00           DB 0
   \   0001B3   80           DB 128
   \   0001B4   00           DB 0
   \   0001B5   00           DB 0
   \   0001B6   00           DB 0
   \   0001B7   00           DB 0
   \   0001B8   00           DB 0
   \   0001B9   00           DB 0
   \   0001BA   80           DB 128
   \   0001BB   60           DB 96
   \   0001BC   00           DB 0
   \   0001BD   00           DB 0
   \   0001BE   00           DB 0
   \   0001BF   00           DB 0
   \   0001C0   00           DB 0
   \   0001C1   00           DB 0
   \   0001C2   80           DB 128
   \   0001C3   40           DB 64
   \   0001C4   20           DB 32
   \   0001C5   10           DB 16
   \   0001C6   08           DB 8
   \   0001C7   00           DB 0
   \   0001C8   00           DB 0
   \   0001C9   01           DB 1
   \   0001CA   02           DB 2
   \   0001CB   04           DB 4
   \   0001CC   08           DB 8
   \   0001CD   10           DB 16
   \   0001CE   20           DB 32
   \   0001CF   00           DB 0
   \   0001D0   40           DB 64
   \   0001D1   40           DB 64
   \   0001D2   40           DB 64
   \   0001D3   40           DB 64
   \   0001D4   40           DB 64
   \   0001D5   40           DB 64
   \   0001D6   40           DB 64
   \   0001D7   00           DB 0
   \   0001D8   04           DB 4
   \   0001D9   04           DB 4
   \   0001DA   04           DB 4
   \   0001DB   04           DB 4
   \   0001DC   04           DB 4
   \   0001DD   04           DB 4
   \   0001DE   04           DB 4
   \   0001DF   00           DB 0
   \   0001E0   00           DB 0
   \   0001E1   08           DB 8
   \   0001E2   10           DB 16
   \   0001E3   20           DB 32
   \   0001E4   40           DB 64
   \   0001E5   80           DB 128
   \   0001E6   00           DB 0
   \   0001E7   00           DB 0
   \   0001E8   00           DB 0
   \   0001E9   20           DB 32
   \   0001EA   10           DB 16
   \   0001EB   08           DB 8
   \   0001EC   04           DB 4
   \   0001ED   02           DB 2
   \   0001EE   01           DB 1
   \   0001EF   00           DB 0
   \   0001F0   00           DB 0
   \   0001F1   70           DB 112
   \   0001F2   48           DB 72
   \   0001F3   08           DB 8
   \   0001F4   08           DB 8
   \   0001F5   08           DB 8
   \   0001F6   F0           DB 240
   \   0001F7   00           DB 0
   \   0001F8   00           DB 0
   \   0001F9   00           DB 0
   \   0001FA   00           DB 0
   \   0001FB   30           DB 48
   \   0001FC   36           DB 54
   \   0001FD   01           DB 1
   \   0001FE   00           DB 0
   \   0001FF   00           DB 0
   \   000200   C0           DB 192
   \   000201   30           DB 48
   \   000202   C8           DB 200
   \   000203   28           DB 40
   \   000204   E8           DB 232
   \   000205   10           DB 16
   \   000206   E0           DB 224
   \   000207   00           DB 0
   \   000208   07           DB 7
   \   000209   18           DB 24
   \   00020A   27           DB 39
   \   00020B   24           DB 36
   \   00020C   23           DB 35
   \   00020D   14           DB 20
   \   00020E   0B           DB 11
   \   00020F   00           DB 0
   \   000210   00           DB 0
   \   000211   00           DB 0
   \   000212   C0           DB 192
   \   000213   38           DB 56
   \   000214   E0           DB 224
   \   000215   00           DB 0
   \   000216   00           DB 0
   \   000217   00           DB 0
   \   000218   20           DB 32
   \   000219   3C           DB 60
   \   00021A   23           DB 35
   \   00021B   02           DB 2
   \   00021C   02           DB 2
   \   00021D   27           DB 39
   \   00021E   38           DB 56
   \   00021F   20           DB 32
   \   000220   08           DB 8
   \   000221   F8           DB 248
   \   000222   88           DB 136
   \   000223   88           DB 136
   \   000224   88           DB 136
   \   000225   70           DB 112
   \   000226   00           DB 0
   \   000227   00           DB 0
   \   000228   20           DB 32
   \   000229   3F           DB 63
   \   00022A   20           DB 32
   \   00022B   20           DB 32
   \   00022C   20           DB 32
   \   00022D   11           DB 17
   \   00022E   0E           DB 14
   \   00022F   00           DB 0
   \   000230   C0           DB 192
   \   000231   30           DB 48
   \   000232   08           DB 8
   \   000233   08           DB 8
   \   000234   08           DB 8
   \   000235   08           DB 8
   \   000236   38           DB 56
   \   000237   00           DB 0
   \   000238   07           DB 7
   \   000239   18           DB 24
   \   00023A   20           DB 32
   \   00023B   20           DB 32
   \   00023C   20           DB 32
   \   00023D   10           DB 16
   \   00023E   08           DB 8
   \   00023F   00           DB 0
   \   000240   08           DB 8
   \   000241   F8           DB 248
   \   000242   08           DB 8
   \   000243   08           DB 8
   \   000244   08           DB 8
   \   000245   10           DB 16
   \   000246   E0           DB 224
   \   000247   00           DB 0
   \   000248   20           DB 32
   \   000249   3F           DB 63
   \   00024A   20           DB 32
   \   00024B   20           DB 32
   \   00024C   20           DB 32
   \   00024D   10           DB 16
   \   00024E   0F           DB 15
   \   00024F   00           DB 0
   \   000250   08           DB 8
   \   000251   F8           DB 248
   \   000252   88           DB 136
   \   000253   88           DB 136
   \   000254   E8           DB 232
   \   000255   08           DB 8
   \   000256   10           DB 16
   \   000257   00           DB 0
   \   000258   20           DB 32
   \   000259   3F           DB 63
   \   00025A   20           DB 32
   \   00025B   20           DB 32
   \   00025C   23           DB 35
   \   00025D   20           DB 32
   \   00025E   18           DB 24
   \   00025F   00           DB 0
   \   000260   08           DB 8
   \   000261   F8           DB 248
   \   000262   88           DB 136
   \   000263   88           DB 136
   \   000264   E8           DB 232
   \   000265   08           DB 8
   \   000266   10           DB 16
   \   000267   00           DB 0
   \   000268   20           DB 32
   \   000269   3F           DB 63
   \   00026A   20           DB 32
   \   00026B   00           DB 0
   \   00026C   03           DB 3
   \   00026D   00           DB 0
   \   00026E   00           DB 0
   \   00026F   00           DB 0
   \   000270   C0           DB 192
   \   000271   30           DB 48
   \   000272   08           DB 8
   \   000273   08           DB 8
   \   000274   08           DB 8
   \   000275   38           DB 56
   \   000276   00           DB 0
   \   000277   00           DB 0
   \   000278   07           DB 7
   \   000279   18           DB 24
   \   00027A   20           DB 32
   \   00027B   20           DB 32
   \   00027C   22           DB 34
   \   00027D   1E           DB 30
   \   00027E   02           DB 2
   \   00027F   00           DB 0
   \   000280   08           DB 8
   \   000281   F8           DB 248
   \   000282   08           DB 8
   \   000283   00           DB 0
   \   000284   00           DB 0
   \   000285   08           DB 8
   \   000286   F8           DB 248
   \   000287   08           DB 8
   \   000288   20           DB 32
   \   000289   3F           DB 63
   \   00028A   21           DB 33
   \   00028B   01           DB 1
   \   00028C   01           DB 1
   \   00028D   21           DB 33
   \   00028E   3F           DB 63
   \   00028F   20           DB 32
   \   000290   00           DB 0
   \   000291   08           DB 8
   \   000292   08           DB 8
   \   000293   F8           DB 248
   \   000294   08           DB 8
   \   000295   08           DB 8
   \   000296   00           DB 0
   \   000297   00           DB 0
   \   000298   00           DB 0
   \   000299   20           DB 32
   \   00029A   20           DB 32
   \   00029B   3F           DB 63
   \   00029C   20           DB 32
   \   00029D   20           DB 32
   \   00029E   00           DB 0
   \   00029F   00           DB 0
   \   0002A0   00           DB 0
   \   0002A1   00           DB 0
   \   0002A2   08           DB 8
   \   0002A3   08           DB 8
   \   0002A4   F8           DB 248
   \   0002A5   08           DB 8
   \   0002A6   08           DB 8
   \   0002A7   00           DB 0
   \   0002A8   C0           DB 192
   \   0002A9   80           DB 128
   \   0002AA   80           DB 128
   \   0002AB   80           DB 128
   \   0002AC   7F           DB 127
   \   0002AD   00           DB 0
   \   0002AE   00           DB 0
   \   0002AF   00           DB 0
   \   0002B0   08           DB 8
   \   0002B1   F8           DB 248
   \   0002B2   88           DB 136
   \   0002B3   C0           DB 192
   \   0002B4   28           DB 40
   \   0002B5   18           DB 24
   \   0002B6   08           DB 8
   \   0002B7   00           DB 0
   \   0002B8   20           DB 32
   \   0002B9   3F           DB 63
   \   0002BA   20           DB 32
   \   0002BB   01           DB 1
   \   0002BC   26           DB 38
   \   0002BD   38           DB 56
   \   0002BE   20           DB 32
   \   0002BF   00           DB 0
   \   0002C0   08           DB 8
   \   0002C1   F8           DB 248
   \   0002C2   08           DB 8
   \   0002C3   00           DB 0
   \   0002C4   00           DB 0
   \   0002C5   00           DB 0
   \   0002C6   00           DB 0
   \   0002C7   00           DB 0
   \   0002C8   20           DB 32
   \   0002C9   3F           DB 63
   \   0002CA   20           DB 32
   \   0002CB   20           DB 32
   \   0002CC   20           DB 32
   \   0002CD   20           DB 32
   \   0002CE   30           DB 48
   \   0002CF   00           DB 0
   \   0002D0   08           DB 8
   \   0002D1   F8           DB 248
   \   0002D2   F8           DB 248
   \   0002D3   00           DB 0
   \   0002D4   F8           DB 248
   \   0002D5   F8           DB 248
   \   0002D6   08           DB 8
   \   0002D7   00           DB 0
   \   0002D8   20           DB 32
   \   0002D9   3F           DB 63
   \   0002DA   00           DB 0
   \   0002DB   3F           DB 63
   \   0002DC   00           DB 0
   \   0002DD   3F           DB 63
   \   0002DE   20           DB 32
   \   0002DF   00           DB 0
   \   0002E0   08           DB 8
   \   0002E1   F8           DB 248
   \   0002E2   30           DB 48
   \   0002E3   C0           DB 192
   \   0002E4   00           DB 0
   \   0002E5   08           DB 8
   \   0002E6   F8           DB 248
   \   0002E7   08           DB 8
   \   0002E8   20           DB 32
   \   0002E9   3F           DB 63
   \   0002EA   20           DB 32
   \   0002EB   00           DB 0
   \   0002EC   07           DB 7
   \   0002ED   18           DB 24
   \   0002EE   3F           DB 63
   \   0002EF   00           DB 0
   \   0002F0   E0           DB 224
   \   0002F1   10           DB 16
   \   0002F2   08           DB 8
   \   0002F3   08           DB 8
   \   0002F4   08           DB 8
   \   0002F5   10           DB 16
   \   0002F6   E0           DB 224
   \   0002F7   00           DB 0
   \   0002F8   0F           DB 15
   \   0002F9   10           DB 16
   \   0002FA   20           DB 32
   \   0002FB   20           DB 32
   \   0002FC   20           DB 32
   \   0002FD   10           DB 16
   \   0002FE   0F           DB 15
   \   0002FF   00           DB 0
   \   000300   08           DB 8
   \   000301   F8           DB 248
   \   000302   08           DB 8
   \   000303   08           DB 8
   \   000304   08           DB 8
   \   000305   08           DB 8
   \   000306   F0           DB 240
   \   000307   00           DB 0
   \   000308   20           DB 32
   \   000309   3F           DB 63
   \   00030A   21           DB 33
   \   00030B   01           DB 1
   \   00030C   01           DB 1
   \   00030D   01           DB 1
   \   00030E   00           DB 0
   \   00030F   00           DB 0
   \   000310   E0           DB 224
   \   000311   10           DB 16
   \   000312   08           DB 8
   \   000313   08           DB 8
   \   000314   08           DB 8
   \   000315   10           DB 16
   \   000316   E0           DB 224
   \   000317   00           DB 0
   \   000318   0F           DB 15
   \   000319   18           DB 24
   \   00031A   24           DB 36
   \   00031B   24           DB 36
   \   00031C   38           DB 56
   \   00031D   50           DB 80
   \   00031E   4F           DB 79
   \   00031F   00           DB 0
   \   000320   08           DB 8
   \   000321   F8           DB 248
   \   000322   88           DB 136
   \   000323   88           DB 136
   \   000324   88           DB 136
   \   000325   88           DB 136
   \   000326   70           DB 112
   \   000327   00           DB 0
   \   000328   20           DB 32
   \   000329   3F           DB 63
   \   00032A   20           DB 32
   \   00032B   00           DB 0
   \   00032C   03           DB 3
   \   00032D   0C           DB 12
   \   00032E   30           DB 48
   \   00032F   20           DB 32
   \   000330   00           DB 0
   \   000331   70           DB 112
   \   000332   88           DB 136
   \   000333   08           DB 8
   \   000334   08           DB 8
   \   000335   08           DB 8
   \   000336   38           DB 56
   \   000337   00           DB 0
   \   000338   00           DB 0
   \   000339   38           DB 56
   \   00033A   20           DB 32
   \   00033B   21           DB 33
   \   00033C   21           DB 33
   \   00033D   22           DB 34
   \   00033E   1C           DB 28
   \   00033F   00           DB 0
   \   000340   18           DB 24
   \   000341   08           DB 8
   \   000342   08           DB 8
   \   000343   F8           DB 248
   \   000344   08           DB 8
   \   000345   08           DB 8
   \   000346   18           DB 24
   \   000347   00           DB 0
   \   000348   00           DB 0
   \   000349   00           DB 0
   \   00034A   20           DB 32
   \   00034B   3F           DB 63
   \   00034C   20           DB 32
   \   00034D   00           DB 0
   \   00034E   00           DB 0
   \   00034F   00           DB 0
   \   000350   08           DB 8
   \   000351   F8           DB 248
   \   000352   08           DB 8
   \   000353   00           DB 0
   \   000354   00           DB 0
   \   000355   08           DB 8
   \   000356   F8           DB 248
   \   000357   08           DB 8
   \   000358   00           DB 0
   \   000359   1F           DB 31
   \   00035A   20           DB 32
   \   00035B   20           DB 32
   \   00035C   20           DB 32
   \   00035D   20           DB 32
   \   00035E   1F           DB 31
   \   00035F   00           DB 0
   \   000360   08           DB 8
   \   000361   78           DB 120
   \   000362   88           DB 136
   \   000363   00           DB 0
   \   000364   00           DB 0
   \   000365   C8           DB 200
   \   000366   38           DB 56
   \   000367   08           DB 8
   \   000368   00           DB 0
   \   000369   00           DB 0
   \   00036A   07           DB 7
   \   00036B   38           DB 56
   \   00036C   0E           DB 14
   \   00036D   01           DB 1
   \   00036E   00           DB 0
   \   00036F   00           DB 0
   \   000370   F8           DB 248
   \   000371   08           DB 8
   \   000372   00           DB 0
   \   000373   F8           DB 248
   \   000374   00           DB 0
   \   000375   08           DB 8
   \   000376   F8           DB 248
   \   000377   00           DB 0
   \   000378   03           DB 3
   \   000379   3C           DB 60
   \   00037A   07           DB 7
   \   00037B   00           DB 0
   \   00037C   07           DB 7
   \   00037D   3C           DB 60
   \   00037E   03           DB 3
   \   00037F   00           DB 0
   \   000380   08           DB 8
   \   000381   18           DB 24
   \   000382   68           DB 104
   \   000383   80           DB 128
   \   000384   80           DB 128
   \   000385   68           DB 104
   \   000386   18           DB 24
   \   000387   08           DB 8
   \   000388   20           DB 32
   \   000389   30           DB 48
   \   00038A   2C           DB 44
   \   00038B   03           DB 3
   \   00038C   03           DB 3
   \   00038D   2C           DB 44
   \   00038E   30           DB 48
   \   00038F   20           DB 32
   \   000390   08           DB 8
   \   000391   38           DB 56
   \   000392   C8           DB 200
   \   000393   00           DB 0
   \   000394   C8           DB 200
   \   000395   38           DB 56
   \   000396   08           DB 8
   \   000397   00           DB 0
   \   000398   00           DB 0
   \   000399   00           DB 0
   \   00039A   20           DB 32
   \   00039B   3F           DB 63
   \   00039C   20           DB 32
   \   00039D   00           DB 0
   \   00039E   00           DB 0
   \   00039F   00           DB 0
   \   0003A0   10           DB 16
   \   0003A1   08           DB 8
   \   0003A2   08           DB 8
   \   0003A3   08           DB 8
   \   0003A4   C8           DB 200
   \   0003A5   38           DB 56
   \   0003A6   08           DB 8
   \   0003A7   00           DB 0
   \   0003A8   20           DB 32
   \   0003A9   38           DB 56
   \   0003AA   26           DB 38
   \   0003AB   21           DB 33
   \   0003AC   20           DB 32
   \   0003AD   20           DB 32
   \   0003AE   18           DB 24
   \   0003AF   00           DB 0
   \   0003B0   00           DB 0
   \   0003B1   00           DB 0
   \   0003B2   00           DB 0
   \   0003B3   FE           DB 254
   \   0003B4   02           DB 2
   \   0003B5   02           DB 2
   \   0003B6   02           DB 2
   \   0003B7   00           DB 0
   \   0003B8   00           DB 0
   \   0003B9   00           DB 0
   \   0003BA   00           DB 0
   \   0003BB   7F           DB 127
   \   0003BC   40           DB 64
   \   0003BD   40           DB 64
   \   0003BE   40           DB 64
   \   0003BF   00           DB 0
   \   0003C0   00           DB 0
   \   0003C1   0C           DB 12
   \   0003C2   30           DB 48
   \   0003C3   C0           DB 192
   \   0003C4   00           DB 0
   \   0003C5   00           DB 0
   \   0003C6   00           DB 0
   \   0003C7   00           DB 0
   \   0003C8   00           DB 0
   \   0003C9   00           DB 0
   \   0003CA   00           DB 0
   \   0003CB   01           DB 1
   \   0003CC   06           DB 6
   \   0003CD   38           DB 56
   \   0003CE   C0           DB 192
   \   0003CF   00           DB 0
   \   0003D0   00           DB 0
   \   0003D1   02           DB 2
   \   0003D2   02           DB 2
   \   0003D3   02           DB 2
   \   0003D4   FE           DB 254
   \   0003D5   00           DB 0
   \   0003D6   00           DB 0
   \   0003D7   00           DB 0
   \   0003D8   00           DB 0
   \   0003D9   40           DB 64
   \   0003DA   40           DB 64
   \   0003DB   40           DB 64
   \   0003DC   7F           DB 127
   \   0003DD   00           DB 0
   \   0003DE   00           DB 0
   \   0003DF   00           DB 0
   \   0003E0   00           DB 0
   \   0003E1   00           DB 0
   \   0003E2   04           DB 4
   \   0003E3   02           DB 2
   \   0003E4   02           DB 2
   \   0003E5   02           DB 2
   \   0003E6   04           DB 4
   \   0003E7   00           DB 0
   \   0003E8   00           DB 0
   \   0003E9   00           DB 0
   \   0003EA   00           DB 0
   \   0003EB   00           DB 0
   \   0003EC   00           DB 0
   \   0003ED   00           DB 0
   \   0003EE   00           DB 0
   \   0003EF   00           DB 0
   \   0003F0   00           DB 0
   \   0003F1   00           DB 0
   \   0003F2   00           DB 0
   \   0003F3   00           DB 0
   \   0003F4   00           DB 0
   \   0003F5   00           DB 0
   \   0003F6   00           DB 0
   \   0003F7   00           DB 0
   \   0003F8   80           DB 128
   \   0003F9   80           DB 128
   \   0003FA   80           DB 128
   \   0003FB   80           DB 128
   \   0003FC   80           DB 128
   \   0003FD   80           DB 128
   \   0003FE   80           DB 128
   \   0003FF   80           DB 128
   \   000400   00           DB 0
   \   000401   02           DB 2
   \   000402   02           DB 2
   \   000403   04           DB 4
   \   000404   00           DB 0
   \   000405   00           DB 0
   \   000406   00           DB 0
   \   000407   00           DB 0
   \   000408   00           DB 0
   \   000409   00           DB 0
   \   00040A   00           DB 0
   \   00040B   00           DB 0
   \   00040C   00           DB 0
   \   00040D   00           DB 0
   \   00040E   00           DB 0
   \   00040F   00           DB 0
   \   000410   00           DB 0
   \   000411   00           DB 0
   \   000412   80           DB 128
   \   000413   80           DB 128
   \   000414   80           DB 128
   \   000415   80           DB 128
   \   000416   00           DB 0
   \   000417   00           DB 0
   \   000418   00           DB 0
   \   000419   19           DB 25
   \   00041A   24           DB 36
   \   00041B   22           DB 34
   \   00041C   22           DB 34
   \   00041D   22           DB 34
   \   00041E   3F           DB 63
   \   00041F   20           DB 32
   \   000420   08           DB 8
   \   000421   F8           DB 248
   \   000422   00           DB 0
   \   000423   80           DB 128
   \   000424   80           DB 128
   \   000425   00           DB 0
   \   000426   00           DB 0
   \   000427   00           DB 0
   \   000428   00           DB 0
   \   000429   3F           DB 63
   \   00042A   11           DB 17
   \   00042B   20           DB 32
   \   00042C   20           DB 32
   \   00042D   11           DB 17
   \   00042E   0E           DB 14
   \   00042F   00           DB 0
   \   000430   00           DB 0
   \   000431   00           DB 0
   \   000432   00           DB 0
   \   000433   80           DB 128
   \   000434   80           DB 128
   \   000435   80           DB 128
   \   000436   00           DB 0
   \   000437   00           DB 0
   \   000438   00           DB 0
   \   000439   0E           DB 14
   \   00043A   11           DB 17
   \   00043B   20           DB 32
   \   00043C   20           DB 32
   \   00043D   20           DB 32
   \   00043E   11           DB 17
   \   00043F   00           DB 0
   \   000440   00           DB 0
   \   000441   00           DB 0
   \   000442   00           DB 0
   \   000443   80           DB 128
   \   000444   80           DB 128
   \   000445   88           DB 136
   \   000446   F8           DB 248
   \   000447   00           DB 0
   \   000448   00           DB 0
   \   000449   0E           DB 14
   \   00044A   11           DB 17
   \   00044B   20           DB 32
   \   00044C   20           DB 32
   \   00044D   10           DB 16
   \   00044E   3F           DB 63
   \   00044F   20           DB 32
   \   000450   00           DB 0
   \   000451   00           DB 0
   \   000452   80           DB 128
   \   000453   80           DB 128
   \   000454   80           DB 128
   \   000455   80           DB 128
   \   000456   00           DB 0
   \   000457   00           DB 0
   \   000458   00           DB 0
   \   000459   1F           DB 31
   \   00045A   22           DB 34
   \   00045B   22           DB 34
   \   00045C   22           DB 34
   \   00045D   22           DB 34
   \   00045E   13           DB 19
   \   00045F   00           DB 0
   \   000460   00           DB 0
   \   000461   80           DB 128
   \   000462   80           DB 128
   \   000463   F0           DB 240
   \   000464   88           DB 136
   \   000465   88           DB 136
   \   000466   88           DB 136
   \   000467   18           DB 24
   \   000468   00           DB 0
   \   000469   20           DB 32
   \   00046A   20           DB 32
   \   00046B   3F           DB 63
   \   00046C   20           DB 32
   \   00046D   20           DB 32
   \   00046E   00           DB 0
   \   00046F   00           DB 0
   \   000470   00           DB 0
   \   000471   00           DB 0
   \   000472   80           DB 128
   \   000473   80           DB 128
   \   000474   80           DB 128
   \   000475   80           DB 128
   \   000476   80           DB 128
   \   000477   00           DB 0
   \   000478   00           DB 0
   \   000479   6B           DB 107
   \   00047A   94           DB 148
   \   00047B   94           DB 148
   \   00047C   94           DB 148
   \   00047D   93           DB 147
   \   00047E   60           DB 96
   \   00047F   00           DB 0
   \   000480   08           DB 8
   \   000481   F8           DB 248
   \   000482   00           DB 0
   \   000483   80           DB 128
   \   000484   80           DB 128
   \   000485   80           DB 128
   \   000486   00           DB 0
   \   000487   00           DB 0
   \   000488   20           DB 32
   \   000489   3F           DB 63
   \   00048A   21           DB 33
   \   00048B   00           DB 0
   \   00048C   00           DB 0
   \   00048D   20           DB 32
   \   00048E   3F           DB 63
   \   00048F   20           DB 32
   \   000490   00           DB 0
   \   000491   80           DB 128
   \   000492   98           DB 152
   \   000493   98           DB 152
   \   000494   00           DB 0
   \   000495   00           DB 0
   \   000496   00           DB 0
   \   000497   00           DB 0
   \   000498   00           DB 0
   \   000499   20           DB 32
   \   00049A   20           DB 32
   \   00049B   3F           DB 63
   \   00049C   20           DB 32
   \   00049D   20           DB 32
   \   00049E   00           DB 0
   \   00049F   00           DB 0
   \   0004A0   00           DB 0
   \   0004A1   00           DB 0
   \   0004A2   00           DB 0
   \   0004A3   80           DB 128
   \   0004A4   98           DB 152
   \   0004A5   98           DB 152
   \   0004A6   00           DB 0
   \   0004A7   00           DB 0
   \   0004A8   00           DB 0
   \   0004A9   C0           DB 192
   \   0004AA   80           DB 128
   \   0004AB   80           DB 128
   \   0004AC   80           DB 128
   \   0004AD   7F           DB 127
   \   0004AE   00           DB 0
   \   0004AF   00           DB 0
   \   0004B0   08           DB 8
   \   0004B1   F8           DB 248
   \   0004B2   00           DB 0
   \   0004B3   00           DB 0
   \   0004B4   80           DB 128
   \   0004B5   80           DB 128
   \   0004B6   80           DB 128
   \   0004B7   00           DB 0
   \   0004B8   20           DB 32
   \   0004B9   3F           DB 63
   \   0004BA   24           DB 36
   \   0004BB   02           DB 2
   \   0004BC   2D           DB 45
   \   0004BD   30           DB 48
   \   0004BE   20           DB 32
   \   0004BF   00           DB 0
   \   0004C0   00           DB 0
   \   0004C1   08           DB 8
   \   0004C2   08           DB 8
   \   0004C3   F8           DB 248
   \   0004C4   00           DB 0
   \   0004C5   00           DB 0
   \   0004C6   00           DB 0
   \   0004C7   00           DB 0
   \   0004C8   00           DB 0
   \   0004C9   20           DB 32
   \   0004CA   20           DB 32
   \   0004CB   3F           DB 63
   \   0004CC   20           DB 32
   \   0004CD   20           DB 32
   \   0004CE   00           DB 0
   \   0004CF   00           DB 0
   \   0004D0   80           DB 128
   \   0004D1   80           DB 128
   \   0004D2   80           DB 128
   \   0004D3   80           DB 128
   \   0004D4   80           DB 128
   \   0004D5   80           DB 128
   \   0004D6   80           DB 128
   \   0004D7   00           DB 0
   \   0004D8   20           DB 32
   \   0004D9   3F           DB 63
   \   0004DA   20           DB 32
   \   0004DB   00           DB 0
   \   0004DC   3F           DB 63
   \   0004DD   20           DB 32
   \   0004DE   00           DB 0
   \   0004DF   3F           DB 63
   \   0004E0   80           DB 128
   \   0004E1   80           DB 128
   \   0004E2   00           DB 0
   \   0004E3   80           DB 128
   \   0004E4   80           DB 128
   \   0004E5   80           DB 128
   \   0004E6   00           DB 0
   \   0004E7   00           DB 0
   \   0004E8   20           DB 32
   \   0004E9   3F           DB 63
   \   0004EA   21           DB 33
   \   0004EB   00           DB 0
   \   0004EC   00           DB 0
   \   0004ED   20           DB 32
   \   0004EE   3F           DB 63
   \   0004EF   20           DB 32
   \   0004F0   00           DB 0
   \   0004F1   00           DB 0
   \   0004F2   80           DB 128
   \   0004F3   80           DB 128
   \   0004F4   80           DB 128
   \   0004F5   80           DB 128
   \   0004F6   00           DB 0
   \   0004F7   00           DB 0
   \   0004F8   00           DB 0
   \   0004F9   1F           DB 31
   \   0004FA   20           DB 32
   \   0004FB   20           DB 32
   \   0004FC   20           DB 32
   \   0004FD   20           DB 32
   \   0004FE   1F           DB 31
   \   0004FF   00           DB 0
   \   000500   80           DB 128
   \   000501   80           DB 128
   \   000502   00           DB 0
   \   000503   80           DB 128
   \   000504   80           DB 128
   \   000505   00           DB 0
   \   000506   00           DB 0
   \   000507   00           DB 0
   \   000508   80           DB 128
   \   000509   FF           DB 255
   \   00050A   A1           DB 161
   \   00050B   20           DB 32
   \   00050C   20           DB 32
   \   00050D   11           DB 17
   \   00050E   0E           DB 14
   \   00050F   00           DB 0
   \   000510   00           DB 0
   \   000511   00           DB 0
   \   000512   00           DB 0
   \   000513   80           DB 128
   \   000514   80           DB 128
   \   000515   80           DB 128
   \   000516   80           DB 128
   \   000517   00           DB 0
   \   000518   00           DB 0
   \   000519   0E           DB 14
   \   00051A   11           DB 17
   \   00051B   20           DB 32
   \   00051C   20           DB 32
   \   00051D   A0           DB 160
   \   00051E   FF           DB 255
   \   00051F   80           DB 128
   \   000520   80           DB 128
   \   000521   80           DB 128
   \   000522   80           DB 128
   \   000523   00           DB 0
   \   000524   80           DB 128
   \   000525   80           DB 128
   \   000526   80           DB 128
   \   000527   00           DB 0
   \   000528   20           DB 32
   \   000529   20           DB 32
   \   00052A   3F           DB 63
   \   00052B   21           DB 33
   \   00052C   20           DB 32
   \   00052D   00           DB 0
   \   00052E   01           DB 1
   \   00052F   00           DB 0
   \   000530   00           DB 0
   \   000531   00           DB 0
   \   000532   80           DB 128
   \   000533   80           DB 128
   \   000534   80           DB 128
   \   000535   80           DB 128
   \   000536   80           DB 128
   \   000537   00           DB 0
   \   000538   00           DB 0
   \   000539   33           DB 51
   \   00053A   24           DB 36
   \   00053B   24           DB 36
   \   00053C   24           DB 36
   \   00053D   24           DB 36
   \   00053E   19           DB 25
   \   00053F   00           DB 0
   \   000540   00           DB 0
   \   000541   80           DB 128
   \   000542   80           DB 128
   \   000543   E0           DB 224
   \   000544   80           DB 128
   \   000545   80           DB 128
   \   000546   00           DB 0
   \   000547   00           DB 0
   \   000548   00           DB 0
   \   000549   00           DB 0
   \   00054A   00           DB 0
   \   00054B   1F           DB 31
   \   00054C   20           DB 32
   \   00054D   20           DB 32
   \   00054E   00           DB 0
   \   00054F   00           DB 0
   \   000550   80           DB 128
   \   000551   80           DB 128
   \   000552   00           DB 0
   \   000553   00           DB 0
   \   000554   00           DB 0
   \   000555   80           DB 128
   \   000556   80           DB 128
   \   000557   00           DB 0
   \   000558   00           DB 0
   \   000559   1F           DB 31
   \   00055A   20           DB 32
   \   00055B   20           DB 32
   \   00055C   20           DB 32
   \   00055D   10           DB 16
   \   00055E   3F           DB 63
   \   00055F   20           DB 32
   \   000560   80           DB 128
   \   000561   80           DB 128
   \   000562   80           DB 128
   \   000563   00           DB 0
   \   000564   00           DB 0
   \   000565   80           DB 128
   \   000566   80           DB 128
   \   000567   80           DB 128
   \   000568   00           DB 0
   \   000569   01           DB 1
   \   00056A   0E           DB 14
   \   00056B   30           DB 48
   \   00056C   08           DB 8
   \   00056D   06           DB 6
   \   00056E   01           DB 1
   \   00056F   00           DB 0
   \   000570   80           DB 128
   \   000571   80           DB 128
   \   000572   00           DB 0
   \   000573   80           DB 128
   \   000574   00           DB 0
   \   000575   80           DB 128
   \   000576   80           DB 128
   \   000577   80           DB 128
   \   000578   0F           DB 15
   \   000579   30           DB 48
   \   00057A   0C           DB 12
   \   00057B   03           DB 3
   \   00057C   0C           DB 12
   \   00057D   30           DB 48
   \   00057E   0F           DB 15
   \   00057F   00           DB 0
   \   000580   00           DB 0
   \   000581   80           DB 128
   \   000582   80           DB 128
   \   000583   00           DB 0
   \   000584   80           DB 128
   \   000585   80           DB 128
   \   000586   80           DB 128
   \   000587   00           DB 0
   \   000588   00           DB 0
   \   000589   20           DB 32
   \   00058A   31           DB 49
   \   00058B   2E           DB 46
   \   00058C   0E           DB 14
   \   00058D   31           DB 49
   \   00058E   20           DB 32
   \   00058F   00           DB 0
   \   000590   80           DB 128
   \   000591   80           DB 128
   \   000592   80           DB 128
   \   000593   00           DB 0
   \   000594   00           DB 0
   \   000595   80           DB 128
   \   000596   80           DB 128
   \   000597   80           DB 128
   \   000598   80           DB 128
   \   000599   81           DB 129
   \   00059A   8E           DB 142
   \   00059B   70           DB 112
   \   00059C   18           DB 24
   \   00059D   06           DB 6
   \   00059E   01           DB 1
   \   00059F   00           DB 0
   \   0005A0   00           DB 0
   \   0005A1   80           DB 128
   \   0005A2   80           DB 128
   \   0005A3   80           DB 128
   \   0005A4   80           DB 128
   \   0005A5   80           DB 128
   \   0005A6   80           DB 128
   \   0005A7   00           DB 0
   \   0005A8   00           DB 0
   \   0005A9   21           DB 33
   \   0005AA   30           DB 48
   \   0005AB   2C           DB 44
   \   0005AC   22           DB 34
   \   0005AD   21           DB 33
   \   0005AE   30           DB 48
   \   0005AF   00           DB 0
   \   0005B0   00           DB 0
   \   0005B1   00           DB 0
   \   0005B2   00           DB 0
   \   0005B3   00           DB 0
   \   0005B4   80           DB 128
   \   0005B5   7C           DB 124
   \   0005B6   02           DB 2
   \   0005B7   02           DB 2
   \   0005B8   00           DB 0
   \   0005B9   00           DB 0
   \   0005BA   00           DB 0
   \   0005BB   00           DB 0
   \   0005BC   00           DB 0
   \   0005BD   3F           DB 63
   \   0005BE   40           DB 64
   \   0005BF   40           DB 64
   \   0005C0   00           DB 0
   \   0005C1   00           DB 0
   \   0005C2   00           DB 0
   \   0005C3   00           DB 0
   \   0005C4   FF           DB 255
   \   0005C5   00           DB 0
   \   0005C6   00           DB 0
   \   0005C7   00           DB 0
   \   0005C8   00           DB 0
   \   0005C9   00           DB 0
   \   0005CA   00           DB 0
   \   0005CB   00           DB 0
   \   0005CC   FF           DB 255
   \   0005CD   00           DB 0
   \   0005CE   00           DB 0
   \   0005CF   00           DB 0
   \   0005D0   00           DB 0
   \   0005D1   02           DB 2
   \   0005D2   02           DB 2
   \   0005D3   7C           DB 124
   \   0005D4   80           DB 128
   \   0005D5   00           DB 0
   \   0005D6   00           DB 0
   \   0005D7   00           DB 0
   \   0005D8   00           DB 0
   \   0005D9   40           DB 64
   \   0005DA   40           DB 64
   \   0005DB   3F           DB 63
   \   0005DC   00           DB 0
   \   0005DD   00           DB 0
   \   0005DE   00           DB 0
   \   0005DF   00           DB 0
   \   0005E0   00           DB 0
   \   0005E1   06           DB 6
   \   0005E2   01           DB 1
   \   0005E3   01           DB 1
   \   0005E4   02           DB 2
   \   0005E5   02           DB 2
   \   0005E6   04           DB 4
   \   0005E7   04           DB 4
   \   0005E8   00           DB 0
   \   0005E9   00           DB 0
   \   0005EA   00           DB 0
   \   0005EB   00           DB 0
   \   0005EC   00           DB 0
   \   0005ED   00           DB 0
   \   0005EE   00           DB 0
   \   0005EF   00           DB 0
     38          {
     39            0x00,0x00,0x00,0x00,0x00,0x00,0x00,0x00,0x00,0x00,0x00,0x00,0x00,0x00,0x00,0x00,// 0
     40            0x00,0x00,0x00,0xF8,0x00,0x00,0x00,0x00,0x00,0x00,0x00,0x33,0x30,0x00,0x00,0x00,//! 1
     41            0x00,0x10,0x0C,0x06,0x10,0x0C,0x06,0x00,0x00,0x00,0x00,0x00,0x00,0x00,0x00,0x00,//" 2
     42            0x40,0xC0,0x78,0x40,0xC0,0x78,0x40,0x00,0x04,0x3F,0x04,0x04,0x3F,0x04,0x04,0x00,//# 3
     43            0x00,0x70,0x88,0xFC,0x08,0x30,0x00,0x00,0x00,0x18,0x20,0xFF,0x21,0x1E,0x00,0x00,//$ 4
     44            0xF0,0x08,0xF0,0x00,0xE0,0x18,0x00,0x00,0x00,0x21,0x1C,0x03,0x1E,0x21,0x1E,0x00,//% 5
     45            0x00,0xF0,0x08,0x88,0x70,0x00,0x00,0x00,0x1E,0x21,0x23,0x24,0x19,0x27,0x21,0x10,//& 6
     46            0x10,0x16,0x0E,0x00,0x00,0x00,0x00,0x00,0x00,0x00,0x00,0x00,0x00,0x00,0x00,0x00,//' 7
     47            0x00,0x00,0x00,0xE0,0x18,0x04,0x02,0x00,0x00,0x00,0x00,0x07,0x18,0x20,0x40,0x00,//( 8
     48            0x00,0x02,0x04,0x18,0xE0,0x00,0x00,0x00,0x00,0x40,0x20,0x18,0x07,0x00,0x00,0x00,//) 9
     49            0x40,0x40,0x80,0xF0,0x80,0x40,0x40,0x00,0x02,0x02,0x01,0x0F,0x01,0x02,0x02,0x00,//* 10
     50            0x00,0x00,0x00,0xF0,0x00,0x00,0x00,0x00,0x01,0x01,0x01,0x1F,0x01,0x01,0x01,0x00,//+ 11
     51            0x00,0x00,0x00,0x00,0x00,0x00,0x00,0x00,0x80,0xB0,0x70,0x00,0x00,0x00,0x00,0x00,//, 12
     52            0x00,0x00,0x00,0x00,0x00,0x00,0x00,0x00,0x00,0x01,0x01,0x01,0x01,0x01,0x01,0x01,//- 13
     53            0x00,0x00,0x00,0x00,0x00,0x00,0x00,0x00,0x00,0x30,0x30,0x00,0x00,0x00,0x00,0x00,//. 14
     54            0x00,0x00,0x00,0x00,0x80,0x60,0x18,0x04,0x00,0x60,0x18,0x06,0x01,0x00,0x00,0x00,/// 15
     55            0x00,0xE0,0x10,0x08,0x08,0x10,0xE0,0x00,0x00,0x0F,0x10,0x20,0x20,0x10,0x0F,0x00,//0 16
     56            0x00,0x10,0x10,0xF8,0x00,0x00,0x00,0x00,0x00,0x20,0x20,0x3F,0x20,0x20,0x00,0x00,//1 17
     57            0x00,0x70,0x08,0x08,0x08,0x88,0x70,0x00,0x00,0x30,0x28,0x24,0x22,0x21,0x30,0x00,//2 18
     58            0x00,0x30,0x08,0x88,0x88,0x48,0x30,0x00,0x00,0x18,0x20,0x20,0x20,0x11,0x0E,0x00,//3 19
     59            0x00,0x00,0xC0,0x20,0x10,0xF8,0x00,0x00,0x00,0x07,0x04,0x24,0x24,0x3F,0x24,0x00,//4 20
     60            0x00,0xF8,0x08,0x88,0x88,0x08,0x08,0x00,0x00,0x19,0x21,0x20,0x20,0x11,0x0E,0x00,//5 21
     61            0x00,0xE0,0x10,0x88,0x88,0x18,0x00,0x00,0x00,0x0F,0x11,0x20,0x20,0x11,0x0E,0x00,//6 22
     62            0x00,0x38,0x08,0x08,0xC8,0x38,0x08,0x00,0x00,0x00,0x00,0x3F,0x00,0x00,0x00,0x00,//7 23
     63            0x00,0x70,0x88,0x08,0x08,0x88,0x70,0x00,0x00,0x1C,0x22,0x21,0x21,0x22,0x1C,0x00,//8 24
     64            0x00,0xE0,0x10,0x08,0x08,0x10,0xE0,0x00,0x00,0x00,0x31,0x22,0x22,0x11,0x0F,0x00,//9 25
     65            0x00,0x00,0x00,0xC0,0xC0,0x00,0x00,0x00,0x00,0x00,0x00,0x30,0x30,0x00,0x00,0x00,//: 26
     66            0x00,0x00,0x00,0x80,0x00,0x00,0x00,0x00,0x00,0x00,0x80,0x60,0x00,0x00,0x00,0x00,//; 27
     67            0x00,0x00,0x80,0x40,0x20,0x10,0x08,0x00,0x00,0x01,0x02,0x04,0x08,0x10,0x20,0x00,//< 28
     68            0x40,0x40,0x40,0x40,0x40,0x40,0x40,0x00,0x04,0x04,0x04,0x04,0x04,0x04,0x04,0x00,//= 29
     69            0x00,0x08,0x10,0x20,0x40,0x80,0x00,0x00,0x00,0x20,0x10,0x08,0x04,0x02,0x01,0x00,//> 30
     70            0x00,0x70,0x48,0x08,0x08,0x08,0xF0,0x00,0x00,0x00,0x00,0x30,0x36,0x01,0x00,0x00,//? 31
     71            0xC0,0x30,0xC8,0x28,0xE8,0x10,0xE0,0x00,0x07,0x18,0x27,0x24,0x23,0x14,0x0B,0x00,//@ 32
     72            0x00,0x00,0xC0,0x38,0xE0,0x00,0x00,0x00,0x20,0x3C,0x23,0x02,0x02,0x27,0x38,0x20,//A 33
     73            0x08,0xF8,0x88,0x88,0x88,0x70,0x00,0x00,0x20,0x3F,0x20,0x20,0x20,0x11,0x0E,0x00,//B 34
     74            0xC0,0x30,0x08,0x08,0x08,0x08,0x38,0x00,0x07,0x18,0x20,0x20,0x20,0x10,0x08,0x00,//C 35
     75            0x08,0xF8,0x08,0x08,0x08,0x10,0xE0,0x00,0x20,0x3F,0x20,0x20,0x20,0x10,0x0F,0x00,//D 36
     76            0x08,0xF8,0x88,0x88,0xE8,0x08,0x10,0x00,0x20,0x3F,0x20,0x20,0x23,0x20,0x18,0x00,//E 37
     77            0x08,0xF8,0x88,0x88,0xE8,0x08,0x10,0x00,0x20,0x3F,0x20,0x00,0x03,0x00,0x00,0x00,//F 38
     78            0xC0,0x30,0x08,0x08,0x08,0x38,0x00,0x00,0x07,0x18,0x20,0x20,0x22,0x1E,0x02,0x00,//G 39
     79            0x08,0xF8,0x08,0x00,0x00,0x08,0xF8,0x08,0x20,0x3F,0x21,0x01,0x01,0x21,0x3F,0x20,//H 40
     80            0x00,0x08,0x08,0xF8,0x08,0x08,0x00,0x00,0x00,0x20,0x20,0x3F,0x20,0x20,0x00,0x00,//I 41
     81            0x00,0x00,0x08,0x08,0xF8,0x08,0x08,0x00,0xC0,0x80,0x80,0x80,0x7F,0x00,0x00,0x00,//J 42
     82            0x08,0xF8,0x88,0xC0,0x28,0x18,0x08,0x00,0x20,0x3F,0x20,0x01,0x26,0x38,0x20,0x00,//K 43
     83            0x08,0xF8,0x08,0x00,0x00,0x00,0x00,0x00,0x20,0x3F,0x20,0x20,0x20,0x20,0x30,0x00,//L 44
     84            0x08,0xF8,0xF8,0x00,0xF8,0xF8,0x08,0x00,0x20,0x3F,0x00,0x3F,0x00,0x3F,0x20,0x00,//M 45
     85            0x08,0xF8,0x30,0xC0,0x00,0x08,0xF8,0x08,0x20,0x3F,0x20,0x00,0x07,0x18,0x3F,0x00,//N 46
     86            0xE0,0x10,0x08,0x08,0x08,0x10,0xE0,0x00,0x0F,0x10,0x20,0x20,0x20,0x10,0x0F,0x00,//O 47
     87            0x08,0xF8,0x08,0x08,0x08,0x08,0xF0,0x00,0x20,0x3F,0x21,0x01,0x01,0x01,0x00,0x00,//P 48
     88            0xE0,0x10,0x08,0x08,0x08,0x10,0xE0,0x00,0x0F,0x18,0x24,0x24,0x38,0x50,0x4F,0x00,//Q 49
     89            0x08,0xF8,0x88,0x88,0x88,0x88,0x70,0x00,0x20,0x3F,0x20,0x00,0x03,0x0C,0x30,0x20,//R 50
     90            0x00,0x70,0x88,0x08,0x08,0x08,0x38,0x00,0x00,0x38,0x20,0x21,0x21,0x22,0x1C,0x00,//S 51
     91            0x18,0x08,0x08,0xF8,0x08,0x08,0x18,0x00,0x00,0x00,0x20,0x3F,0x20,0x00,0x00,0x00,//T 52
     92            0x08,0xF8,0x08,0x00,0x00,0x08,0xF8,0x08,0x00,0x1F,0x20,0x20,0x20,0x20,0x1F,0x00,//U 53
     93            0x08,0x78,0x88,0x00,0x00,0xC8,0x38,0x08,0x00,0x00,0x07,0x38,0x0E,0x01,0x00,0x00,//V 54
     94            0xF8,0x08,0x00,0xF8,0x00,0x08,0xF8,0x00,0x03,0x3C,0x07,0x00,0x07,0x3C,0x03,0x00,//W 55
     95            0x08,0x18,0x68,0x80,0x80,0x68,0x18,0x08,0x20,0x30,0x2C,0x03,0x03,0x2C,0x30,0x20,//X 56
     96            0x08,0x38,0xC8,0x00,0xC8,0x38,0x08,0x00,0x00,0x00,0x20,0x3F,0x20,0x00,0x00,0x00,//Y 57
     97            0x10,0x08,0x08,0x08,0xC8,0x38,0x08,0x00,0x20,0x38,0x26,0x21,0x20,0x20,0x18,0x00,//Z 58
     98            0x00,0x00,0x00,0xFE,0x02,0x02,0x02,0x00,0x00,0x00,0x00,0x7F,0x40,0x40,0x40,0x00,//[ 59
     99            0x00,0x0C,0x30,0xC0,0x00,0x00,0x00,0x00,0x00,0x00,0x00,0x01,0x06,0x38,0xC0,0x00,//\ 60
    100            0x00,0x02,0x02,0x02,0xFE,0x00,0x00,0x00,0x00,0x40,0x40,0x40,0x7F,0x00,0x00,0x00,//] 61
    101            0x00,0x00,0x04,0x02,0x02,0x02,0x04,0x00,0x00,0x00,0x00,0x00,0x00,0x00,0x00,0x00,//^ 62
    102            0x00,0x00,0x00,0x00,0x00,0x00,0x00,0x00,0x80,0x80,0x80,0x80,0x80,0x80,0x80,0x80,//_ 63
    103            0x00,0x02,0x02,0x04,0x00,0x00,0x00,0x00,0x00,0x00,0x00,0x00,0x00,0x00,0x00,0x00,//` 64
    104            0x00,0x00,0x80,0x80,0x80,0x80,0x00,0x00,0x00,0x19,0x24,0x22,0x22,0x22,0x3F,0x20,//a 65
    105            0x08,0xF8,0x00,0x80,0x80,0x00,0x00,0x00,0x00,0x3F,0x11,0x20,0x20,0x11,0x0E,0x00,//b 66
    106            0x00,0x00,0x00,0x80,0x80,0x80,0x00,0x00,0x00,0x0E,0x11,0x20,0x20,0x20,0x11,0x00,//c 67
    107            0x00,0x00,0x00,0x80,0x80,0x88,0xF8,0x00,0x00,0x0E,0x11,0x20,0x20,0x10,0x3F,0x20,//d 68
    108            0x00,0x00,0x80,0x80,0x80,0x80,0x00,0x00,0x00,0x1F,0x22,0x22,0x22,0x22,0x13,0x00,//e 69
    109            0x00,0x80,0x80,0xF0,0x88,0x88,0x88,0x18,0x00,0x20,0x20,0x3F,0x20,0x20,0x00,0x00,//f 70
    110            0x00,0x00,0x80,0x80,0x80,0x80,0x80,0x00,0x00,0x6B,0x94,0x94,0x94,0x93,0x60,0x00,//g 71
    111            0x08,0xF8,0x00,0x80,0x80,0x80,0x00,0x00,0x20,0x3F,0x21,0x00,0x00,0x20,0x3F,0x20,//h 72
    112            0x00,0x80,0x98,0x98,0x00,0x00,0x00,0x00,0x00,0x20,0x20,0x3F,0x20,0x20,0x00,0x00,//i 73
    113            0x00,0x00,0x00,0x80,0x98,0x98,0x00,0x00,0x00,0xC0,0x80,0x80,0x80,0x7F,0x00,0x00,//j 74
    114            0x08,0xF8,0x00,0x00,0x80,0x80,0x80,0x00,0x20,0x3F,0x24,0x02,0x2D,0x30,0x20,0x00,//k 75
    115            0x00,0x08,0x08,0xF8,0x00,0x00,0x00,0x00,0x00,0x20,0x20,0x3F,0x20,0x20,0x00,0x00,//l 76
    116            0x80,0x80,0x80,0x80,0x80,0x80,0x80,0x00,0x20,0x3F,0x20,0x00,0x3F,0x20,0x00,0x3F,//m 77
    117            0x80,0x80,0x00,0x80,0x80,0x80,0x00,0x00,0x20,0x3F,0x21,0x00,0x00,0x20,0x3F,0x20,//n 78
    118            0x00,0x00,0x80,0x80,0x80,0x80,0x00,0x00,0x00,0x1F,0x20,0x20,0x20,0x20,0x1F,0x00,//o 79
    119            0x80,0x80,0x00,0x80,0x80,0x00,0x00,0x00,0x80,0xFF,0xA1,0x20,0x20,0x11,0x0E,0x00,//p 80
    120            0x00,0x00,0x00,0x80,0x80,0x80,0x80,0x00,0x00,0x0E,0x11,0x20,0x20,0xA0,0xFF,0x80,//q 81
    121            0x80,0x80,0x80,0x00,0x80,0x80,0x80,0x00,0x20,0x20,0x3F,0x21,0x20,0x00,0x01,0x00,//r 82
    122            0x00,0x00,0x80,0x80,0x80,0x80,0x80,0x00,0x00,0x33,0x24,0x24,0x24,0x24,0x19,0x00,//s 83
    123            0x00,0x80,0x80,0xE0,0x80,0x80,0x00,0x00,0x00,0x00,0x00,0x1F,0x20,0x20,0x00,0x00,//t 84
    124            0x80,0x80,0x00,0x00,0x00,0x80,0x80,0x00,0x00,0x1F,0x20,0x20,0x20,0x10,0x3F,0x20,//u 85
    125            0x80,0x80,0x80,0x00,0x00,0x80,0x80,0x80,0x00,0x01,0x0E,0x30,0x08,0x06,0x01,0x00,//v 86
    126            0x80,0x80,0x00,0x80,0x00,0x80,0x80,0x80,0x0F,0x30,0x0C,0x03,0x0C,0x30,0x0F,0x00,//w 87
    127            0x00,0x80,0x80,0x00,0x80,0x80,0x80,0x00,0x00,0x20,0x31,0x2E,0x0E,0x31,0x20,0x00,//x 88
    128            0x80,0x80,0x80,0x00,0x00,0x80,0x80,0x80,0x80,0x81,0x8E,0x70,0x18,0x06,0x01,0x00,//y 89
    129            0x00,0x80,0x80,0x80,0x80,0x80,0x80,0x00,0x00,0x21,0x30,0x2C,0x22,0x21,0x30,0x00,//z 90
    130            0x00,0x00,0x00,0x00,0x80,0x7C,0x02,0x02,0x00,0x00,0x00,0x00,0x00,0x3F,0x40,0x40,//{ 91
    131            0x00,0x00,0x00,0x00,0xFF,0x00,0x00,0x00,0x00,0x00,0x00,0x00,0xFF,0x00,0x00,0x00,//| 92
    132            0x00,0x02,0x02,0x7C,0x80,0x00,0x00,0x00,0x00,0x40,0x40,0x3F,0x00,0x00,0x00,0x00,//} 93
    133            0x00,0x06,0x01,0x01,0x02,0x02,0x04,0x04,0x00,0x00,0x00,0x00,0x00,0x00,0x00,0x00,//~ 94
    134          };
    135          
    136          /***************************16*16的点阵字体取模方式：共阴――列行式――逆向输出*********/

   \                                 In  segment XDATA_I, align 1, keep-with-next
    137          unsigned char F16x16[] = 	  	 
   \                     F16x16:
   \   000000                DS 128
   \   000080                REQUIRE `?<Initializer for F16x16>`
   \   000080                REQUIRE __INIT_XDATA_I
    138          {  	
    139          /*--  文字:  温  --*/
    140          /*--  宋体12;  此字体下对应的点阵为：宽x高=16x16   --*/
    141          0x10,0x21,0x86,0x70,0x00,0x7E,0x4A,0x4A,0x4A,0x4A,0x4A,0x7E,0x00,0x00,0x00,0x00,
    142          0x02,0xFE,0x01,0x40,0x7F,0x41,0x41,0x7F,0x41,0x41,0x7F,0x41,0x41,0x7F,0x40,0x00,
    143          
    144          /*--  文字:  度  --*/
    145          /*--  宋体12;  此字体下对应的点阵为：宽x高=16x16   --*/
    146          0x00,0x00,0xFC,0x04,0x24,0x24,0xFC,0xA5,0xA6,0xA4,0xFC,0x24,0x24,0x24,0x04,0x00,
    147          0x80,0x60,0x1F,0x80,0x80,0x42,0x46,0x2A,0x12,0x12,0x2A,0x26,0x42,0xC0,0x40,0x00,
    148          
    149          /*--  文字:  ：  --*/
    150          /*--  宋体12;  此字体下对应的点阵为：宽x高=16x16   --*/
    151          0x00,0x00,0x00,0x00,0x00,0x00,0x00,0x00,0x00,0x00,0x00,0x00,0x00,0x00,0x00,0x00,
    152          0x00,0x00,0x36,0x36,0x00,0x00,0x00,0x00,0x00,0x00,0x00,0x00,0x00,0x00,0x00,0x00,
    153          
    154          /*--  文字:  湿  --*/
    155          /*--  宋体12;  此字体下对应的点阵为：宽x高=16x16   --*/
    156          0x10,0x60,0x02,0xCC,0x00,0x00,0x3E,0x2A,0xAA,0x2A,0xAA,0x2A,0x3E,0x00,0x00,0x00,
    157          0x08,0x08,0xFE,0x01,0x40,0x42,0x4C,0x40,0x7F,0x40,0x7F,0x48,0x44,0x42,0x40,0x00,
    158          
    159          };
    160          
    161          
    162          #if (HAL_LCD == TRUE)
    163          void HalLcd_HW_Init(void);
    164          void HalLcd_HW_WaitUs(uint16 i);
    165          void HalLcd_HW_Clear(void);
    166          void HalLcd_HW_Control(uint8 cmd);
    167          void HalLcd_HW_Write(uint8 data);
    168          void HalLcd_HW_SetContrast(uint8 value);
    169          void HalLcd_HW_WriteChar(uint8 line, uint8 col, char text);
    170          void HalLcd_HW_WriteLine(uint8 line, const char *pText);
    171          
    172          void DelayMS(unsigned int msec);
    173          void LCD_DLY_ms(unsigned int ms);
    174          void LCD_WrDat(unsigned char dat);
    175          void LCD_WrCmd(unsigned char cmd);
    176          void LCD_Set_Pos(unsigned char x, unsigned char y);
    177          void LCD_Fill(unsigned char bmp_dat) ;
    178          void LCD_CLS(void);
    179          void LcdClearLine(unsigned char y, unsigned char count);
    180          
    181          void LCD_P8x16Str(unsigned char x, unsigned char y,unsigned char ch[]);
    182          void HalLcdDisplayPercentBar( char *title, uint8 value );
    183          void LCD_P16x16Ch(unsigned char x, unsigned char y, unsigned char N);
    184          #endif //LCD
    185          
    186          
    187          /**************************************************************************************************
    188           * @fn      HalLcdInit
    189           *
    190           * @brief   Initilize LCD Service
    191           *
    192           * @param   init - pointer to void that contains the initialized value
    193           *
    194           * @return  None
    195           **************************************************************************************************/

   \                                 In  segment BANKED_CODE, align 1, keep-with-next
    196          void HalLcdInit(void)
   \                     HalLcdInit:
    197          {
   \   000000   C082         PUSH    DPL
   \   000002   C083         PUSH    DPH
   \   000004                ; Saved register size: 2
   \   000004                ; Auto size: 0
    198          #if (HAL_LCD == TRUE)
    199            HalLcd_HW_Init();
   \   000004                ; Setup parameters for call to function HalLcd_HW_Init
   \   000004   12....       LCALL   ??HalLcd_HW_Init?relay
    200          #endif
    201          }
   \   000007                REQUIRE ?Subroutine0
   \   000007                ; // Fall through to label ?Subroutine0

   \                                 In  segment BANKED_CODE, align 1, keep-with-next
   \                     ?Subroutine0:
   \   000000   D083         POP     DPH
   \   000002   D082         POP     DPL
   \   000004   02....       LJMP    ?BRET
    202          
    203          /**************************************************************************************************
    204           * @fn      HalLcdWriteValue
    205           *
    206           * @brief   Write a value to the LCD
    207           *
    208           * @param   value  - value that will be displayed
    209           *          radix  - 8, 10, 16
    210           *          option - display options
    211           *
    212           * @return  None
    213           **************************************************************************************************/

   \                                 In  segment BANKED_CODE, align 1, keep-with-next
    214          void HalLcdWriteValue ( uint32 value, const uint8 radix, uint8 option)
   \                     HalLcdWriteValue:
    215          {
   \   000000   74F0         MOV     A,#-0x10
   \   000002   12....       LCALL   ?BANKED_ENTER_XDATA
   \   000005                ; Saved register size: 16
   \   000005                ; Auto size: 42
   \   000005   74D6         MOV     A,#-0x2a
   \   000007   12....       LCALL   ?ALLOC_XSTACK8
   \   00000A   743A         MOV     A,#0x3a
   \   00000C   12....       LCALL   ?XSTACK_DISP0_8
   \   00000F   E0           MOVX    A,@DPTR
   \   000010   FF           MOV     R7,A
    216          #if (HAL_LCD == TRUE)
    217            uint8 buf[LCD_MAX_BUF];
    218          
    219            _ltoa( value, &buf[0], radix );
   \   000011                ; Setup parameters for call to function _ltoa
   \   000011   7411         MOV     A,#0x11
   \   000013   12....       LCALL   ?XSTACK_DISP0_8
   \   000016   8582..       MOV     ?V0 + 0,DPL
   \   000019   8583..       MOV     ?V0 + 1,DPH
   \   00001C   78..         MOV     R0,#?V0 + 0
   \   00001E   12....       LCALL   ?PUSH_XSTACK_I_TWO
   \   000021   12....       LCALL   ??_ltoa?relay
   \   000024   7402         MOV     A,#0x2
   \   000026   12....       LCALL   ?DEALLOC_XSTACK8
    220            HalLcdWriteString( (char*)buf, option );
   \   000029   74FF         MOV     A,#-0x1
   \   00002B   2F           ADD     A,R7
   \   00002C   C3           CLR     C
   \   00002D   33           RLC     A
   \   00002E   FF           MOV     R7,A
   \   00002F                ; Setup parameters for call to function osal_strlen
   \   00002F   7411         MOV     A,#0x11
   \   000031   12....       LCALL   ?XSTACK_DISP0_8
   \   000034   AA82         MOV     R2,DPL
   \   000036   AB83         MOV     R3,DPH
   \   000038   12....       LCALL   ??osal_strlen?relay
   \   00003B   EA           MOV     A,R2
   \   00003C   F5..         MOV     ?V0 + 0,A
   \   00003E   C3           CLR     C
   \   00003F   9411         SUBB    A,#0x11
   \   000041   4003         JC      ??HalLcdWriteValue_0
   \   000043   75..10       MOV     ?V0 + 0,#0x10
   \                     ??HalLcdWriteValue_0:
   \   000046                ; Setup parameters for call to function osal_memset
   \   000046   7C11         MOV     R4,#0x11
   \   000048   7D00         MOV     R5,#0x0
   \   00004A   7900         MOV     R1,#0x0
   \   00004C   85..82       MOV     DPL,?XSP + 0
   \   00004F   85..83       MOV     DPH,?XSP + 1
   \   000052   AA82         MOV     R2,DPL
   \   000054   AB83         MOV     R3,DPH
   \   000056   12....       LCALL   ??osal_memset?relay
   \   000059                ; Setup parameters for call to function osal_memcpy
   \   000059   7411         MOV     A,#0x11
   \   00005B   12....       LCALL   ?XSTACK_DISP0_8
   \   00005E   A982         MOV     R1,DPL
   \   000060   AA83         MOV     R2,DPH
   \   000062   89..         MOV     ?V0 + 4,R1
   \   000064   8A..         MOV     ?V0 + 5,R2
   \   000066   75..00       MOV     ?V0 + 6,#0x0
   \   000069   78..         MOV     R0,#?V0 + 4
   \   00006B   12....       LCALL   ?PUSH_XSTACK_I_THREE
   \   00006E   AC..         MOV     R4,?V0 + 0
   \   000070   7D00         MOV     R5,#0x0
   \   000072   7403         MOV     A,#0x3
   \   000074   12....       LCALL   ?XSTACK_DISP0_8
   \   000077   AA82         MOV     R2,DPL
   \   000079   AB83         MOV     R3,DPH
   \   00007B   12....       LCALL   ??osal_memcpy?relay
   \   00007E   7403         MOV     A,#0x3
   \   000080   12....       LCALL   ?DEALLOC_XSTACK8
   \   000083                ; Setup parameters for call to function LcdClearLine
   \   000083   7A02         MOV     R2,#0x2
   \   000085   EF           MOV     A,R7
   \   000086   F9           MOV     R1,A
   \   000087   12....       LCALL   ??LcdClearLine?relay
   \   00008A                ; Setup parameters for call to function LCD_P8x16Str
   \   00008A   85..82       MOV     DPL,?XSP + 0
   \   00008D   85..83       MOV     DPH,?XSP + 1
   \   000090   AC82         MOV     R4,DPL
   \   000092   AD83         MOV     R5,DPH
   \   000094   EF           MOV     A,R7
   \   000095   FA           MOV     R2,A
   \   000096   7900         MOV     R1,#0x0
   \   000098   12....       LCALL   ??LCD_P8x16Str?relay
    221          #endif
    222          }
   \   00009B   742A         MOV     A,#0x2a
   \   00009D                REQUIRE ?Subroutine1
   \   00009D                ; // Fall through to label ?Subroutine1

   \                                 In  segment BANKED_CODE, align 1, keep-with-next
   \                     ?Subroutine1:
   \   000000   12....       LCALL   ?DEALLOC_XSTACK8
   \   000003                REQUIRE ??Subroutine2_0
   \   000003                ; // Fall through to label ??Subroutine2_0

   \                                 In  segment BANKED_CODE, align 1, keep-with-next
   \                     ??Subroutine2_0:
   \   000000   7F08         MOV     R7,#0x8
   \   000002   02....       LJMP    ?BANKED_LEAVE_XDATA
    223          
    224          /**************************************************************************************************
    225           * @fn      HalLcdWriteScreen
    226           *
    227           * @brief   Write a value to the LCD
    228           *
    229           * @param   line1  - string that will be displayed on line 1
    230           *          line2  - string that will be displayed on line 2
    231           *
    232           * @return  None
    233           **************************************************************************************************/

   \                                 In  segment BANKED_CODE, align 1, keep-with-next
    234          void HalLcdWriteScreen( char *line1, char *line2 )
   \                     HalLcdWriteScreen:
    235          {
   \   000000   74F2         MOV     A,#-0xe
   \   000002   12....       LCALL   ?BANKED_ENTER_XDATA
   \   000005                ; Saved register size: 14
   \   000005                ; Auto size: 34
   \   000005   74DE         MOV     A,#-0x22
   \   000007   12....       LCALL   ?ALLOC_XSTACK8
   \   00000A   8A..         MOV     ?V0 + 0,R2
   \   00000C   8B..         MOV     ?V0 + 1,R3
   \   00000E   EC           MOV     A,R4
   \   00000F   FE           MOV     R6,A
   \   000010   ED           MOV     A,R5
   \   000011   FF           MOV     R7,A
    236          #if (HAL_LCD == TRUE)
    237            HalLcdWriteString( line1, 1 );
   \   000012                ; Setup parameters for call to function osal_strlen
   \   000012   12....       LCALL   ??osal_strlen?relay
   \   000015   EA           MOV     A,R2
   \   000016   F5..         MOV     ?V0 + 4,A
   \   000018   C3           CLR     C
   \   000019   9411         SUBB    A,#0x11
   \   00001B   4003         JC      ??HalLcdWriteScreen_0
   \   00001D   75..10       MOV     ?V0 + 4,#0x10
   \                     ??HalLcdWriteScreen_0:
   \   000020                ; Setup parameters for call to function osal_memset
   \   000020   7C11         MOV     R4,#0x11
   \   000022   7D00         MOV     R5,#0x0
   \   000024   7900         MOV     R1,#0x0
   \   000026   EC           MOV     A,R4
   \   000027   12....       LCALL   ?XSTACK_DISP0_8
   \   00002A   AA82         MOV     R2,DPL
   \   00002C   AB83         MOV     R3,DPH
   \   00002E   12....       LCALL   ??osal_memset?relay
   \   000031                ; Setup parameters for call to function osal_memcpy
   \   000031   75..00       MOV     ?V0 + 2,#0x0
   \   000034   78..         MOV     R0,#?V0 + 0
   \   000036   12....       LCALL   ?PUSH_XSTACK_I_THREE
   \   000039   AC..         MOV     R4,?V0 + 4
   \   00003B   7D00         MOV     R5,#0x0
   \   00003D   7414         MOV     A,#0x14
   \   00003F   12....       LCALL   ?XSTACK_DISP0_8
   \   000042   AA82         MOV     R2,DPL
   \   000044   AB83         MOV     R3,DPH
   \   000046   12....       LCALL   ??osal_memcpy?relay
   \   000049   7403         MOV     A,#0x3
   \   00004B   12....       LCALL   ?DEALLOC_XSTACK8
   \   00004E                ; Setup parameters for call to function LcdClearLine
   \   00004E   7A02         MOV     R2,#0x2
   \   000050   7900         MOV     R1,#0x0
   \   000052   12....       LCALL   ??LcdClearLine?relay
   \   000055                ; Setup parameters for call to function LCD_P8x16Str
   \   000055   7411         MOV     A,#0x11
   \   000057   12....       LCALL   ?XSTACK_DISP0_8
   \   00005A   AC82         MOV     R4,DPL
   \   00005C   AD83         MOV     R5,DPH
   \   00005E   7A00         MOV     R2,#0x0
   \   000060   7900         MOV     R1,#0x0
   \   000062   12....       LCALL   ??LCD_P8x16Str?relay
    238            HalLcdWriteString( line2, 2 );
   \   000065                ; Setup parameters for call to function osal_strlen
   \   000065   EE           MOV     A,R6
   \   000066   FA           MOV     R2,A
   \   000067   EF           MOV     A,R7
   \   000068   FB           MOV     R3,A
   \   000069   12....       LCALL   ??osal_strlen?relay
   \   00006C   EA           MOV     A,R2
   \   00006D   F5..         MOV     ?V0 + 4,A
   \   00006F   C3           CLR     C
   \   000070   9411         SUBB    A,#0x11
   \   000072   4003         JC      ??HalLcdWriteScreen_1
   \   000074   75..10       MOV     ?V0 + 4,#0x10
   \                     ??HalLcdWriteScreen_1:
   \   000077                ; Setup parameters for call to function osal_memset
   \   000077   7C11         MOV     R4,#0x11
   \   000079   7D00         MOV     R5,#0x0
   \   00007B   7900         MOV     R1,#0x0
   \   00007D   85..82       MOV     DPL,?XSP + 0
   \   000080   85..83       MOV     DPH,?XSP + 1
   \   000083   AA82         MOV     R2,DPL
   \   000085   AB83         MOV     R3,DPH
   \   000087   12....       LCALL   ??osal_memset?relay
   \   00008A                ; Setup parameters for call to function osal_memcpy
   \   00008A   8E..         MOV     ?V0 + 0,R6
   \   00008C   8F..         MOV     ?V0 + 1,R7
   \   00008E   78..         MOV     R0,#?V0 + 0
   \   000090   12....       LCALL   ?PUSH_XSTACK_I_THREE
   \   000093   AC..         MOV     R4,?V0 + 4
   \   000095   7D00         MOV     R5,#0x0
   \   000097   7403         MOV     A,#0x3
   \   000099   12....       LCALL   ?XSTACK_DISP0_8
   \   00009C   AA82         MOV     R2,DPL
   \   00009E   AB83         MOV     R3,DPH
   \   0000A0   12....       LCALL   ??osal_memcpy?relay
   \   0000A3   7403         MOV     A,#0x3
   \   0000A5   12....       LCALL   ?DEALLOC_XSTACK8
   \   0000A8                ; Setup parameters for call to function LcdClearLine
   \   0000A8   7A02         MOV     R2,#0x2
   \   0000AA   7902         MOV     R1,#0x2
   \   0000AC   12....       LCALL   ??LcdClearLine?relay
   \   0000AF                ; Setup parameters for call to function LCD_P8x16Str
   \   0000AF   85..82       MOV     DPL,?XSP + 0
   \   0000B2   85..83       MOV     DPH,?XSP + 1
   \   0000B5   AC82         MOV     R4,DPL
   \   0000B7   AD83         MOV     R5,DPH
   \   0000B9   7A02         MOV     R2,#0x2
   \   0000BB   7900         MOV     R1,#0x0
   \   0000BD   12....       LCALL   ??LCD_P8x16Str?relay
    239          #endif
    240          }
   \   0000C0   7422         MOV     A,#0x22
   \   0000C2   12....       LCALL   ?DEALLOC_XSTACK8
   \   0000C5   7F06         MOV     R7,#0x6
   \   0000C7   02....       LJMP    ?BANKED_LEAVE_XDATA
    241          
    242          /**************************************************************************************************
    243           * @fn      HalLcdWriteStringValue
    244           *
    245           * @brief   Write a string followed by a value to the LCD
    246           *
    247           * @param   title  - Title that will be displayed before the value
    248           *          value  - value
    249           *          format - redix
    250           *          line   - line number
    251           *
    252           * @return  None
    253           **************************************************************************************************/

   \                                 In  segment BANKED_CODE, align 1, keep-with-next
    254          void HalLcdWriteStringValue( char *title, uint16 value, uint8 format, uint8 line )
   \                     HalLcdWriteStringValue:
    255          {
   \   000000   74EE         MOV     A,#-0x12
   \   000002   12....       LCALL   ?BANKED_ENTER_XDATA
   \   000005                ; Saved register size: 18
   \   000005                ; Auto size: 42
   \   000005   74D6         MOV     A,#-0x2a
   \   000007   12....       LCALL   ?ALLOC_XSTACK8
   \   00000A   EA           MOV     A,R2
   \   00000B   FE           MOV     R6,A
   \   00000C   EB           MOV     A,R3
   \   00000D   FF           MOV     R7,A
   \   00000E   8C..         MOV     ?V0 + 2,R4
   \   000010   8D..         MOV     ?V0 + 3,R5
   \   000012   89..         MOV     ?V0 + 0,R1
   \   000014   743C         MOV     A,#0x3c
   \   000016   12....       LCALL   ?XSTACK_DISP0_8
   \   000019   E0           MOVX    A,@DPTR
   \   00001A   F5..         MOV     ?V0 + 1,A
    256          #if (HAL_LCD == TRUE)
    257            uint8 tmpLen;
    258            uint8 buf[LCD_MAX_BUF];
    259            uint32 err;
    260          
    261            tmpLen = (uint8)osal_strlen( (char*)title );
   \   00001C                ; Setup parameters for call to function osal_strlen
   \   00001C   12....       LCALL   ??osal_strlen?relay
   \   00001F   EA           MOV     A,R2
   \   000020   F5..         MOV     ?V0 + 8,A
    262            osal_memcpy( buf, title, tmpLen );
   \   000022                ; Setup parameters for call to function osal_memcpy
   \   000022   8E..         MOV     ?V0 + 4,R6
   \   000024   8F..         MOV     ?V0 + 5,R7
   \   000026   75..00       MOV     ?V0 + 6,#0x0
   \   000029   78..         MOV     R0,#?V0 + 4
   \   00002B   12....       LCALL   ?PUSH_XSTACK_I_THREE
   \   00002E   8A..         MOV     ?V0 + 4,R2
   \   000030   AC..         MOV     R4,?V0 + 4
   \   000032   7D00         MOV     R5,#0x0
   \   000034   7414         MOV     A,#0x14
   \   000036   12....       LCALL   ?XSTACK_DISP0_8
   \   000039   AA82         MOV     R2,DPL
   \   00003B   AB83         MOV     R3,DPH
   \   00003D   12....       LCALL   ??osal_memcpy?relay
   \   000040   7403         MOV     A,#0x3
   \   000042   12....       LCALL   ?DEALLOC_XSTACK8
    263            //buf[tmpLen] = ' ';
    264            err = (uint32)(value);
    265            _ltoa( err, &buf[tmpLen], format );
   \   000045                ; Setup parameters for call to function _ltoa
   \   000045   7411         MOV     A,#0x11
   \   000047   12....       LCALL   ?XSTACK_DISP0_8
   \   00004A   E582         MOV     A,DPL
   \   00004C   25..         ADD     A,?V0 + 8
   \   00004E   F5..         MOV     ?V0 + 4,A
   \   000050   E583         MOV     A,DPH
   \   000052   3400         ADDC    A,#0x0
   \   000054   F5..         MOV     ?V0 + 5,A
   \   000056   78..         MOV     R0,#?V0 + 4
   \   000058   12....       LCALL   ?PUSH_XSTACK_I_TWO
   \   00005B   A9..         MOV     R1,?V0 + 0
   \   00005D   AA..         MOV     R2,?V0 + 2
   \   00005F   AB..         MOV     R3,?V0 + 3
   \   000061   E4           CLR     A
   \   000062   FC           MOV     R4,A
   \   000063   FD           MOV     R5,A
   \   000064   12....       LCALL   ??_ltoa?relay
   \   000067   7402         MOV     A,#0x2
   \   000069   12....       LCALL   ?DEALLOC_XSTACK8
    266            HalLcdWriteString( (char*)buf, line );		
   \   00006C   74FF         MOV     A,#-0x1
   \   00006E   25..         ADD     A,?V0 + 1
   \   000070   C3           CLR     C
   \   000071   33           RLC     A
   \   000072   FE           MOV     R6,A
   \   000073                ; Setup parameters for call to function osal_strlen
   \   000073   7411         MOV     A,#0x11
   \   000075   12....       LCALL   ?XSTACK_DISP0_8
   \   000078   AA82         MOV     R2,DPL
   \   00007A   AB83         MOV     R3,DPH
   \   00007C   12....       LCALL   ??osal_strlen?relay
   \   00007F   EA           MOV     A,R2
   \   000080   F5..         MOV     ?V0 + 2,A
   \   000082   C3           CLR     C
   \   000083   9411         SUBB    A,#0x11
   \   000085   4003         JC      ??HalLcdWriteStringValue_0
   \   000087   75..10       MOV     ?V0 + 2,#0x10
   \                     ??HalLcdWriteStringValue_0:
   \   00008A                ; Setup parameters for call to function osal_memset
   \   00008A   7C11         MOV     R4,#0x11
   \   00008C   7D00         MOV     R5,#0x0
   \   00008E   7900         MOV     R1,#0x0
   \   000090   85..82       MOV     DPL,?XSP + 0
   \   000093   85..83       MOV     DPH,?XSP + 1
   \   000096   AA82         MOV     R2,DPL
   \   000098   AB83         MOV     R3,DPH
   \   00009A   12....       LCALL   ??osal_memset?relay
   \   00009D                ; Setup parameters for call to function osal_memcpy
   \   00009D   7411         MOV     A,#0x11
   \   00009F   12....       LCALL   ?XSTACK_DISP0_8
   \   0000A2   A982         MOV     R1,DPL
   \   0000A4   AA83         MOV     R2,DPH
   \   0000A6   89..         MOV     ?V0 + 4,R1
   \   0000A8   8A..         MOV     ?V0 + 5,R2
   \   0000AA   78..         MOV     R0,#?V0 + 4
   \   0000AC   12....       LCALL   ?PUSH_XSTACK_I_THREE
   \   0000AF   AC..         MOV     R4,?V0 + 2
   \   0000B1   7D00         MOV     R5,#0x0
   \   0000B3   7403         MOV     A,#0x3
   \   0000B5   12....       LCALL   ?XSTACK_DISP0_8
   \   0000B8   AA82         MOV     R2,DPL
   \   0000BA   AB83         MOV     R3,DPH
   \   0000BC   12....       LCALL   ??osal_memcpy?relay
   \   0000BF   7403         MOV     A,#0x3
   \   0000C1   12....       LCALL   ?DEALLOC_XSTACK8
   \   0000C4                ; Setup parameters for call to function LcdClearLine
   \   0000C4   7A02         MOV     R2,#0x2
   \   0000C6   EE           MOV     A,R6
   \   0000C7   F9           MOV     R1,A
   \   0000C8   12....       LCALL   ??LcdClearLine?relay
   \   0000CB                ; Setup parameters for call to function LCD_P8x16Str
   \   0000CB   85..82       MOV     DPL,?XSP + 0
   \   0000CE   85..83       MOV     DPH,?XSP + 1
   \   0000D1   AC82         MOV     R4,DPL
   \   0000D3   AD83         MOV     R5,DPH
   \   0000D5   EE           MOV     A,R6
   \   0000D6   FA           MOV     R2,A
   \   0000D7   7900         MOV     R1,#0x0
   \   0000D9   12....       LCALL   ??LCD_P8x16Str?relay
    267          #endif
    268          }
   \   0000DC   742A         MOV     A,#0x2a
   \   0000DE   12....       LCALL   ?DEALLOC_XSTACK8
   \   0000E1   7F0A         MOV     R7,#0xa
   \   0000E3   02....       LJMP    ?BANKED_LEAVE_XDATA
    269          
    270          /**************************************************************************************************
    271           * @fn      HalLcdWriteStringValue
    272           *
    273           * @brief   Write a string followed by a value to the LCD
    274           *
    275           * @param   title   - Title that will be displayed before the value
    276           *          value1  - value #1
    277           *          format1 - redix of value #1
    278           *          value2  - value #2
    279           *          format2 - redix of value #2
    280           *          line    - line number
    281           *
    282           * @return  None
    283           **************************************************************************************************/

   \                                 In  segment BANKED_CODE, align 1, keep-with-next
    284          void HalLcdWriteStringValueValue( char *title, uint16 value1, uint8 format1,
   \                     HalLcdWriteStringValueValue:
    285                                            uint16 value2, uint8 format2, uint8 line )
    286          {
   \   000000   74ED         MOV     A,#-0x13
   \   000002   12....       LCALL   ?BANKED_ENTER_XDATA
   \   000005                ; Saved register size: 19
   \   000005                ; Auto size: 42
   \   000005   74D6         MOV     A,#-0x2a
   \   000007   12....       LCALL   ?ALLOC_XSTACK8
   \   00000A   EA           MOV     A,R2
   \   00000B   FE           MOV     R6,A
   \   00000C   EB           MOV     A,R3
   \   00000D   FF           MOV     R7,A
   \   00000E   8C..         MOV     ?V0 + 2,R4
   \   000010   8D..         MOV     ?V0 + 3,R5
   \   000012   89..         MOV     ?V0 + 5,R1
   \   000014   743D         MOV     A,#0x3d
   \   000016   12....       LCALL   ?XSTACK_DISP0_8
   \   000019   E0           MOVX    A,@DPTR
   \   00001A   F5..         MOV     ?V0 + 0,A
   \   00001C   A3           INC     DPTR
   \   00001D   E0           MOVX    A,@DPTR
   \   00001E   F5..         MOV     ?V0 + 1,A
   \   000020   743F         MOV     A,#0x3f
   \   000022   12....       LCALL   ?XSTACK_DISP0_8
   \   000025   E0           MOVX    A,@DPTR
   \   000026   F5..         MOV     ?V0 + 4,A
   \   000028   7440         MOV     A,#0x40
   \   00002A   12....       LCALL   ?XSTACK_DISP0_8
   \   00002D   E0           MOVX    A,@DPTR
   \   00002E   F5..         MOV     ?V0 + 7,A
    287          
    288          #if (HAL_LCD == TRUE)
    289          
    290            uint8 tmpLen;
    291            uint8 buf[LCD_MAX_BUF];
    292            uint32 err;
    293          
    294            tmpLen = (uint8)osal_strlen( (char*)title );
   \   000030                ; Setup parameters for call to function osal_strlen
   \   000030   12....       LCALL   ??osal_strlen?relay
   \   000033   EA           MOV     A,R2
   \   000034   F5..         MOV     ?V0 + 6,A
    295            if ( tmpLen )
   \   000036   6023         JZ      ??HalLcdWriteStringValueValue_0
    296            {
    297              osal_memcpy( buf, title, tmpLen );
   \   000038                ; Setup parameters for call to function osal_memcpy
   \   000038   8E..         MOV     ?V0 + 8,R6
   \   00003A   8F..         MOV     ?V0 + 9,R7
   \   00003C   75..00       MOV     ?V0 + 10,#0x0
   \   00003F   78..         MOV     R0,#?V0 + 8
   \   000041   12....       LCALL   ?PUSH_XSTACK_I_THREE
   \   000044   8A..         MOV     ?V0 + 8,R2
   \   000046   AC..         MOV     R4,?V0 + 8
   \   000048   7D00         MOV     R5,#0x0
   \   00004A   7403         MOV     A,#0x3
   \   00004C   12....       LCALL   ?XSTACK_DISP0_8
   \   00004F   AA82         MOV     R2,DPL
   \   000051   AB83         MOV     R3,DPH
   \   000053   12....       LCALL   ??osal_memcpy?relay
   \   000056   7403         MOV     A,#0x3
   \   000058   12....       LCALL   ?DEALLOC_XSTACK8
    298              //buf[tmpLen++] = ' ';
    299            }
    300          
    301            err = (uint32)(value1);
    302            _ltoa( err, &buf[tmpLen], format1 );
   \                     ??HalLcdWriteStringValueValue_0:
   \   00005B                ; Setup parameters for call to function _ltoa
   \   00005B   85....       MOV     ?V0 + 8,?V0 + 6
   \   00005E   85..82       MOV     DPL,?XSP + 0
   \   000061   85..83       MOV     DPH,?XSP + 1
   \   000064   E582         MOV     A,DPL
   \   000066   25..         ADD     A,?V0 + 8
   \   000068   F5..         MOV     ?V0 + 8,A
   \   00006A   E583         MOV     A,DPH
   \   00006C   3400         ADDC    A,#0x0
   \   00006E   F5..         MOV     ?V0 + 9,A
   \   000070   78..         MOV     R0,#?V0 + 8
   \   000072   12....       LCALL   ?PUSH_XSTACK_I_TWO
   \   000075   A9..         MOV     R1,?V0 + 5
   \   000077   AA..         MOV     R2,?V0 + 2
   \   000079   AB..         MOV     R3,?V0 + 3
   \   00007B   E4           CLR     A
   \   00007C   FC           MOV     R4,A
   \   00007D   FD           MOV     R5,A
   \   00007E   12....       LCALL   ??_ltoa?relay
   \   000081   7402         MOV     A,#0x2
   \   000083   12....       LCALL   ?DEALLOC_XSTACK8
    303            tmpLen = (uint8)osal_strlen( (char*)buf );
   \   000086                ; Setup parameters for call to function osal_strlen
   \   000086   85..82       MOV     DPL,?XSP + 0
   \   000089   85..83       MOV     DPH,?XSP + 1
   \   00008C   AA82         MOV     R2,DPL
   \   00008E   AB83         MOV     R3,DPH
   \   000090   12....       LCALL   ??osal_strlen?relay
   \   000093   EA           MOV     A,R2
   \   000094   F5..         MOV     ?V0 + 6,A
    304          
    305            buf[tmpLen++] = ',';
   \   000096   F5..         MOV     ?V0 + 2,A
   \   000098   85..82       MOV     DPL,?XSP + 0
   \   00009B   85..83       MOV     DPH,?XSP + 1
   \   00009E   E582         MOV     A,DPL
   \   0000A0   25..         ADD     A,?V0 + 2
   \   0000A2   F582         MOV     DPL,A
   \   0000A4   E583         MOV     A,DPH
   \   0000A6   3400         ADDC    A,#0x0
   \   0000A8   F583         MOV     DPH,A
   \   0000AA   742C         MOV     A,#0x2c
   \   0000AC   F0           MOVX    @DPTR,A
   \   0000AD   05..         INC     ?V0 + 6
    306            buf[tmpLen++] = ' ';
   \   0000AF   85....       MOV     ?V0 + 2,?V0 + 6
   \   0000B2   85..82       MOV     DPL,?XSP + 0
   \   0000B5   85..83       MOV     DPH,?XSP + 1
   \   0000B8   E582         MOV     A,DPL
   \   0000BA   25..         ADD     A,?V0 + 2
   \   0000BC   F582         MOV     DPL,A
   \   0000BE   E583         MOV     A,DPH
   \   0000C0   3400         ADDC    A,#0x0
   \   0000C2   F583         MOV     DPH,A
   \   0000C4   7420         MOV     A,#0x20
   \   0000C6   F0           MOVX    @DPTR,A
    307            err = (uint32)(value2);
    308            _ltoa( err, &buf[tmpLen], format2 );
   \   0000C7                ; Setup parameters for call to function _ltoa
   \   0000C7   7401         MOV     A,#0x1
   \   0000C9   25..         ADD     A,?V0 + 6
   \   0000CB   F8           MOV     R0,A
   \   0000CC   85..82       MOV     DPL,?XSP + 0
   \   0000CF   85..83       MOV     DPH,?XSP + 1
   \   0000D2   E582         MOV     A,DPL
   \   0000D4   28           ADD     A,R0
   \   0000D5   F5..         MOV     ?V0 + 2,A
   \   0000D7   E583         MOV     A,DPH
   \   0000D9   3400         ADDC    A,#0x0
   \   0000DB   F5..         MOV     ?V0 + 3,A
   \   0000DD   78..         MOV     R0,#?V0 + 2
   \   0000DF   12....       LCALL   ?PUSH_XSTACK_I_TWO
   \   0000E2   A9..         MOV     R1,?V0 + 4
   \   0000E4   AA..         MOV     R2,?V0 + 0
   \   0000E6   AB..         MOV     R3,?V0 + 1
   \   0000E8   E4           CLR     A
   \   0000E9   FC           MOV     R4,A
   \   0000EA   FD           MOV     R5,A
   \   0000EB   12....       LCALL   ??_ltoa?relay
   \   0000EE   7402         MOV     A,#0x2
   \   0000F0   12....       LCALL   ?DEALLOC_XSTACK8
    309          
    310            HalLcdWriteString( (char *)buf, line );		
   \   0000F3   74FF         MOV     A,#-0x1
   \   0000F5   25..         ADD     A,?V0 + 7
   \   0000F7   C3           CLR     C
   \   0000F8   33           RLC     A
   \   0000F9   FE           MOV     R6,A
   \   0000FA                ; Setup parameters for call to function osal_strlen
   \   0000FA   85..82       MOV     DPL,?XSP + 0
   \   0000FD   85..83       MOV     DPH,?XSP + 1
   \   000100   AA82         MOV     R2,DPL
   \   000102   AB83         MOV     R3,DPH
   \   000104   12....       LCALL   ??osal_strlen?relay
   \   000107   EA           MOV     A,R2
   \   000108   F5..         MOV     ?V0 + 0,A
   \   00010A   C3           CLR     C
   \   00010B   9411         SUBB    A,#0x11
   \   00010D   4003         JC      ??HalLcdWriteStringValueValue_1
   \   00010F   75..10       MOV     ?V0 + 0,#0x10
   \                     ??HalLcdWriteStringValueValue_1:
   \   000112                ; Setup parameters for call to function osal_memset
   \   000112   7C11         MOV     R4,#0x11
   \   000114   7D00         MOV     R5,#0x0
   \   000116   7900         MOV     R1,#0x0
   \   000118   7419         MOV     A,#0x19
   \   00011A   12....       LCALL   ?XSTACK_DISP0_8
   \   00011D   AA82         MOV     R2,DPL
   \   00011F   AB83         MOV     R3,DPH
   \   000121   12....       LCALL   ??osal_memset?relay
   \   000124                ; Setup parameters for call to function osal_memcpy
   \   000124   85..82       MOV     DPL,?XSP + 0
   \   000127   85..83       MOV     DPH,?XSP + 1
   \   00012A   A982         MOV     R1,DPL
   \   00012C   AA83         MOV     R2,DPH
   \   00012E   89..         MOV     ?V0 + 8,R1
   \   000130   8A..         MOV     ?V0 + 9,R2
   \   000132   75..00       MOV     ?V0 + 10,#0x0
   \   000135   78..         MOV     R0,#?V0 + 8
   \   000137   12....       LCALL   ?PUSH_XSTACK_I_THREE
   \   00013A   AC..         MOV     R4,?V0 + 0
   \   00013C   7D00         MOV     R5,#0x0
   \   00013E   741C         MOV     A,#0x1c
   \   000140   12....       LCALL   ?XSTACK_DISP0_8
   \   000143   AA82         MOV     R2,DPL
   \   000145   AB83         MOV     R3,DPH
   \   000147   12....       LCALL   ??osal_memcpy?relay
   \   00014A   7403         MOV     A,#0x3
   \   00014C   12....       LCALL   ?DEALLOC_XSTACK8
   \   00014F                ; Setup parameters for call to function LcdClearLine
   \   00014F   7A02         MOV     R2,#0x2
   \   000151   EE           MOV     A,R6
   \   000152   F9           MOV     R1,A
   \   000153   12....       LCALL   ??LcdClearLine?relay
   \   000156                ; Setup parameters for call to function LCD_P8x16Str
   \   000156   7419         MOV     A,#0x19
   \   000158   12....       LCALL   ?XSTACK_DISP0_8
   \   00015B   AC82         MOV     R4,DPL
   \   00015D   AD83         MOV     R5,DPH
   \   00015F   EE           MOV     A,R6
   \   000160   FA           MOV     R2,A
   \   000161   7900         MOV     R1,#0x0
   \   000163   12....       LCALL   ??LCD_P8x16Str?relay
    311          
    312          #endif
    313          }
   \   000166   742A         MOV     A,#0x2a
   \   000168   12....       LCALL   ?DEALLOC_XSTACK8
   \   00016B   7F0B         MOV     R7,#0xb
   \   00016D   02....       LJMP    ?BANKED_LEAVE_XDATA
    314          
    315          #if (HAL_LCD == TRUE)

   \                                 In  segment BANKED_CODE, align 1, keep-with-next
    316          void DelayMS(unsigned int msec)
   \                     DelayMS:
    317          { 
   \   000000                ; Saved register size: 0
   \   000000                ; Auto size: 0
    318              unsigned int i,j;
    319              
    320              for (i=0; i<msec; i++)
    321                  for (j=0; j<530; j++);
    322          }
   \   000000   02....       LJMP    ?BRET
    323          
    324          /*********************LCD 延时1ms************************************/

   \                                 In  segment BANKED_CODE, align 1, keep-with-next
    325          void LCD_DLY_ms(unsigned int ms)
   \                     LCD_DLY_ms:
    326          {                         
   \   000000                ; Saved register size: 0
   \   000000                ; Auto size: 0
   \   000000   EA           MOV     A,R2
   \   000001   4B           ORL     A,R3
   \   000002   600C         JZ      ??LCD_DLY_ms_0
    327              unsigned int a;
    328              while(ms)
    329              {
    330                  a=1800;
    331                  while(a--);
    332                  ms--;
   \                     ??LCD_DLY_ms_1:
   \   000004   EA           MOV     A,R2
   \   000005   24FF         ADD     A,#-0x1
   \   000007   1A           DEC     R2
   \   000008   EB           MOV     A,R3
   \   000009   34FF         ADDC    A,#-0x1
   \   00000B   FB           MOV     R3,A
   \   00000C   EA           MOV     A,R2
   \   00000D   4B           ORL     A,R3
   \   00000E   70F4         JNZ     ??LCD_DLY_ms_1
    333              }
    334              return;
   \                     ??LCD_DLY_ms_0:
   \   000010   02....       LJMP    ?BRET
    335          }
    336          
    337          /*********************LCD写数据************************************/ 

   \                                 In  segment BANKED_CODE, align 1, keep-with-next
    338          void LCD_WrDat(unsigned char dat)     
   \                     LCD_WrDat:
    339          {
   \   000000                ; Saved register size: 0
   \   000000                ; Auto size: 0
    340              unsigned char i=8, temp=0;
    341              LCD_DC=1;  
   \   000000   D280         SETB    0x80.0
    342              for(i=0;i<8;i++) //发送一个八位数据 
   \   000002   7808         MOV     R0,#0x8
    343              {
    344                  LCD_SCL=0;  
   \                     ??LCD_WrDat_0:
   \   000004   C292         CLR     0x90.2
    345                  
    346                  temp = dat&0x80;
    347                  if (temp == 0)
   \   000006   E9           MOV     A,R1
   \   000007   A2E7         MOV     C,0xE0 /* A   */.7
   \   000009   4004         JC      ??LCD_WrDat_1
    348                  {
    349                      LCD_SDA = 0;
   \   00000B   C293         CLR     0x90.3
   \   00000D   8002         SJMP    ??LCD_WrDat_2
    350                  }
    351                  else
    352                  {
    353                      LCD_SDA = 1;
   \                     ??LCD_WrDat_1:
   \   00000F   D293         SETB    0x90.3
    354                  }
    355                  LCD_SCL=1;             
   \                     ??LCD_WrDat_2:
   \   000011   D292         SETB    0x90.2
    356                  dat<<=1;    
   \   000013   C3           CLR     C
   \   000014   33           RLC     A
   \   000015   F9           MOV     R1,A
    357              }
   \   000016   18           DEC     R0
   \   000017   E8           MOV     A,R0
   \   000018   70EA         JNZ     ??LCD_WrDat_0
    358          }
   \   00001A   02....       LJMP    ?BRET
   \   00001D                REQUIRE _A_P0
   \   00001D                REQUIRE _A_P1
    359          
    360          /*********************LCD写命令************************************/                                        

   \                                 In  segment BANKED_CODE, align 1, keep-with-next
    361          void LCD_WrCmd(unsigned char cmd)
   \                     LCD_WrCmd:
    362          {
   \   000000                ; Saved register size: 0
   \   000000                ; Auto size: 0
    363              unsigned char i=8, temp=0;
    364              LCD_DC=0;
   \   000000   C280         CLR     0x80.0
    365              for(i=0;i<8;i++) //发送一个八位数据 
   \   000002   7808         MOV     R0,#0x8
    366              { 
    367                  LCD_SCL=0; 
   \                     ??LCD_WrCmd_0:
   \   000004   C292         CLR     0x90.2
    368                 
    369                  temp = cmd&0x80;
    370                  if (temp == 0)
   \   000006   E9           MOV     A,R1
   \   000007   A2E7         MOV     C,0xE0 /* A   */.7
   \   000009   4004         JC      ??LCD_WrCmd_1
    371                  {
    372                      LCD_SDA = 0;
   \   00000B   C293         CLR     0x90.3
   \   00000D   8002         SJMP    ??LCD_WrCmd_2
    373                  }
    374                  else
    375                  {
    376                      LCD_SDA = 1;
   \                     ??LCD_WrCmd_1:
   \   00000F   D293         SETB    0x90.3
    377                  }
    378                  LCD_SCL=1;
   \                     ??LCD_WrCmd_2:
   \   000011   D292         SETB    0x90.2
    379                  cmd<<=1;;        
   \   000013   C3           CLR     C
   \   000014   33           RLC     A
   \   000015   F9           MOV     R1,A
    380              }     
   \   000016   18           DEC     R0
   \   000017   E8           MOV     A,R0
   \   000018   70EA         JNZ     ??LCD_WrCmd_0
    381          }
   \   00001A   02....       LJMP    ?BRET
   \   00001D                REQUIRE _A_P0
   \   00001D                REQUIRE _A_P1
    382          
    383          /*********************LCD 设置坐标************************************/

   \                                 In  segment BANKED_CODE, align 1, keep-with-next
    384          void LCD_Set_Pos(unsigned char x, unsigned char y) 
   \                     LCD_Set_Pos:
    385          { 
   \   000000                ; Saved register size: 0
   \   000000                ; Auto size: 0
    386              LCD_WrCmd(0xb0+y);
   \   000000   74B0         MOV     A,#-0x50
   \   000002   2A           ADD     A,R2
   \   000003   FB           MOV     R3,A
   \   000004   C280         CLR     0x80.0
   \   000006   7808         MOV     R0,#0x8
   \                     ??LCD_Set_Pos_0:
   \   000008   C292         CLR     0x90.2
   \   00000A   EB           MOV     A,R3
   \   00000B   A2E7         MOV     C,0xE0 /* A   */.7
   \   00000D   4004         JC      ??LCD_Set_Pos_1
   \   00000F   C293         CLR     0x90.3
   \   000011   8002         SJMP    ??LCD_Set_Pos_2
   \                     ??LCD_Set_Pos_1:
   \   000013   D293         SETB    0x90.3
   \                     ??LCD_Set_Pos_2:
   \   000015   D292         SETB    0x90.2
   \   000017   C3           CLR     C
   \   000018   33           RLC     A
   \   000019   FB           MOV     R3,A
   \   00001A   18           DEC     R0
   \   00001B   E8           MOV     A,R0
   \   00001C   70EA         JNZ     ??LCD_Set_Pos_0
    387              LCD_WrCmd(((x&0xf0)>>4)|0x10);
   \   00001E   E9           MOV     A,R1
   \   00001F   C4           SWAP    A
   \   000020   540F         ANL     A,#0xf
   \   000022   4410         ORL     A,#0x10
   \   000024   FB           MOV     R3,A
   \   000025   C280         CLR     0x80.0
   \   000027   7808         MOV     R0,#0x8
   \                     ??LCD_Set_Pos_3:
   \   000029   C292         CLR     0x90.2
   \   00002B   EB           MOV     A,R3
   \   00002C   A2E7         MOV     C,0xE0 /* A   */.7
   \   00002E   4004         JC      ??LCD_Set_Pos_4
   \   000030   C293         CLR     0x90.3
   \   000032   8002         SJMP    ??LCD_Set_Pos_5
   \                     ??LCD_Set_Pos_4:
   \   000034   D293         SETB    0x90.3
   \                     ??LCD_Set_Pos_5:
   \   000036   D292         SETB    0x90.2
   \   000038   C3           CLR     C
   \   000039   33           RLC     A
   \   00003A   FB           MOV     R3,A
   \   00003B   18           DEC     R0
   \   00003C   E8           MOV     A,R0
   \   00003D   70EA         JNZ     ??LCD_Set_Pos_3
    388              LCD_WrCmd((x&0x0f)|0x01); 
   \   00003F   740F         MOV     A,#0xf
   \   000041   59           ANL     A,R1
   \   000042   4401         ORL     A,#0x1
   \   000044   FB           MOV     R3,A
   \   000045   C280         CLR     0x80.0
   \   000047   7808         MOV     R0,#0x8
   \                     ??LCD_Set_Pos_6:
   \   000049   C292         CLR     0x90.2
   \   00004B   EB           MOV     A,R3
   \   00004C   A2E7         MOV     C,0xE0 /* A   */.7
   \   00004E   4004         JC      ??LCD_Set_Pos_7
   \   000050   C293         CLR     0x90.3
   \   000052   8002         SJMP    ??LCD_Set_Pos_8
   \                     ??LCD_Set_Pos_7:
   \   000054   D293         SETB    0x90.3
   \                     ??LCD_Set_Pos_8:
   \   000056   D292         SETB    0x90.2
   \   000058   C3           CLR     C
   \   000059   33           RLC     A
   \   00005A   FB           MOV     R3,A
   \   00005B   18           DEC     R0
   \   00005C   E8           MOV     A,R0
   \   00005D   70EA         JNZ     ??LCD_Set_Pos_6
    389          } 
   \   00005F   02....       LJMP    ?BRET
   \   000062                REQUIRE _A_P0
   \   000062                REQUIRE _A_P1
    390          
    391          /*********************LCD全屏************************************/

   \                                 In  segment BANKED_CODE, align 1, keep-with-next
    392          void LCD_Fill(unsigned char bmp_dat) 
   \                     LCD_Fill:
    393          {
   \   000000                ; Saved register size: 0
   \   000000                ; Auto size: 0
    394              unsigned char y,x;
    395              for(y=0;y<8;y++)
   \   000000   7B00         MOV     R3,#0x0
    396              {
    397                  LCD_WrCmd(0xb0+y);
   \                     ??LCD_Fill_0:
   \   000002   74B0         MOV     A,#-0x50
   \   000004   2B           ADD     A,R3
   \   000005   FA           MOV     R2,A
   \   000006   C280         CLR     0x80.0
   \   000008   7808         MOV     R0,#0x8
   \                     ??LCD_Fill_1:
   \   00000A   C292         CLR     0x90.2
   \   00000C   EA           MOV     A,R2
   \   00000D   A2E7         MOV     C,0xE0 /* A   */.7
   \   00000F   4004         JC      ??LCD_Fill_2
   \   000011   C293         CLR     0x90.3
   \   000013   8002         SJMP    ??LCD_Fill_3
   \                     ??LCD_Fill_2:
   \   000015   D293         SETB    0x90.3
   \                     ??LCD_Fill_3:
   \   000017   D292         SETB    0x90.2
   \   000019   C3           CLR     C
   \   00001A   33           RLC     A
   \   00001B   FA           MOV     R2,A
   \   00001C   18           DEC     R0
   \   00001D   E8           MOV     A,R0
   \   00001E   70EA         JNZ     ??LCD_Fill_1
    398                  LCD_WrCmd(0x01);
   \   000020   7A01         MOV     R2,#0x1
   \   000022   C280         CLR     0x80.0
   \   000024   7808         MOV     R0,#0x8
   \                     ??LCD_Fill_4:
   \   000026   C292         CLR     0x90.2
   \   000028   EA           MOV     A,R2
   \   000029   A2E7         MOV     C,0xE0 /* A   */.7
   \   00002B   4004         JC      ??LCD_Fill_5
   \   00002D   C293         CLR     0x90.3
   \   00002F   8002         SJMP    ??LCD_Fill_6
   \                     ??LCD_Fill_5:
   \   000031   D293         SETB    0x90.3
   \                     ??LCD_Fill_6:
   \   000033   D292         SETB    0x90.2
   \   000035   C3           CLR     C
   \   000036   33           RLC     A
   \   000037   FA           MOV     R2,A
   \   000038   18           DEC     R0
   \   000039   E8           MOV     A,R0
   \   00003A   70EA         JNZ     ??LCD_Fill_4
    399                  LCD_WrCmd(0x10);
   \   00003C   7A10         MOV     R2,#0x10
   \   00003E   C280         CLR     0x80.0
   \   000040   7808         MOV     R0,#0x8
   \                     ??LCD_Fill_7:
   \   000042   C292         CLR     0x90.2
   \   000044   EA           MOV     A,R2
   \   000045   A2E7         MOV     C,0xE0 /* A   */.7
   \   000047   4004         JC      ??LCD_Fill_8
   \   000049   C293         CLR     0x90.3
   \   00004B   8002         SJMP    ??LCD_Fill_9
   \                     ??LCD_Fill_8:
   \   00004D   D293         SETB    0x90.3
   \                     ??LCD_Fill_9:
   \   00004F   D292         SETB    0x90.2
   \   000051   C3           CLR     C
   \   000052   33           RLC     A
   \   000053   FA           MOV     R2,A
   \   000054   18           DEC     R0
   \   000055   E8           MOV     A,R0
   \   000056   70EA         JNZ     ??LCD_Fill_7
    400                  for(x=0;x<X_WIDTH;x++)
   \   000058   7A80         MOV     R2,#-0x80
    401                      LCD_WrDat(bmp_dat);
   \                     ??LCD_Fill_10:
   \   00005A   E9           MOV     A,R1
   \   00005B   FC           MOV     R4,A
   \   00005C   D280         SETB    0x80.0
   \   00005E   7808         MOV     R0,#0x8
   \                     ??LCD_Fill_11:
   \   000060   C292         CLR     0x90.2
   \   000062   EC           MOV     A,R4
   \   000063   A2E7         MOV     C,0xE0 /* A   */.7
   \   000065   4004         JC      ??LCD_Fill_12
   \   000067   C293         CLR     0x90.3
   \   000069   8002         SJMP    ??LCD_Fill_13
   \                     ??LCD_Fill_12:
   \   00006B   D293         SETB    0x90.3
   \                     ??LCD_Fill_13:
   \   00006D   D292         SETB    0x90.2
   \   00006F   C3           CLR     C
   \   000070   33           RLC     A
   \   000071   FC           MOV     R4,A
   \   000072   18           DEC     R0
   \   000073   E8           MOV     A,R0
   \   000074   70EA         JNZ     ??LCD_Fill_11
   \   000076   1A           DEC     R2
   \   000077   EA           MOV     A,R2
   \   000078   70E0         JNZ     ??LCD_Fill_10
    402              }
   \   00007A   0B           INC     R3
   \   00007B   EB           MOV     A,R3
   \   00007C   C3           CLR     C
   \   00007D   9408         SUBB    A,#0x8
   \   00007F   4081         JC      ??LCD_Fill_0
    403          }
   \   000081   02....       LJMP    ?BRET
   \   000084                REQUIRE _A_P0
   \   000084                REQUIRE _A_P1
    404          
    405          /*********************LCD复位************************************/

   \                                 In  segment BANKED_CODE, align 1, keep-with-next
    406          void LCD_CLS(void)
   \                     LCD_CLS:
    407          {
   \   000000                ; Saved register size: 0
   \   000000                ; Auto size: 0
    408              unsigned char y,x;    
    409              for(y=0;y<8;y++)
   \   000000   7A00         MOV     R2,#0x0
    410              {
    411                  LCD_WrCmd(0xb0+y);
   \                     ??LCD_CLS_0:
   \   000002   74B0         MOV     A,#-0x50
   \   000004   2A           ADD     A,R2
   \   000005   F9           MOV     R1,A
   \   000006   C280         CLR     0x80.0
   \   000008   7808         MOV     R0,#0x8
   \                     ??LCD_CLS_1:
   \   00000A   C292         CLR     0x90.2
   \   00000C   E9           MOV     A,R1
   \   00000D   A2E7         MOV     C,0xE0 /* A   */.7
   \   00000F   4004         JC      ??LCD_CLS_2
   \   000011   C293         CLR     0x90.3
   \   000013   8002         SJMP    ??LCD_CLS_3
   \                     ??LCD_CLS_2:
   \   000015   D293         SETB    0x90.3
   \                     ??LCD_CLS_3:
   \   000017   D292         SETB    0x90.2
   \   000019   C3           CLR     C
   \   00001A   33           RLC     A
   \   00001B   F9           MOV     R1,A
   \   00001C   18           DEC     R0
   \   00001D   E8           MOV     A,R0
   \   00001E   70EA         JNZ     ??LCD_CLS_1
    412                  LCD_WrCmd(0x01);
   \   000020   7901         MOV     R1,#0x1
   \   000022   C280         CLR     0x80.0
   \   000024   7808         MOV     R0,#0x8
   \                     ??LCD_CLS_4:
   \   000026   C292         CLR     0x90.2
   \   000028   E9           MOV     A,R1
   \   000029   A2E7         MOV     C,0xE0 /* A   */.7
   \   00002B   4004         JC      ??LCD_CLS_5
   \   00002D   C293         CLR     0x90.3
   \   00002F   8002         SJMP    ??LCD_CLS_6
   \                     ??LCD_CLS_5:
   \   000031   D293         SETB    0x90.3
   \                     ??LCD_CLS_6:
   \   000033   D292         SETB    0x90.2
   \   000035   C3           CLR     C
   \   000036   33           RLC     A
   \   000037   F9           MOV     R1,A
   \   000038   18           DEC     R0
   \   000039   E8           MOV     A,R0
   \   00003A   70EA         JNZ     ??LCD_CLS_4
    413                  LCD_WrCmd(0x10); 
   \   00003C   7910         MOV     R1,#0x10
   \   00003E   C280         CLR     0x80.0
   \   000040   7808         MOV     R0,#0x8
   \                     ??LCD_CLS_7:
   \   000042   C292         CLR     0x90.2
   \   000044   E9           MOV     A,R1
   \   000045   A2E7         MOV     C,0xE0 /* A   */.7
   \   000047   4004         JC      ??LCD_CLS_8
   \   000049   C293         CLR     0x90.3
   \   00004B   8002         SJMP    ??LCD_CLS_9
   \                     ??LCD_CLS_8:
   \   00004D   D293         SETB    0x90.3
   \                     ??LCD_CLS_9:
   \   00004F   D292         SETB    0x90.2
   \   000051   C3           CLR     C
   \   000052   33           RLC     A
   \   000053   F9           MOV     R1,A
   \   000054   18           DEC     R0
   \   000055   E8           MOV     A,R0
   \   000056   70EA         JNZ     ??LCD_CLS_7
    414                  for(x=0;x<X_WIDTH;x++)
   \   000058   7980         MOV     R1,#-0x80
    415                      LCD_WrDat(0);
   \                     ??LCD_CLS_10:
   \   00005A   D280         SETB    0x80.0
   \   00005C   7808         MOV     R0,#0x8
   \                     ??LCD_CLS_11:
   \   00005E   C292         CLR     0x90.2
   \   000060   C3           CLR     C
   \   000061   4004         JC      ??LCD_CLS_12
   \   000063   C293         CLR     0x90.3
   \   000065   8002         SJMP    ??LCD_CLS_13
   \                     ??LCD_CLS_12:
   \   000067   D293         SETB    0x90.3
   \                     ??LCD_CLS_13:
   \   000069   D292         SETB    0x90.2
   \   00006B   18           DEC     R0
   \   00006C   E8           MOV     A,R0
   \   00006D   70EF         JNZ     ??LCD_CLS_11
   \   00006F   19           DEC     R1
   \   000070   E9           MOV     A,R1
   \   000071   70E7         JNZ     ??LCD_CLS_10
    416              }
   \   000073   0A           INC     R2
   \   000074   EA           MOV     A,R2
   \   000075   9408         SUBB    A,#0x8
   \   000077   4089         JC      ??LCD_CLS_0
    417          }
   \   000079   02....       LJMP    ?BRET
   \   00007C                REQUIRE _A_P0
   \   00007C                REQUIRE _A_P1
    418          

   \                                 In  segment BANKED_CODE, align 1, keep-with-next
    419          void LcdClearLine(unsigned char y, unsigned char count)
   \                     LcdClearLine:
    420          {
   \   000000   74F6         MOV     A,#-0xa
   \   000002   12....       LCALL   ?BANKED_ENTER_XDATA
   \   000005                ; Saved register size: 10
   \   000005                ; Auto size: 0
   \   000005   E9           MOV     A,R1
   \   000006   FC           MOV     R4,A
   \   000007   EA           MOV     A,R2
   \   000008   FD           MOV     R5,A
    421              unsigned char x,j;	
    422              
    423              for(j=y; j<(y+count); j++)
   \   000009   EC           MOV     A,R4
   \   00000A   FE           MOV     R6,A
   \   00000B   8C82         MOV     DPL,R4
   \   00000D   8D..         MOV     ?V0 + 0,R5
   \   00000F   25..         ADD     A,?V0 + 0
   \   000011   F8           MOV     R0,A
   \   000012   E4           CLR     A
   \   000013   3400         ADDC    A,#0x0
   \   000015   F9           MOV     R1,A
   \   000016   E582         MOV     A,DPL
   \   000018   98           SUBB    A,R0
   \   000019   E4           CLR     A
   \   00001A   99           SUBB    A,R1
   \   00001B   C3           CLR     C
   \   00001C   65D0         XRL     A,PSW
   \   00001E   33           RLC     A
   \   00001F   507C         JNC     ??LcdClearLine_0
    424              {
    425                  LCD_WrCmd(0xb0+j);
   \                     ??LcdClearLine_1:
   \   000021   74B0         MOV     A,#-0x50
   \   000023   2E           ADD     A,R6
   \   000024   FB           MOV     R3,A
   \   000025   C280         CLR     0x80.0
   \   000027   7A08         MOV     R2,#0x8
   \                     ??LcdClearLine_2:
   \   000029   C292         CLR     0x90.2
   \   00002B   EB           MOV     A,R3
   \   00002C   A2E7         MOV     C,0xE0 /* A   */.7
   \   00002E   4004         JC      ??LcdClearLine_3
   \   000030   C293         CLR     0x90.3
   \   000032   8002         SJMP    ??LcdClearLine_4
   \                     ??LcdClearLine_3:
   \   000034   D293         SETB    0x90.3
   \                     ??LcdClearLine_4:
   \   000036   D292         SETB    0x90.2
   \   000038   C3           CLR     C
   \   000039   33           RLC     A
   \   00003A   FB           MOV     R3,A
   \   00003B   1A           DEC     R2
   \   00003C   EA           MOV     A,R2
   \   00003D   70EA         JNZ     ??LcdClearLine_2
    426                  LCD_WrCmd(0x01);
   \   00003F   7B01         MOV     R3,#0x1
   \   000041   C280         CLR     0x80.0
   \   000043   7A08         MOV     R2,#0x8
   \                     ??LcdClearLine_5:
   \   000045   C292         CLR     0x90.2
   \   000047   EB           MOV     A,R3
   \   000048   A2E7         MOV     C,0xE0 /* A   */.7
   \   00004A   4004         JC      ??LcdClearLine_6
   \   00004C   C293         CLR     0x90.3
   \   00004E   8002         SJMP    ??LcdClearLine_7
   \                     ??LcdClearLine_6:
   \   000050   D293         SETB    0x90.3
   \                     ??LcdClearLine_7:
   \   000052   D292         SETB    0x90.2
   \   000054   C3           CLR     C
   \   000055   33           RLC     A
   \   000056   FB           MOV     R3,A
   \   000057   1A           DEC     R2
   \   000058   EA           MOV     A,R2
   \   000059   70EA         JNZ     ??LcdClearLine_5
    427                  LCD_WrCmd(0x10); 
   \   00005B   7B10         MOV     R3,#0x10
   \   00005D   C280         CLR     0x80.0
   \   00005F   7A08         MOV     R2,#0x8
   \                     ??LcdClearLine_8:
   \   000061   C292         CLR     0x90.2
   \   000063   EB           MOV     A,R3
   \   000064   A2E7         MOV     C,0xE0 /* A   */.7
   \   000066   4004         JC      ??LcdClearLine_9
   \   000068   C293         CLR     0x90.3
   \   00006A   8002         SJMP    ??LcdClearLine_10
   \                     ??LcdClearLine_9:
   \   00006C   D293         SETB    0x90.3
   \                     ??LcdClearLine_10:
   \   00006E   D292         SETB    0x90.2
   \   000070   C3           CLR     C
   \   000071   33           RLC     A
   \   000072   FB           MOV     R3,A
   \   000073   1A           DEC     R2
   \   000074   EA           MOV     A,R2
   \   000075   70EA         JNZ     ??LcdClearLine_8
    428                  for(x=0;x<X_WIDTH;x++)
   \   000077   7B80         MOV     R3,#-0x80
    429                     LCD_WrDat(0);
   \                     ??LcdClearLine_11:
   \   000079   D280         SETB    0x80.0
   \   00007B   7A08         MOV     R2,#0x8
   \                     ??LcdClearLine_12:
   \   00007D   C292         CLR     0x90.2
   \   00007F   C3           CLR     C
   \   000080   4004         JC      ??LcdClearLine_13
   \   000082   C293         CLR     0x90.3
   \   000084   8002         SJMP    ??LcdClearLine_14
   \                     ??LcdClearLine_13:
   \   000086   D293         SETB    0x90.3
   \                     ??LcdClearLine_14:
   \   000088   D292         SETB    0x90.2
   \   00008A   1A           DEC     R2
   \   00008B   EA           MOV     A,R2
   \   00008C   70EF         JNZ     ??LcdClearLine_12
   \   00008E   1B           DEC     R3
   \   00008F   EB           MOV     A,R3
   \   000090   70E7         JNZ     ??LcdClearLine_11
    430              }
   \   000092   0E           INC     R6
   \   000093   EE           MOV     A,R6
   \   000094   98           SUBB    A,R0
   \   000095   E4           CLR     A
   \   000096   99           SUBB    A,R1
   \   000097   C3           CLR     C
   \   000098   65D0         XRL     A,PSW
   \   00009A   33           RLC     A
   \   00009B   4084         JC      ??LcdClearLine_1
    431          }
   \                     ??LcdClearLine_0:
   \   00009D   7F02         MOV     R7,#0x2
   \   00009F   02....       LJMP    ?BANKED_LEAVE_XDATA
   \   0000A2                REQUIRE _A_P0
   \   0000A2                REQUIRE _A_P1
    432          

   \                                 In  segment BANKED_CODE, align 1, keep-with-next
    433          void HalLcdWriteString (char *str, uint8 option)
   \                     HalLcdWriteString:
    434          {
   \   000000   74F0         MOV     A,#-0x10
   \   000002   12....       LCALL   ?BANKED_ENTER_XDATA
   \   000005                ; Saved register size: 16
   \   000005                ; Auto size: 17
   \   000005   74EF         MOV     A,#-0x11
   \   000007   12....       LCALL   ?ALLOC_XSTACK8
   \   00000A   EA           MOV     A,R2
   \   00000B   FE           MOV     R6,A
   \   00000C   EB           MOV     A,R3
   \   00000D   FF           MOV     R7,A
   \   00000E   89..         MOV     ?V0 + 4,R1
    435            uint8 x=0,y=0,strLen;
    436            uint8 lcdBuf[HAL_LCD_MAX_CHARS+1];
    437              
    438            x=0;
    439            y = (option-1)*2;
   \   000010   74FF         MOV     A,#-0x1
   \   000012   25..         ADD     A,?V0 + 4
   \   000014   C3           CLR     C
   \   000015   33           RLC     A
   \   000016   F5..         MOV     ?V0 + 3,A
    440            strLen = (uint8)osal_strlen( (char*)str );
   \   000018                ; Setup parameters for call to function osal_strlen
   \   000018   12....       LCALL   ??osal_strlen?relay
   \   00001B   EA           MOV     A,R2
   \   00001C   F5..         MOV     ?V0 + 6,A
    441          
    442            /* Check boundries */
    443            if ( strLen > HAL_LCD_MAX_CHARS )
   \   00001E   C3           CLR     C
   \   00001F   9411         SUBB    A,#0x11
   \   000021   4003         JC      ??HalLcdWriteString_0
    444              strLen = HAL_LCD_MAX_CHARS;
   \   000023   75..10       MOV     ?V0 + 6,#0x10
    445          
    446            osal_memset(lcdBuf, 0, HAL_LCD_MAX_CHARS+1);
   \                     ??HalLcdWriteString_0:
   \   000026                ; Setup parameters for call to function osal_memset
   \   000026   7C11         MOV     R4,#0x11
   \   000028   7D00         MOV     R5,#0x0
   \   00002A   7900         MOV     R1,#0x0
   \   00002C   85..82       MOV     DPL,?XSP + 0
   \   00002F   85..83       MOV     DPH,?XSP + 1
   \   000032   AA82         MOV     R2,DPL
   \   000034   AB83         MOV     R3,DPH
   \   000036   12....       LCALL   ??osal_memset?relay
    447            osal_memcpy( lcdBuf, str, strLen );
   \   000039                ; Setup parameters for call to function osal_memcpy
   \   000039   8E..         MOV     ?V0 + 0,R6
   \   00003B   8F..         MOV     ?V0 + 1,R7
   \   00003D   75..00       MOV     ?V0 + 2,#0x0
   \   000040   78..         MOV     R0,#?V0 + 0
   \   000042   12....       LCALL   ?PUSH_XSTACK_I_THREE
   \   000045   AC..         MOV     R4,?V0 + 6
   \   000047   7D00         MOV     R5,#0x0
   \   000049   7403         MOV     A,#0x3
   \   00004B   12....       LCALL   ?XSTACK_DISP0_8
   \   00004E   AA82         MOV     R2,DPL
   \   000050   AB83         MOV     R3,DPH
   \   000052   12....       LCALL   ??osal_memcpy?relay
   \   000055   7403         MOV     A,#0x3
   \   000057   12....       LCALL   ?DEALLOC_XSTACK8
    448            
    449            LcdClearLine(y, 2);
   \   00005A                ; Setup parameters for call to function LcdClearLine
   \   00005A   7A02         MOV     R2,#0x2
   \   00005C   A9..         MOV     R1,?V0 + 3
   \   00005E   12....       LCALL   ??LcdClearLine?relay
    450            LCD_P8x16Str(x, y, lcdBuf);
   \   000061                ; Setup parameters for call to function LCD_P8x16Str
   \   000061   85..82       MOV     DPL,?XSP + 0
   \   000064   85..83       MOV     DPH,?XSP + 1
   \   000067   AC82         MOV     R4,DPL
   \   000069   AD83         MOV     R5,DPH
   \   00006B   AA..         MOV     R2,?V0 + 3
   \   00006D   7900         MOV     R1,#0x0
   \   00006F   12....       LCALL   ??LCD_P8x16Str?relay
    451          }
   \   000072   7411         MOV     A,#0x11
   \   000074   02....       LJMP    ?Subroutine1 & 0xFFFF
    452          
    453          /***能描述：显示8*16一组标准ASCII字符串     显示的坐标（x,y），y为页范围0～7***/

   \                                 In  segment BANKED_CODE, align 1, keep-with-next
    454          void LCD_P8x16Str(unsigned char x, unsigned char y,unsigned char ch[])
   \                     LCD_P8x16Str:
    455          {
   \   000000   74F0         MOV     A,#-0x10
   \   000002   12....       LCALL   ?BANKED_ENTER_XDATA
   \   000005                ; Saved register size: 16
   \   000005                ; Auto size: 0
   \   000005   89..         MOV     ?V0 + 2,R1
   \   000007   8A..         MOV     ?V0 + 3,R2
   \   000009   8C..         MOV     ?V0 + 0,R4
   \   00000B   8D..         MOV     ?V0 + 1,R5
    456              unsigned char c=0,i=0,j=0;
   \   00000D   75..00       MOV     ?V0 + 4,#0x0
   \   000010   8024         SJMP    ??LCD_P8x16Str_0
    457              
    458              while (ch[j]!='\0')
    459              {    
   \                     ??LCD_P8x16Str_1:
   \   000012   D293         SETB    0x90.3
   \                     ??LCD_P8x16Str_2:
   \   000014   D292         SETB    0x90.2
   \   000016   C3           CLR     C
   \   000017   33           RLC     A
   \   000018   FB           MOV     R3,A
   \   000019   1A           DEC     R2
   \   00001A   EA           MOV     A,R2
   \   00001B   6003         JZ      $+5
   \   00001D   02....       LJMP    ??LCD_P8x16Str_3 & 0xFFFF
    460                  c =ch[j]-32;
    461                  if(x>120){
    462                    x=0;
    463                    y++;
    464                  }
    465                  LCD_Set_Pos(x,y);    
    466                  for(i=0;i<8;i++)     
    467                      LCD_WrDat(F8X16[c*16+i]);
    468                  LCD_Set_Pos(x,y+1);    
    469                  for(i=0;i<8;i++)     
    470                      LCD_WrDat(F8X16[c*16+i+8]);  
   \   000020   A3           INC     DPTR
   \   000021   E8           MOV     A,R0
   \   000022   6582         XRL     A,DPL
   \   000024   7003         JNZ     ??LCD_P8x16Str_4
   \   000026   E9           MOV     A,R1
   \   000027   6583         XRL     A,DPH
   \                     ??LCD_P8x16Str_4:
   \   000029   6003         JZ      $+5
   \   00002B   02....       LJMP    ??LCD_P8x16Str_5 & 0xFFFF
    471                  x+=8;
   \   00002E   7408         MOV     A,#0x8
   \   000030   25..         ADD     A,?V0 + 2
   \   000032   F5..         MOV     ?V0 + 2,A
    472                  j++;
   \   000034   05..         INC     ?V0 + 4
   \                     ??LCD_P8x16Str_0:
   \   000036   85....       MOV     ?V0 + 6,?V0 + 4
   \   000039   E5..         MOV     A,?V0 + 0
   \   00003B   25..         ADD     A,?V0 + 6
   \   00003D   F582         MOV     DPL,A
   \   00003F   E5..         MOV     A,?V0 + 1
   \   000041   3400         ADDC    A,#0x0
   \   000043   F583         MOV     DPH,A
   \   000045   E0           MOVX    A,@DPTR
   \   000046   7003         JNZ     $+5
   \   000048   02....       LJMP    ??LCD_P8x16Str_6 & 0xFFFF
   \   00004B   24E0         ADD     A,#-0x20
   \   00004D   F5..         MOV     ?V0 + 6,A
   \   00004F   E5..         MOV     A,?V0 + 2
   \   000051   C3           CLR     C
   \   000052   9479         SUBB    A,#0x79
   \   000054   4005         JC      ??LCD_P8x16Str_7
   \   000056   75..00       MOV     ?V0 + 2,#0x0
   \   000059   05..         INC     ?V0 + 3
   \                     ??LCD_P8x16Str_7:
   \   00005B                ; Setup parameters for call to function LCD_Set_Pos
   \   00005B   AA..         MOV     R2,?V0 + 3
   \   00005D   A9..         MOV     R1,?V0 + 2
   \   00005F   12....       LCALL   ??LCD_Set_Pos?relay
   \   000062   75..00       MOV     ?V0 + 7,#0x0
   \   000065   7404         MOV     A,#0x4
   \   000067   78..         MOV     R0,#?V0 + 6
   \   000069   12....       LCALL   ?S_SHL
   \   00006C   74..         MOV     A,#F8X16 & 0xff
   \   00006E   25..         ADD     A,?V0 + 6
   \   000070   F582         MOV     DPL,A
   \   000072   74..         MOV     A,#(F8X16 >> 8) & 0xff
   \   000074   35..         ADDC    A,?V0 + 7
   \   000076   F583         MOV     DPH,A
   \   000078   E582         MOV     A,DPL
   \   00007A   2408         ADD     A,#0x8
   \   00007C   FE           MOV     R6,A
   \   00007D   E583         MOV     A,DPH
   \   00007F   3400         ADDC    A,#0x0
   \   000081   FF           MOV     R7,A
   \   000082   EE           MOV     A,R6
   \   000083   F8           MOV     R0,A
   \   000084   EF           MOV     A,R7
   \   000085   F9           MOV     R1,A
   \                     ??LCD_P8x16Str_8:
   \   000086   E0           MOVX    A,@DPTR
   \   000087   FB           MOV     R3,A
   \   000088   D280         SETB    0x80.0
   \   00008A   7A08         MOV     R2,#0x8
   \                     ??LCD_P8x16Str_9:
   \   00008C   C292         CLR     0x90.2
   \   00008E   EB           MOV     A,R3
   \   00008F   A2E7         MOV     C,0xE0 /* A   */.7
   \   000091   4004         JC      ??LCD_P8x16Str_10
   \   000093   C293         CLR     0x90.3
   \   000095   8002         SJMP    ??LCD_P8x16Str_11
   \                     ??LCD_P8x16Str_10:
   \   000097   D293         SETB    0x90.3
   \                     ??LCD_P8x16Str_11:
   \   000099   D292         SETB    0x90.2
   \   00009B   C3           CLR     C
   \   00009C   33           RLC     A
   \   00009D   FB           MOV     R3,A
   \   00009E   1A           DEC     R2
   \   00009F   EA           MOV     A,R2
   \   0000A0   70EA         JNZ     ??LCD_P8x16Str_9
   \   0000A2   A3           INC     DPTR
   \   0000A3   E8           MOV     A,R0
   \   0000A4   6582         XRL     A,DPL
   \   0000A6   7003         JNZ     ??LCD_P8x16Str_12
   \   0000A8   E9           MOV     A,R1
   \   0000A9   6583         XRL     A,DPH
   \                     ??LCD_P8x16Str_12:
   \   0000AB   70D9         JNZ     ??LCD_P8x16Str_8
   \   0000AD                ; Setup parameters for call to function LCD_Set_Pos
   \   0000AD   7401         MOV     A,#0x1
   \   0000AF   25..         ADD     A,?V0 + 3
   \   0000B1   FA           MOV     R2,A
   \   0000B2   A9..         MOV     R1,?V0 + 2
   \   0000B4   12....       LCALL   ??LCD_Set_Pos?relay
   \   0000B7   8E82         MOV     DPL,R6
   \   0000B9   8F83         MOV     DPH,R7
   \   0000BB   E582         MOV     A,DPL
   \   0000BD   2408         ADD     A,#0x8
   \   0000BF   F8           MOV     R0,A
   \   0000C0   E583         MOV     A,DPH
   \   0000C2   3400         ADDC    A,#0x0
   \   0000C4   F9           MOV     R1,A
   \                     ??LCD_P8x16Str_5:
   \   0000C5   E0           MOVX    A,@DPTR
   \   0000C6   FB           MOV     R3,A
   \   0000C7   D280         SETB    0x80.0
   \   0000C9   7A08         MOV     R2,#0x8
   \                     ??LCD_P8x16Str_3:
   \   0000CB   C292         CLR     0x90.2
   \   0000CD   EB           MOV     A,R3
   \   0000CE   A2E7         MOV     C,0xE0 /* A   */.7
   \   0000D0   5003         JNC     $+5
   \   0000D2   02....       LJMP    ??LCD_P8x16Str_1 & 0xFFFF
   \   0000D5   C293         CLR     0x90.3
   \   0000D7   02....       LJMP    ??LCD_P8x16Str_2 & 0xFFFF
    473              }
    474          }
   \                     ??LCD_P8x16Str_6:
   \   0000DA   02....       LJMP    ??Subroutine2_0 & 0xFFFF
   \   0000DD                REQUIRE _A_P0
   \   0000DD                REQUIRE _A_P1
    475          
    476          /*****************功能描述：显示16*16点阵  显示的坐标（x,y），y为页范围0～7****************************/

   \                                 In  segment BANKED_CODE, align 1, keep-with-next
    477          void LCD_P16x16Ch(unsigned char x, unsigned char y, unsigned char N)
   \                     LCD_P16x16Ch:
    478          {
   \   000000   74F5         MOV     A,#-0xb
   \   000002   12....       LCALL   ?BANKED_ENTER_XDATA
   \   000005                ; Saved register size: 11
   \   000005                ; Auto size: 0
   \   000005   89..         MOV     ?V0 + 0,R1
   \   000007   8A..         MOV     ?V0 + 1,R2
   \   000009   8B..         MOV     ?V0 + 2,R3
    479              unsigned char wm=0;
    480              unsigned int adder=2*N;//32*N;        
    481              LCD_Set_Pos(x , y);
   \   00000B                ; Setup parameters for call to function LCD_Set_Pos
   \   00000B   12....       LCALL   ??LCD_Set_Pos?relay
    482              for(wm = 0;wm < 16;wm++)               
   \   00000E   E5..         MOV     A,?V0 + 2
   \   000010   C3           CLR     C
   \   000011   33           RLC     A
   \   000012   F8           MOV     R0,A
   \   000013   E4           CLR     A
   \   000014   33           RLC     A
   \   000015   F9           MOV     R1,A
   \   000016   74..         MOV     A,#F16x16 & 0xff
   \   000018   28           ADD     A,R0
   \   000019   FE           MOV     R6,A
   \   00001A   74..         MOV     A,#(F16x16 >> 8) & 0xff
   \   00001C   39           ADDC    A,R1
   \   00001D   FF           MOV     R7,A
   \   00001E   EE           MOV     A,R6
   \   00001F   2410         ADD     A,#0x10
   \   000021   F8           MOV     R0,A
   \   000022   EF           MOV     A,R7
   \   000023   3400         ADDC    A,#0x0
   \   000025   F9           MOV     R1,A
    483              {
    484                  LCD_WrDat(F16x16[adder]);    
   \                     ??LCD_P16x16Ch_0:
   \   000026   8E82         MOV     DPL,R6
   \   000028   8F83         MOV     DPH,R7
   \   00002A   E0           MOVX    A,@DPTR
   \   00002B   FB           MOV     R3,A
   \   00002C   D280         SETB    0x80.0
   \   00002E   7A08         MOV     R2,#0x8
   \                     ??LCD_P16x16Ch_1:
   \   000030   C292         CLR     0x90.2
   \   000032   EB           MOV     A,R3
   \   000033   A2E7         MOV     C,0xE0 /* A   */.7
   \   000035   4004         JC      ??LCD_P16x16Ch_2
   \   000037   C293         CLR     0x90.3
   \   000039   8002         SJMP    ??LCD_P16x16Ch_3
   \                     ??LCD_P16x16Ch_2:
   \   00003B   D293         SETB    0x90.3
   \                     ??LCD_P16x16Ch_3:
   \   00003D   D292         SETB    0x90.2
   \   00003F   C3           CLR     C
   \   000040   33           RLC     A
   \   000041   FB           MOV     R3,A
   \   000042   1A           DEC     R2
   \   000043   EA           MOV     A,R2
   \   000044   70EA         JNZ     ??LCD_P16x16Ch_1
    485                  adder += 1;
    486              }      
   \   000046   A3           INC     DPTR
   \   000047   AE82         MOV     R6,DPL
   \   000049   AF83         MOV     R7,DPH
   \   00004B   E8           MOV     A,R0
   \   00004C   6E           XRL     A,R6
   \   00004D   7002         JNZ     ??LCD_P16x16Ch_4
   \   00004F   E9           MOV     A,R1
   \   000050   6F           XRL     A,R7
   \                     ??LCD_P16x16Ch_4:
   \   000051   70D3         JNZ     ??LCD_P16x16Ch_0
    487              LCD_Set_Pos(x,y + 1); 
   \   000053                ; Setup parameters for call to function LCD_Set_Pos
   \   000053   7401         MOV     A,#0x1
   \   000055   25..         ADD     A,?V0 + 1
   \   000057   FA           MOV     R2,A
   \   000058   A9..         MOV     R1,?V0 + 0
   \   00005A   12....       LCALL   ??LCD_Set_Pos?relay
    488              for(wm = 0;wm < 16;wm++)          
   \   00005D   8E82         MOV     DPL,R6
   \   00005F   8F83         MOV     DPH,R7
   \   000061   E582         MOV     A,DPL
   \   000063   2410         ADD     A,#0x10
   \   000065   F8           MOV     R0,A
   \   000066   E583         MOV     A,DPH
   \   000068   3400         ADDC    A,#0x0
   \   00006A   F9           MOV     R1,A
    489              {
    490                  LCD_WrDat(F16x16[adder]);
   \                     ??LCD_P16x16Ch_5:
   \   00006B   E0           MOVX    A,@DPTR
   \   00006C   FB           MOV     R3,A
   \   00006D   D280         SETB    0x80.0
   \   00006F   7A08         MOV     R2,#0x8
   \                     ??LCD_P16x16Ch_6:
   \   000071   C292         CLR     0x90.2
   \   000073   EB           MOV     A,R3
   \   000074   A2E7         MOV     C,0xE0 /* A   */.7
   \   000076   4004         JC      ??LCD_P16x16Ch_7
   \   000078   C293         CLR     0x90.3
   \   00007A   8002         SJMP    ??LCD_P16x16Ch_8
   \                     ??LCD_P16x16Ch_7:
   \   00007C   D293         SETB    0x90.3
   \                     ??LCD_P16x16Ch_8:
   \   00007E   D292         SETB    0x90.2
   \   000080   C3           CLR     C
   \   000081   33           RLC     A
   \   000082   FB           MOV     R3,A
   \   000083   1A           DEC     R2
   \   000084   EA           MOV     A,R2
   \   000085   70EA         JNZ     ??LCD_P16x16Ch_6
    491                  adder += 1;
    492              }           
   \   000087   A3           INC     DPTR
   \   000088   E8           MOV     A,R0
   \   000089   6582         XRL     A,DPL
   \   00008B   7003         JNZ     ??LCD_P16x16Ch_9
   \   00008D   E9           MOV     A,R1
   \   00008E   6583         XRL     A,DPH
   \                     ??LCD_P16x16Ch_9:
   \   000090   70D9         JNZ     ??LCD_P16x16Ch_5
    493          }
   \   000092   7F03         MOV     R7,#0x3
   \   000094   02....       LJMP    ?BANKED_LEAVE_XDATA
   \   000097                REQUIRE _A_P0
   \   000097                REQUIRE _A_P1
    494          

   \                                 In  segment BANKED_CODE, align 1, keep-with-next
    495          void HalLcd_HW_WaitUs(uint16 microSecs)
   \                     HalLcd_HW_WaitUs:
    496          {
   \   000000                ; Saved register size: 0
   \   000000                ; Auto size: 0
   \   000000   EA           MOV     A,R2
   \   000001   4B           ORL     A,R3
   \   000002   6014         JZ      ??HalLcd_HW_WaitUs_0
    497            while(microSecs--)
    498            {
    499              /* 32 NOPs == 1 usecs */
    500              asm("nop"); asm("nop"); asm("nop"); asm("nop");
   \                     ??HalLcd_HW_WaitUs_1:
   \   000004   00           nop
   \   000005   00           nop
   \   000006   00           nop
   \   000007   00           nop
    501              asm("nop"); asm("nop"); asm("nop"); asm("nop");
   \   000008   00           nop
   \   000009   00           nop
   \   00000A   00           nop
   \   00000B   00           nop
   \   00000C   EA           MOV     A,R2
   \   00000D   24FF         ADD     A,#-0x1
   \   00000F   1A           DEC     R2
   \   000010   EB           MOV     A,R3
   \   000011   34FF         ADDC    A,#-0x1
   \   000013   FB           MOV     R3,A
   \   000014   EA           MOV     A,R2
   \   000015   4B           ORL     A,R3
   \   000016   70EC         JNZ     ??HalLcd_HW_WaitUs_1
    502            }
    503          }
   \                     ??HalLcd_HW_WaitUs_0:
   \   000018   02....       LJMP    ?BRET
    504          

   \                                 In  segment BANKED_CODE, align 1, keep-with-next
    505          void HalLcd_HW_Init(void)
   \                     HalLcd_HW_Init:
    506          {
   \   000000   C082         PUSH    DPL
   \   000002   C083         PUSH    DPH
   \   000004                ; Saved register size: 2
   \   000004                ; Auto size: 0
    507              P0SEL &= 0xFE; //让P0.0为普通IO口，
   \   000004   53F3FE       ANL     0xf3,#0xfe
    508              P0DIR |= 0x01; //让P0.0为为输出
   \   000007   43FD01       ORL     0xfd,#0x1
    509          
    510              P1SEL &= 0x73; //让 P1.2 P1.3 P1.7为普通IO口
   \   00000A   53F473       ANL     0xf4,#0x73
    511              P1DIR |= 0x8C; //把 P1.2 P1.3 1.7设置为输出
   \   00000D   43FE8C       ORL     0xfe,#0x8c
    512              
    513              LCD_SCL=1;
   \   000010   D292         SETB    0x90.2
    514              LCD_RST=0;
   \   000012   C297         CLR     0x90.7
    515              LCD_DLY_ms(50);
    516              LCD_RST=1;      //从上电到下面开始初始化要有足够的时间，即等待RC复位完毕   
   \   000014   D297         SETB    0x90.7
    517              LCD_WrCmd(0xae);//--turn off oled panel
   \   000016   79AE         MOV     R1,#-0x52
   \   000018   C280         CLR     0x80.0
   \   00001A   7808         MOV     R0,#0x8
   \                     ??HalLcd_HW_Init_0:
   \   00001C   C292         CLR     0x90.2
   \   00001E   E9           MOV     A,R1
   \   00001F   A2E7         MOV     C,0xE0 /* A   */.7
   \   000021   4004         JC      ??HalLcd_HW_Init_1
   \   000023   C293         CLR     0x90.3
   \   000025   8002         SJMP    ??HalLcd_HW_Init_2
   \                     ??HalLcd_HW_Init_1:
   \   000027   D293         SETB    0x90.3
   \                     ??HalLcd_HW_Init_2:
   \   000029   D292         SETB    0x90.2
   \   00002B   C3           CLR     C
   \   00002C   33           RLC     A
   \   00002D   F9           MOV     R1,A
   \   00002E   18           DEC     R0
   \   00002F   E8           MOV     A,R0
   \   000030   70EA         JNZ     ??HalLcd_HW_Init_0
    518              LCD_WrCmd(0x00);//---set low column address
   \   000032   C280         CLR     0x80.0
   \   000034   7808         MOV     R0,#0x8
   \                     ??HalLcd_HW_Init_3:
   \   000036   C292         CLR     0x90.2
   \   000038   C3           CLR     C
   \   000039   4004         JC      ??HalLcd_HW_Init_4
   \   00003B   C293         CLR     0x90.3
   \   00003D   8002         SJMP    ??HalLcd_HW_Init_5
   \                     ??HalLcd_HW_Init_4:
   \   00003F   D293         SETB    0x90.3
   \                     ??HalLcd_HW_Init_5:
   \   000041   D292         SETB    0x90.2
   \   000043   18           DEC     R0
   \   000044   E8           MOV     A,R0
   \   000045   70EF         JNZ     ??HalLcd_HW_Init_3
    519              LCD_WrCmd(0x10);//---set high column address
   \   000047   7910         MOV     R1,#0x10
   \   000049   C280         CLR     0x80.0
   \   00004B   7808         MOV     R0,#0x8
   \                     ??HalLcd_HW_Init_6:
   \   00004D   C292         CLR     0x90.2
   \   00004F   E9           MOV     A,R1
   \   000050   A2E7         MOV     C,0xE0 /* A   */.7
   \   000052   4004         JC      ??HalLcd_HW_Init_7
   \   000054   C293         CLR     0x90.3
   \   000056   8002         SJMP    ??HalLcd_HW_Init_8
   \                     ??HalLcd_HW_Init_7:
   \   000058   D293         SETB    0x90.3
   \                     ??HalLcd_HW_Init_8:
   \   00005A   D292         SETB    0x90.2
   \   00005C   C3           CLR     C
   \   00005D   33           RLC     A
   \   00005E   F9           MOV     R1,A
   \   00005F   18           DEC     R0
   \   000060   E8           MOV     A,R0
   \   000061   70EA         JNZ     ??HalLcd_HW_Init_6
    520              LCD_WrCmd(0x40);//--set start line address  Set Mapping RAM Display Start Line (0x00~0x3F)
   \   000063   7940         MOV     R1,#0x40
   \   000065   C280         CLR     0x80.0
   \   000067   7808         MOV     R0,#0x8
   \                     ??HalLcd_HW_Init_9:
   \   000069   C292         CLR     0x90.2
   \   00006B   E9           MOV     A,R1
   \   00006C   A2E7         MOV     C,0xE0 /* A   */.7
   \   00006E   4004         JC      ??HalLcd_HW_Init_10
   \   000070   C293         CLR     0x90.3
   \   000072   8002         SJMP    ??HalLcd_HW_Init_11
   \                     ??HalLcd_HW_Init_10:
   \   000074   D293         SETB    0x90.3
   \                     ??HalLcd_HW_Init_11:
   \   000076   D292         SETB    0x90.2
   \   000078   C3           CLR     C
   \   000079   33           RLC     A
   \   00007A   F9           MOV     R1,A
   \   00007B   18           DEC     R0
   \   00007C   E8           MOV     A,R0
   \   00007D   70EA         JNZ     ??HalLcd_HW_Init_9
    521              LCD_WrCmd(0x81);//--set contrast control register
   \   00007F   7981         MOV     R1,#-0x7f
   \   000081   C280         CLR     0x80.0
   \   000083   7808         MOV     R0,#0x8
   \                     ??HalLcd_HW_Init_12:
   \   000085   C292         CLR     0x90.2
   \   000087   E9           MOV     A,R1
   \   000088   A2E7         MOV     C,0xE0 /* A   */.7
   \   00008A   4004         JC      ??HalLcd_HW_Init_13
   \   00008C   C293         CLR     0x90.3
   \   00008E   8002         SJMP    ??HalLcd_HW_Init_14
   \                     ??HalLcd_HW_Init_13:
   \   000090   D293         SETB    0x90.3
   \                     ??HalLcd_HW_Init_14:
   \   000092   D292         SETB    0x90.2
   \   000094   C3           CLR     C
   \   000095   33           RLC     A
   \   000096   F9           MOV     R1,A
   \   000097   18           DEC     R0
   \   000098   E8           MOV     A,R0
   \   000099   70EA         JNZ     ??HalLcd_HW_Init_12
    522              LCD_WrCmd(0xcf); // Set SEG Output Current Brightness
   \   00009B   79CF         MOV     R1,#-0x31
   \   00009D   C280         CLR     0x80.0
   \   00009F   7808         MOV     R0,#0x8
   \                     ??HalLcd_HW_Init_15:
   \   0000A1   C292         CLR     0x90.2
   \   0000A3   E9           MOV     A,R1
   \   0000A4   A2E7         MOV     C,0xE0 /* A   */.7
   \   0000A6   4004         JC      ??HalLcd_HW_Init_16
   \   0000A8   C293         CLR     0x90.3
   \   0000AA   8002         SJMP    ??HalLcd_HW_Init_17
   \                     ??HalLcd_HW_Init_16:
   \   0000AC   D293         SETB    0x90.3
   \                     ??HalLcd_HW_Init_17:
   \   0000AE   D292         SETB    0x90.2
   \   0000B0   C3           CLR     C
   \   0000B1   33           RLC     A
   \   0000B2   F9           MOV     R1,A
   \   0000B3   18           DEC     R0
   \   0000B4   E8           MOV     A,R0
   \   0000B5   70EA         JNZ     ??HalLcd_HW_Init_15
    523              LCD_WrCmd(0xa1);//--Set SEG/Column Mapping     0xa0左右反置 0xa1正常
   \   0000B7   79A1         MOV     R1,#-0x5f
   \   0000B9   C280         CLR     0x80.0
   \   0000BB   7808         MOV     R0,#0x8
   \                     ??HalLcd_HW_Init_18:
   \   0000BD   C292         CLR     0x90.2
   \   0000BF   E9           MOV     A,R1
   \   0000C0   A2E7         MOV     C,0xE0 /* A   */.7
   \   0000C2   4004         JC      ??HalLcd_HW_Init_19
   \   0000C4   C293         CLR     0x90.3
   \   0000C6   8002         SJMP    ??HalLcd_HW_Init_20
   \                     ??HalLcd_HW_Init_19:
   \   0000C8   D293         SETB    0x90.3
   \                     ??HalLcd_HW_Init_20:
   \   0000CA   D292         SETB    0x90.2
   \   0000CC   C3           CLR     C
   \   0000CD   33           RLC     A
   \   0000CE   F9           MOV     R1,A
   \   0000CF   18           DEC     R0
   \   0000D0   E8           MOV     A,R0
   \   0000D1   70EA         JNZ     ??HalLcd_HW_Init_18
    524              LCD_WrCmd(0xc8);//Set COM/Row Scan Direction   0xc0上下反置 0xc8正常
   \   0000D3   79C8         MOV     R1,#-0x38
   \   0000D5   C280         CLR     0x80.0
   \   0000D7   7808         MOV     R0,#0x8
   \                     ??HalLcd_HW_Init_21:
   \   0000D9   C292         CLR     0x90.2
   \   0000DB   E9           MOV     A,R1
   \   0000DC   A2E7         MOV     C,0xE0 /* A   */.7
   \   0000DE   4004         JC      ??HalLcd_HW_Init_22
   \   0000E0   C293         CLR     0x90.3
   \   0000E2   8002         SJMP    ??HalLcd_HW_Init_23
   \                     ??HalLcd_HW_Init_22:
   \   0000E4   D293         SETB    0x90.3
   \                     ??HalLcd_HW_Init_23:
   \   0000E6   D292         SETB    0x90.2
   \   0000E8   C3           CLR     C
   \   0000E9   33           RLC     A
   \   0000EA   F9           MOV     R1,A
   \   0000EB   18           DEC     R0
   \   0000EC   E8           MOV     A,R0
   \   0000ED   70EA         JNZ     ??HalLcd_HW_Init_21
    525              LCD_WrCmd(0xa6);//--set normal display
   \   0000EF   79A6         MOV     R1,#-0x5a
   \   0000F1   C280         CLR     0x80.0
   \   0000F3   7808         MOV     R0,#0x8
   \                     ??HalLcd_HW_Init_24:
   \   0000F5   C292         CLR     0x90.2
   \   0000F7   E9           MOV     A,R1
   \   0000F8   A2E7         MOV     C,0xE0 /* A   */.7
   \   0000FA   4004         JC      ??HalLcd_HW_Init_25
   \   0000FC   C293         CLR     0x90.3
   \   0000FE   8002         SJMP    ??HalLcd_HW_Init_26
   \                     ??HalLcd_HW_Init_25:
   \   000100   D293         SETB    0x90.3
   \                     ??HalLcd_HW_Init_26:
   \   000102   D292         SETB    0x90.2
   \   000104   C3           CLR     C
   \   000105   33           RLC     A
   \   000106   F9           MOV     R1,A
   \   000107   18           DEC     R0
   \   000108   E8           MOV     A,R0
   \   000109   70EA         JNZ     ??HalLcd_HW_Init_24
    526              LCD_WrCmd(0xa8);//--set multiplex ratio(1 to 64)
   \   00010B   79A8         MOV     R1,#-0x58
   \   00010D   C280         CLR     0x80.0
   \   00010F   7808         MOV     R0,#0x8
   \                     ??HalLcd_HW_Init_27:
   \   000111   C292         CLR     0x90.2
   \   000113   E9           MOV     A,R1
   \   000114   A2E7         MOV     C,0xE0 /* A   */.7
   \   000116   4004         JC      ??HalLcd_HW_Init_28
   \   000118   C293         CLR     0x90.3
   \   00011A   8002         SJMP    ??HalLcd_HW_Init_29
   \                     ??HalLcd_HW_Init_28:
   \   00011C   D293         SETB    0x90.3
   \                     ??HalLcd_HW_Init_29:
   \   00011E   D292         SETB    0x90.2
   \   000120   C3           CLR     C
   \   000121   33           RLC     A
   \   000122   F9           MOV     R1,A
   \   000123   18           DEC     R0
   \   000124   E8           MOV     A,R0
   \   000125   70EA         JNZ     ??HalLcd_HW_Init_27
    527              LCD_WrCmd(0x3f);//--1/64 duty
   \   000127   793F         MOV     R1,#0x3f
   \   000129   C280         CLR     0x80.0
   \   00012B   7808         MOV     R0,#0x8
   \                     ??HalLcd_HW_Init_30:
   \   00012D   C292         CLR     0x90.2
   \   00012F   E9           MOV     A,R1
   \   000130   A2E7         MOV     C,0xE0 /* A   */.7
   \   000132   4004         JC      ??HalLcd_HW_Init_31
   \   000134   C293         CLR     0x90.3
   \   000136   8002         SJMP    ??HalLcd_HW_Init_32
   \                     ??HalLcd_HW_Init_31:
   \   000138   D293         SETB    0x90.3
   \                     ??HalLcd_HW_Init_32:
   \   00013A   D292         SETB    0x90.2
   \   00013C   C3           CLR     C
   \   00013D   33           RLC     A
   \   00013E   F9           MOV     R1,A
   \   00013F   18           DEC     R0
   \   000140   E8           MOV     A,R0
   \   000141   70EA         JNZ     ??HalLcd_HW_Init_30
    528              LCD_WrCmd(0xd3);//-set display offset    Shift Mapping RAM Counter (0x00~0x3F)
   \   000143   79D3         MOV     R1,#-0x2d
   \   000145   C280         CLR     0x80.0
   \   000147   7808         MOV     R0,#0x8
   \                     ??HalLcd_HW_Init_33:
   \   000149   C292         CLR     0x90.2
   \   00014B   E9           MOV     A,R1
   \   00014C   A2E7         MOV     C,0xE0 /* A   */.7
   \   00014E   4004         JC      ??HalLcd_HW_Init_34
   \   000150   C293         CLR     0x90.3
   \   000152   8002         SJMP    ??HalLcd_HW_Init_35
   \                     ??HalLcd_HW_Init_34:
   \   000154   D293         SETB    0x90.3
   \                     ??HalLcd_HW_Init_35:
   \   000156   D292         SETB    0x90.2
   \   000158   C3           CLR     C
   \   000159   33           RLC     A
   \   00015A   F9           MOV     R1,A
   \   00015B   18           DEC     R0
   \   00015C   E8           MOV     A,R0
   \   00015D   70EA         JNZ     ??HalLcd_HW_Init_33
    529              LCD_WrCmd(0x00);//-not offset
   \   00015F   C280         CLR     0x80.0
   \   000161   7808         MOV     R0,#0x8
   \                     ??HalLcd_HW_Init_36:
   \   000163   C292         CLR     0x90.2
   \   000165   C3           CLR     C
   \   000166   4004         JC      ??HalLcd_HW_Init_37
   \   000168   C293         CLR     0x90.3
   \   00016A   8002         SJMP    ??HalLcd_HW_Init_38
   \                     ??HalLcd_HW_Init_37:
   \   00016C   D293         SETB    0x90.3
   \                     ??HalLcd_HW_Init_38:
   \   00016E   D292         SETB    0x90.2
   \   000170   18           DEC     R0
   \   000171   E8           MOV     A,R0
   \   000172   70EF         JNZ     ??HalLcd_HW_Init_36
    530              LCD_WrCmd(0xd5);//--set display clock divide ratio/oscillator frequency
   \   000174   79D5         MOV     R1,#-0x2b
   \   000176   C280         CLR     0x80.0
   \   000178   7808         MOV     R0,#0x8
   \                     ??HalLcd_HW_Init_39:
   \   00017A   C292         CLR     0x90.2
   \   00017C   E9           MOV     A,R1
   \   00017D   A2E7         MOV     C,0xE0 /* A   */.7
   \   00017F   4004         JC      ??HalLcd_HW_Init_40
   \   000181   C293         CLR     0x90.3
   \   000183   8002         SJMP    ??HalLcd_HW_Init_41
   \                     ??HalLcd_HW_Init_40:
   \   000185   D293         SETB    0x90.3
   \                     ??HalLcd_HW_Init_41:
   \   000187   D292         SETB    0x90.2
   \   000189   C3           CLR     C
   \   00018A   33           RLC     A
   \   00018B   F9           MOV     R1,A
   \   00018C   18           DEC     R0
   \   00018D   E8           MOV     A,R0
   \   00018E   70EA         JNZ     ??HalLcd_HW_Init_39
    531              LCD_WrCmd(0x80);//--set divide ratio, Set Clock as 100 Frames/Sec
   \   000190   7980         MOV     R1,#-0x80
   \   000192   C280         CLR     0x80.0
   \   000194   7808         MOV     R0,#0x8
   \                     ??HalLcd_HW_Init_42:
   \   000196   C292         CLR     0x90.2
   \   000198   E9           MOV     A,R1
   \   000199   A2E7         MOV     C,0xE0 /* A   */.7
   \   00019B   4004         JC      ??HalLcd_HW_Init_43
   \   00019D   C293         CLR     0x90.3
   \   00019F   8002         SJMP    ??HalLcd_HW_Init_44
   \                     ??HalLcd_HW_Init_43:
   \   0001A1   D293         SETB    0x90.3
   \                     ??HalLcd_HW_Init_44:
   \   0001A3   D292         SETB    0x90.2
   \   0001A5   C3           CLR     C
   \   0001A6   33           RLC     A
   \   0001A7   F9           MOV     R1,A
   \   0001A8   18           DEC     R0
   \   0001A9   E8           MOV     A,R0
   \   0001AA   70EA         JNZ     ??HalLcd_HW_Init_42
    532              LCD_WrCmd(0xd9);//--set pre-charge period
   \   0001AC   79D9         MOV     R1,#-0x27
   \   0001AE   C280         CLR     0x80.0
   \   0001B0   7808         MOV     R0,#0x8
   \                     ??HalLcd_HW_Init_45:
   \   0001B2   C292         CLR     0x90.2
   \   0001B4   E9           MOV     A,R1
   \   0001B5   A2E7         MOV     C,0xE0 /* A   */.7
   \   0001B7   4004         JC      ??HalLcd_HW_Init_46
   \   0001B9   C293         CLR     0x90.3
   \   0001BB   8002         SJMP    ??HalLcd_HW_Init_47
   \                     ??HalLcd_HW_Init_46:
   \   0001BD   D293         SETB    0x90.3
   \                     ??HalLcd_HW_Init_47:
   \   0001BF   D292         SETB    0x90.2
   \   0001C1   C3           CLR     C
   \   0001C2   33           RLC     A
   \   0001C3   F9           MOV     R1,A
   \   0001C4   18           DEC     R0
   \   0001C5   E8           MOV     A,R0
   \   0001C6   70EA         JNZ     ??HalLcd_HW_Init_45
    533              LCD_WrCmd(0xf1);//Set Pre-Charge as 15 Clocks & Discharge as 1 Clock
   \   0001C8   79F1         MOV     R1,#-0xf
   \   0001CA   C280         CLR     0x80.0
   \   0001CC   7808         MOV     R0,#0x8
   \                     ??HalLcd_HW_Init_48:
   \   0001CE   C292         CLR     0x90.2
   \   0001D0   E9           MOV     A,R1
   \   0001D1   A2E7         MOV     C,0xE0 /* A   */.7
   \   0001D3   4004         JC      ??HalLcd_HW_Init_49
   \   0001D5   C293         CLR     0x90.3
   \   0001D7   8002         SJMP    ??HalLcd_HW_Init_50
   \                     ??HalLcd_HW_Init_49:
   \   0001D9   D293         SETB    0x90.3
   \                     ??HalLcd_HW_Init_50:
   \   0001DB   D292         SETB    0x90.2
   \   0001DD   C3           CLR     C
   \   0001DE   33           RLC     A
   \   0001DF   F9           MOV     R1,A
   \   0001E0   18           DEC     R0
   \   0001E1   E8           MOV     A,R0
   \   0001E2   70EA         JNZ     ??HalLcd_HW_Init_48
    534              LCD_WrCmd(0xda);//--set com pins hardware configuration
   \   0001E4   79DA         MOV     R1,#-0x26
   \   0001E6   C280         CLR     0x80.0
   \   0001E8   7808         MOV     R0,#0x8
   \                     ??HalLcd_HW_Init_51:
   \   0001EA   C292         CLR     0x90.2
   \   0001EC   E9           MOV     A,R1
   \   0001ED   A2E7         MOV     C,0xE0 /* A   */.7
   \   0001EF   4004         JC      ??HalLcd_HW_Init_52
   \   0001F1   C293         CLR     0x90.3
   \   0001F3   8002         SJMP    ??HalLcd_HW_Init_53
   \                     ??HalLcd_HW_Init_52:
   \   0001F5   D293         SETB    0x90.3
   \                     ??HalLcd_HW_Init_53:
   \   0001F7   D292         SETB    0x90.2
   \   0001F9   C3           CLR     C
   \   0001FA   33           RLC     A
   \   0001FB   F9           MOV     R1,A
   \   0001FC   18           DEC     R0
   \   0001FD   E8           MOV     A,R0
   \   0001FE   70EA         JNZ     ??HalLcd_HW_Init_51
    535              LCD_WrCmd(0x12);
   \   000200   7912         MOV     R1,#0x12
   \   000202   C280         CLR     0x80.0
   \   000204   7808         MOV     R0,#0x8
   \                     ??HalLcd_HW_Init_54:
   \   000206   C292         CLR     0x90.2
   \   000208   E9           MOV     A,R1
   \   000209   A2E7         MOV     C,0xE0 /* A   */.7
   \   00020B   4004         JC      ??HalLcd_HW_Init_55
   \   00020D   C293         CLR     0x90.3
   \   00020F   8002         SJMP    ??HalLcd_HW_Init_56
   \                     ??HalLcd_HW_Init_55:
   \   000211   D293         SETB    0x90.3
   \                     ??HalLcd_HW_Init_56:
   \   000213   D292         SETB    0x90.2
   \   000215   C3           CLR     C
   \   000216   33           RLC     A
   \   000217   F9           MOV     R1,A
   \   000218   18           DEC     R0
   \   000219   E8           MOV     A,R0
   \   00021A   70EA         JNZ     ??HalLcd_HW_Init_54
    536              LCD_WrCmd(0xdb);//--set vcomh
   \   00021C   79DB         MOV     R1,#-0x25
   \   00021E   C280         CLR     0x80.0
   \   000220   7808         MOV     R0,#0x8
   \                     ??HalLcd_HW_Init_57:
   \   000222   C292         CLR     0x90.2
   \   000224   E9           MOV     A,R1
   \   000225   A2E7         MOV     C,0xE0 /* A   */.7
   \   000227   4004         JC      ??HalLcd_HW_Init_58
   \   000229   C293         CLR     0x90.3
   \   00022B   8002         SJMP    ??HalLcd_HW_Init_59
   \                     ??HalLcd_HW_Init_58:
   \   00022D   D293         SETB    0x90.3
   \                     ??HalLcd_HW_Init_59:
   \   00022F   D292         SETB    0x90.2
   \   000231   C3           CLR     C
   \   000232   33           RLC     A
   \   000233   F9           MOV     R1,A
   \   000234   18           DEC     R0
   \   000235   E8           MOV     A,R0
   \   000236   70EA         JNZ     ??HalLcd_HW_Init_57
    537              LCD_WrCmd(0x40);//Set VCOM Deselect Level
   \   000238   7940         MOV     R1,#0x40
   \   00023A   C280         CLR     0x80.0
   \   00023C   7808         MOV     R0,#0x8
   \                     ??HalLcd_HW_Init_60:
   \   00023E   C292         CLR     0x90.2
   \   000240   E9           MOV     A,R1
   \   000241   A2E7         MOV     C,0xE0 /* A   */.7
   \   000243   4004         JC      ??HalLcd_HW_Init_61
   \   000245   C293         CLR     0x90.3
   \   000247   8002         SJMP    ??HalLcd_HW_Init_62
   \                     ??HalLcd_HW_Init_61:
   \   000249   D293         SETB    0x90.3
   \                     ??HalLcd_HW_Init_62:
   \   00024B   D292         SETB    0x90.2
   \   00024D   C3           CLR     C
   \   00024E   33           RLC     A
   \   00024F   F9           MOV     R1,A
   \   000250   18           DEC     R0
   \   000251   E8           MOV     A,R0
   \   000252   70EA         JNZ     ??HalLcd_HW_Init_60
    538              LCD_WrCmd(0x20);//-Set Page Addressing Mode (0x00/0x01/0x02)
   \   000254   7920         MOV     R1,#0x20
   \   000256   C280         CLR     0x80.0
   \   000258   7808         MOV     R0,#0x8
   \                     ??HalLcd_HW_Init_63:
   \   00025A   C292         CLR     0x90.2
   \   00025C   E9           MOV     A,R1
   \   00025D   A2E7         MOV     C,0xE0 /* A   */.7
   \   00025F   4004         JC      ??HalLcd_HW_Init_64
   \   000261   C293         CLR     0x90.3
   \   000263   8002         SJMP    ??HalLcd_HW_Init_65
   \                     ??HalLcd_HW_Init_64:
   \   000265   D293         SETB    0x90.3
   \                     ??HalLcd_HW_Init_65:
   \   000267   D292         SETB    0x90.2
   \   000269   C3           CLR     C
   \   00026A   33           RLC     A
   \   00026B   F9           MOV     R1,A
   \   00026C   18           DEC     R0
   \   00026D   E8           MOV     A,R0
   \   00026E   70EA         JNZ     ??HalLcd_HW_Init_63
    539              LCD_WrCmd(0x02);//
   \   000270   7902         MOV     R1,#0x2
   \   000272   C280         CLR     0x80.0
   \   000274   7808         MOV     R0,#0x8
   \                     ??HalLcd_HW_Init_66:
   \   000276   C292         CLR     0x90.2
   \   000278   E9           MOV     A,R1
   \   000279   A2E7         MOV     C,0xE0 /* A   */.7
   \   00027B   4004         JC      ??HalLcd_HW_Init_67
   \   00027D   C293         CLR     0x90.3
   \   00027F   8002         SJMP    ??HalLcd_HW_Init_68
   \                     ??HalLcd_HW_Init_67:
   \   000281   D293         SETB    0x90.3
   \                     ??HalLcd_HW_Init_68:
   \   000283   D292         SETB    0x90.2
   \   000285   C3           CLR     C
   \   000286   33           RLC     A
   \   000287   F9           MOV     R1,A
   \   000288   18           DEC     R0
   \   000289   E8           MOV     A,R0
   \   00028A   70EA         JNZ     ??HalLcd_HW_Init_66
    540              LCD_WrCmd(0x8d);//--set Charge Pump enable/disable
   \   00028C   798D         MOV     R1,#-0x73
   \   00028E   C280         CLR     0x80.0
   \   000290   7808         MOV     R0,#0x8
   \                     ??HalLcd_HW_Init_69:
   \   000292   C292         CLR     0x90.2
   \   000294   E9           MOV     A,R1
   \   000295   A2E7         MOV     C,0xE0 /* A   */.7
   \   000297   4004         JC      ??HalLcd_HW_Init_70
   \   000299   C293         CLR     0x90.3
   \   00029B   8002         SJMP    ??HalLcd_HW_Init_71
   \                     ??HalLcd_HW_Init_70:
   \   00029D   D293         SETB    0x90.3
   \                     ??HalLcd_HW_Init_71:
   \   00029F   D292         SETB    0x90.2
   \   0002A1   C3           CLR     C
   \   0002A2   33           RLC     A
   \   0002A3   F9           MOV     R1,A
   \   0002A4   18           DEC     R0
   \   0002A5   E8           MOV     A,R0
   \   0002A6   70EA         JNZ     ??HalLcd_HW_Init_69
    541              LCD_WrCmd(0x14);//--set(0x10) disable
   \   0002A8   7914         MOV     R1,#0x14
   \   0002AA   C280         CLR     0x80.0
   \   0002AC   7808         MOV     R0,#0x8
   \                     ??HalLcd_HW_Init_72:
   \   0002AE   C292         CLR     0x90.2
   \   0002B0   E9           MOV     A,R1
   \   0002B1   A2E7         MOV     C,0xE0 /* A   */.7
   \   0002B3   4004         JC      ??HalLcd_HW_Init_73
   \   0002B5   C293         CLR     0x90.3
   \   0002B7   8002         SJMP    ??HalLcd_HW_Init_74
   \                     ??HalLcd_HW_Init_73:
   \   0002B9   D293         SETB    0x90.3
   \                     ??HalLcd_HW_Init_74:
   \   0002BB   D292         SETB    0x90.2
   \   0002BD   C3           CLR     C
   \   0002BE   33           RLC     A
   \   0002BF   F9           MOV     R1,A
   \   0002C0   18           DEC     R0
   \   0002C1   E8           MOV     A,R0
   \   0002C2   70EA         JNZ     ??HalLcd_HW_Init_72
    542              LCD_WrCmd(0xa4);// Disable Entire Display On (0xa4/0xa5)
   \   0002C4   79A4         MOV     R1,#-0x5c
   \   0002C6   C280         CLR     0x80.0
   \   0002C8   7808         MOV     R0,#0x8
   \                     ??HalLcd_HW_Init_75:
   \   0002CA   C292         CLR     0x90.2
   \   0002CC   E9           MOV     A,R1
   \   0002CD   A2E7         MOV     C,0xE0 /* A   */.7
   \   0002CF   4004         JC      ??HalLcd_HW_Init_76
   \   0002D1   C293         CLR     0x90.3
   \   0002D3   8002         SJMP    ??HalLcd_HW_Init_77
   \                     ??HalLcd_HW_Init_76:
   \   0002D5   D293         SETB    0x90.3
   \                     ??HalLcd_HW_Init_77:
   \   0002D7   D292         SETB    0x90.2
   \   0002D9   C3           CLR     C
   \   0002DA   33           RLC     A
   \   0002DB   F9           MOV     R1,A
   \   0002DC   18           DEC     R0
   \   0002DD   E8           MOV     A,R0
   \   0002DE   70EA         JNZ     ??HalLcd_HW_Init_75
    543              LCD_WrCmd(0xa6);// Disable Inverse Display On (0xa6/a7) 
   \   0002E0   79A6         MOV     R1,#-0x5a
   \   0002E2   C280         CLR     0x80.0
   \   0002E4   7808         MOV     R0,#0x8
   \                     ??HalLcd_HW_Init_78:
   \   0002E6   C292         CLR     0x90.2
   \   0002E8   E9           MOV     A,R1
   \   0002E9   A2E7         MOV     C,0xE0 /* A   */.7
   \   0002EB   4004         JC      ??HalLcd_HW_Init_79
   \   0002ED   C293         CLR     0x90.3
   \   0002EF   8002         SJMP    ??HalLcd_HW_Init_80
   \                     ??HalLcd_HW_Init_79:
   \   0002F1   D293         SETB    0x90.3
   \                     ??HalLcd_HW_Init_80:
   \   0002F3   D292         SETB    0x90.2
   \   0002F5   C3           CLR     C
   \   0002F6   33           RLC     A
   \   0002F7   F9           MOV     R1,A
   \   0002F8   18           DEC     R0
   \   0002F9   E8           MOV     A,R0
   \   0002FA   70EA         JNZ     ??HalLcd_HW_Init_78
    544              LCD_WrCmd(0xaf);//--turn on oled panel
   \   0002FC   79AF         MOV     R1,#-0x51
   \   0002FE   C280         CLR     0x80.0
   \   000300   7808         MOV     R0,#0x8
   \                     ??HalLcd_HW_Init_81:
   \   000302   C292         CLR     0x90.2
   \   000304   E9           MOV     A,R1
   \   000305   A2E7         MOV     C,0xE0 /* A   */.7
   \   000307   4004         JC      ??HalLcd_HW_Init_82
   \   000309   C293         CLR     0x90.3
   \   00030B   8002         SJMP    ??HalLcd_HW_Init_83
   \                     ??HalLcd_HW_Init_82:
   \   00030D   D293         SETB    0x90.3
   \                     ??HalLcd_HW_Init_83:
   \   00030F   D292         SETB    0x90.2
   \   000311   C3           CLR     C
   \   000312   33           RLC     A
   \   000313   F9           MOV     R1,A
   \   000314   18           DEC     R0
   \   000315   E8           MOV     A,R0
   \   000316   70EA         JNZ     ??HalLcd_HW_Init_81
    545              LCD_Fill(0x00);  //初始清屏 
   \   000318                ; Setup parameters for call to function LCD_Fill
   \   000318   7900         MOV     R1,#0x0
   \   00031A   12....       LCALL   ??LCD_Fill?relay
    546              LCD_Set_Pos(0,0); 
   \   00031D                ; Setup parameters for call to function LCD_Set_Pos
   \   00031D   7A00         MOV     R2,#0x0
   \   00031F   7900         MOV     R1,#0x0
   \   000321   12....       LCALL   ??LCD_Set_Pos?relay
    547          }
   \   000324   02....       LJMP    ?Subroutine0 & 0xFFFF
   \   000327                REQUIRE P0SEL
   \   000327                REQUIRE P0DIR
   \   000327                REQUIRE P1SEL
   \   000327                REQUIRE P1DIR
   \   000327                REQUIRE _A_P1
   \   000327                REQUIRE _A_P0

   \                                 In  segment XDATA_ID, align 1, keep-with-next
   \                     `?<Initializer for F16x16>`:
   \   000000   10           DB 16
   \   000001   21           DB 33
   \   000002   86           DB 134
   \   000003   70           DB 112
   \   000004   00           DB 0
   \   000005   7E           DB 126
   \   000006   4A           DB 74
   \   000007   4A           DB 74
   \   000008   4A           DB 74
   \   000009   4A           DB 74
   \   00000A   4A           DB 74
   \   00000B   7E           DB 126
   \   00000C   00           DB 0
   \   00000D   00           DB 0
   \   00000E   00           DB 0
   \   00000F   00           DB 0
   \   000010   02           DB 2
   \   000011   FE           DB 254
   \   000012   01           DB 1
   \   000013   40           DB 64
   \   000014   7F           DB 127
   \   000015   41           DB 65
   \   000016   41           DB 65
   \   000017   7F           DB 127
   \   000018   41           DB 65
   \   000019   41           DB 65
   \   00001A   7F           DB 127
   \   00001B   41           DB 65
   \   00001C   41           DB 65
   \   00001D   7F           DB 127
   \   00001E   40           DB 64
   \   00001F   00           DB 0
   \   000020   00           DB 0
   \   000021   00           DB 0
   \   000022   FC           DB 252
   \   000023   04           DB 4
   \   000024   24           DB 36
   \   000025   24           DB 36
   \   000026   FC           DB 252
   \   000027   A5           DB 165
   \   000028   A6           DB 166
   \   000029   A4           DB 164
   \   00002A   FC           DB 252
   \   00002B   24           DB 36
   \   00002C   24           DB 36
   \   00002D   24           DB 36
   \   00002E   04           DB 4
   \   00002F   00           DB 0
   \   000030   80           DB 128
   \   000031   60           DB 96
   \   000032   1F           DB 31
   \   000033   80           DB 128
   \   000034   80           DB 128
   \   000035   42           DB 66
   \   000036   46           DB 70
   \   000037   2A           DB 42
   \   000038   12           DB 18
   \   000039   12           DB 18
   \   00003A   2A           DB 42
   \   00003B   26           DB 38
   \   00003C   42           DB 66
   \   00003D   C0           DB 192
   \   00003E   40           DB 64
   \   00003F   00           DB 0
   \   000040   00           DB 0
   \   000041   00           DB 0
   \   000042   00           DB 0
   \   000043   00           DB 0
   \   000044   00           DB 0
   \   000045   00           DB 0
   \   000046   00           DB 0
   \   000047   00           DB 0
   \   000048   00           DB 0
   \   000049   00           DB 0
   \   00004A   00           DB 0
   \   00004B   00           DB 0
   \   00004C   00           DB 0
   \   00004D   00           DB 0
   \   00004E   00           DB 0
   \   00004F   00           DB 0
   \   000050   00           DB 0
   \   000051   00           DB 0
   \   000052   36           DB 54
   \   000053   36           DB 54
   \   000054   00           DB 0
   \   000055   00           DB 0
   \   000056   00           DB 0
   \   000057   00           DB 0
   \   000058   00           DB 0
   \   000059   00           DB 0
   \   00005A   00           DB 0
   \   00005B   00           DB 0
   \   00005C   00           DB 0
   \   00005D   00           DB 0
   \   00005E   00           DB 0
   \   00005F   00           DB 0
   \   000060   10           DB 16
   \   000061   60           DB 96
   \   000062   02           DB 2
   \   000063   CC           DB 204
   \   000064   00           DB 0
   \   000065   00           DB 0
   \   000066   3E           DB 62
   \   000067   2A           DB 42
   \   000068   AA           DB 170
   \   000069   2A           DB 42
   \   00006A   AA           DB 170
   \   00006B   2A           DB 42
   \   00006C   3E           DB 62
   \   00006D   00           DB 0
   \   00006E   00           DB 0
   \   00006F   00           DB 0
   \   000070   08           DB 8
   \   000071   08           DB 8
   \   000072   FE           DB 254
   \   000073   01           DB 1
   \   000074   40           DB 64
   \   000075   42           DB 66
   \   000076   4C           DB 76
   \   000077   40           DB 64
   \   000078   7F           DB 127
   \   000079   40           DB 64
   \   00007A   7F           DB 127
   \   00007B   48           DB 72
   \   00007C   44           DB 68
   \   00007D   42           DB 66
   \   00007E   40           DB 64
   \   00007F   00           DB 0

   \                                 In  segment BANK_RELAYS, align 1
   \                     ??HalLcdInit?relay:
   \   000000   12....       LCALL   ?BDISPATCH
   \   000003   ......       DC24    HalLcdInit

   \                                 In  segment BANK_RELAYS, align 1
   \                     ??HalLcdWriteValue?relay:
   \   000000   12....       LCALL   ?BDISPATCH
   \   000003   ......       DC24    HalLcdWriteValue

   \                                 In  segment BANK_RELAYS, align 1
   \                     ??HalLcdWriteScreen?relay:
   \   000000   12....       LCALL   ?BDISPATCH
   \   000003   ......       DC24    HalLcdWriteScreen

   \                                 In  segment BANK_RELAYS, align 1
   \                     ??HalLcdWriteStringValue?relay:
   \   000000   12....       LCALL   ?BDISPATCH
   \   000003   ......       DC24    HalLcdWriteStringValue

   \                                 In  segment BANK_RELAYS, align 1
   \                     ??HalLcdWriteStringValueValue?relay:
   \   000000   12....       LCALL   ?BDISPATCH
   \   000003   ......       DC24    HalLcdWriteStringValueValue

   \                                 In  segment BANK_RELAYS, align 1
   \                     ??DelayMS?relay:
   \   000000   12....       LCALL   ?BDISPATCH
   \   000003   ......       DC24    DelayMS

   \                                 In  segment BANK_RELAYS, align 1
   \                     ??LCD_DLY_ms?relay:
   \   000000   12....       LCALL   ?BDISPATCH
   \   000003   ......       DC24    LCD_DLY_ms

   \                                 In  segment BANK_RELAYS, align 1
   \                     ??LCD_WrDat?relay:
   \   000000   12....       LCALL   ?BDISPATCH
   \   000003   ......       DC24    LCD_WrDat

   \                                 In  segment BANK_RELAYS, align 1
   \                     ??LCD_WrCmd?relay:
   \   000000   12....       LCALL   ?BDISPATCH
   \   000003   ......       DC24    LCD_WrCmd

   \                                 In  segment BANK_RELAYS, align 1
   \                     ??LCD_Set_Pos?relay:
   \   000000   12....       LCALL   ?BDISPATCH
   \   000003   ......       DC24    LCD_Set_Pos

   \                                 In  segment BANK_RELAYS, align 1
   \                     ??LCD_Fill?relay:
   \   000000   12....       LCALL   ?BDISPATCH
   \   000003   ......       DC24    LCD_Fill

   \                                 In  segment BANK_RELAYS, align 1
   \                     ??LCD_CLS?relay:
   \   000000   12....       LCALL   ?BDISPATCH
   \   000003   ......       DC24    LCD_CLS

   \                                 In  segment BANK_RELAYS, align 1
   \                     ??LcdClearLine?relay:
   \   000000   12....       LCALL   ?BDISPATCH
   \   000003   ......       DC24    LcdClearLine

   \                                 In  segment BANK_RELAYS, align 1
   \                     ??HalLcdWriteString?relay:
   \   000000   12....       LCALL   ?BDISPATCH
   \   000003   ......       DC24    HalLcdWriteString

   \                                 In  segment BANK_RELAYS, align 1
   \                     ??LCD_P8x16Str?relay:
   \   000000   12....       LCALL   ?BDISPATCH
   \   000003   ......       DC24    LCD_P8x16Str

   \                                 In  segment BANK_RELAYS, align 1
   \                     ??LCD_P16x16Ch?relay:
   \   000000   12....       LCALL   ?BDISPATCH
   \   000003   ......       DC24    LCD_P16x16Ch

   \                                 In  segment BANK_RELAYS, align 1
   \                     ??HalLcd_HW_WaitUs?relay:
   \   000000   12....       LCALL   ?BDISPATCH
   \   000003   ......       DC24    HalLcd_HW_WaitUs

   \                                 In  segment BANK_RELAYS, align 1
   \                     ??HalLcd_HW_Init?relay:
   \   000000   12....       LCALL   ?BDISPATCH
   \   000003   ......       DC24    HalLcd_HW_Init
    548          
    549          
    550          #endif

   Maximum stack usage in bytes:

     Function                    ISTACK PSTACK XSTACK
     --------                    ------ ------ ------
     DelayMS                         0      0      0
     HalLcdInit                      2      0      0
       -> HalLcd_HW_Init             4      0      0
     HalLcdWriteScreen               0      0     51
       -> osal_strlen                0      0     96
       -> osal_memset                0      0     96
       -> osal_memcpy                0      0    102
       -> LcdClearLine               0      0     96
       -> LCD_P8x16Str               0      0     96
       -> osal_strlen                0      0     96
       -> osal_memset                0      0     96
       -> osal_memcpy                0      0    102
       -> LcdClearLine               0      0     96
       -> LCD_P8x16Str               0      0     96
     HalLcdWriteString               0      0     36
       -> osal_strlen                0      0     66
       -> osal_memset                0      0     66
       -> osal_memcpy                0      0     72
       -> LcdClearLine               0      0     66
       -> LCD_P8x16Str               0      0     66
     HalLcdWriteStringValue          0      0     64
       -> osal_strlen                0      0    120
       -> osal_memcpy                0      0    126
       -> _ltoa                      0      0    124
       -> osal_strlen                0      0    120
       -> osal_memset                0      0    120
       -> osal_memcpy                0      0    126
       -> LcdClearLine               0      0    120
       -> LCD_P8x16Str               0      0    120
     HalLcdWriteStringValueValue     0      0     68
       -> osal_strlen                0      0    122
       -> osal_memcpy                0      0    128
       -> _ltoa                      0      0    126
       -> osal_strlen                0      0    122
       -> _ltoa                      0      0    126
       -> osal_strlen                0      0    122
       -> osal_memset                0      0    122
       -> osal_memcpy                0      0    128
       -> LcdClearLine               0      0    122
       -> LCD_P8x16Str               0      0    122
     HalLcdWriteValue                0      0     62
       -> _ltoa                      0      0    120
       -> osal_strlen                0      0    116
       -> osal_memset                0      0    116
       -> osal_memcpy                0      0    122
       -> LcdClearLine               0      0    116
       -> LCD_P8x16Str               0      0    116
     HalLcd_HW_Init                  2      0      0
       -> LCD_Fill                   4      0      0
       -> LCD_Set_Pos                4      0      0
     HalLcd_HW_WaitUs                0      0      0
     LCD_CLS                         0      0      0
     LCD_DLY_ms                      0      0      0
     LCD_Fill                        0      0      0
     LCD_P16x16Ch                    0      0     11
       -> LCD_Set_Pos                0      0     22
       -> LCD_Set_Pos                0      0     22
     LCD_P8x16Str                    0      0     77
       -> LCD_Set_Pos                0      0     32
       -> LCD_Set_Pos                0      0     32
     LCD_Set_Pos                     0      0     16
     LCD_WrCmd                       0      0      0
     LCD_WrDat                       0      0      0
     LcdClearLine                    0      0     71


   Segment part sizes:

     Function/Label                      Bytes
     --------------                      -----
     _A_P0                                  1
     _A_P1                                  1
     P0SEL                                  1
     P1SEL                                  1
     P0DIR                                  1
     P1DIR                                  1
     F8X16                               1520
     F16x16                               128
     HalLcdInit                             7
     ?Subroutine0                           7
     HalLcdWriteValue                     157
     ?Subroutine1                           3
     ??Subroutine2_0                        5
     HalLcdWriteScreen                    202
     HalLcdWriteStringValue               230
     HalLcdWriteStringValueValue          368
     DelayMS                                3
     LCD_DLY_ms                            19
     LCD_WrDat                             29
     LCD_WrCmd                             29
     LCD_Set_Pos                           98
     LCD_Fill                             132
     LCD_CLS                              124
     LcdClearLine                         162
     HalLcdWriteString                    119
     LCD_P8x16Str                         221
     LCD_P16x16Ch                         151
     HalLcd_HW_WaitUs                      27
     HalLcd_HW_Init                       807
     ?<Initializer for F16x16>            128
     ??HalLcdInit?relay                     6
     ??HalLcdWriteValue?relay               6
     ??HalLcdWriteScreen?relay              6
     ??HalLcdWriteStringValue?relay         6
     ??HalLcdWriteStringValueValue?relay    6
     ??DelayMS?relay                        6
     ??LCD_DLY_ms?relay                     6
     ??LCD_WrDat?relay                      6
     ??LCD_WrCmd?relay                      6
     ??LCD_Set_Pos?relay                    6
     ??LCD_Fill?relay                       6
     ??LCD_CLS?relay                        6
     ??LcdClearLine?relay                   6
     ??HalLcdWriteString?relay              6
     ??LCD_P8x16Str?relay                   6
     ??LCD_P16x16Ch?relay                   6
     ??HalLcd_HW_WaitUs?relay               6
     ??HalLcd_HW_Init?relay                 6

 
 2 900 bytes in segment BANKED_CODE
   108 bytes in segment BANK_RELAYS
     6 bytes in segment SFR_AN
   128 bytes in segment XDATA_I
   128 bytes in segment XDATA_ID
 1 520 bytes in segment XDATA_ROM_C
 
 3 136 bytes of CODE  memory
 1 520 bytes of CONST memory
     0 bytes of DATA  memory (+ 6 bytes shared)
   128 bytes of XDATA memory

Errors: none
Warnings: none
