###############################################################################
#                                                                             #
# IAR C/C++ Compiler V8.10.3.10338/W32 for 8051         23/May/2015  15:18:43 #
# Copyright 2004-2011 IAR Systems AB.                                         #
#                                                                             #
#    Core               =  plain                                              #
#    Code model         =  banked                                             #
#    Data model         =  large                                              #
#    Calling convention =  xdata reentrant                                    #
#    Constant location  =  data_rom                                           #
#    Dptr setup         =  1,16                                               #
#    Source file        =  E:\wireless-switch\demo\ZStack-CC2530-2.3.0-1.4.0\ #
#                          Components\mac\low_level\srf04\mac_rx.c            #
#    Command line       =  -f E:\wireless-switch\demo\ZStack-CC2530-2.3.0-1.4 #
#                          .0\Projects\zstack\Samples\SampleApp\CC2530DB\..\. #
#                          .\..\Tools\CC2530DB\f8wRouter.cfg (-DCPU32MHZ      #
#                          -DROOT=__near_func -DMAC_CFG_APP_PENDING_QUEUE=TRU #
#                          E -DRTR_NWK -DBLINK_LEDS) -f                       #
#                          E:\wireless-switch\demo\ZStack-CC2530-2.3.0-1.4.0\ #
#                          Projects\zstack\Samples\SampleApp\CC2530DB\..\..\. #
#                          .\Tools\CC2530DB\f8wConfig.cfg (-DSECURE=0         #
#                          -DZG_SECURE_DYNAMIC=0 -DREFLECTOR                  #
#                          -DDEFAULT_CHANLIST=0x00000800                      #
#                          -DZDAPP_CONFIG_PAN_ID=0xFFF1                       #
#                          -DNWK_START_DELAY=100 -DEXTENDED_JOINING_RANDOM_MA #
#                          SK=0x007F -DBEACON_REQUEST_DELAY=100               #
#                          -DBEACON_REQ_DELAY_MASK=0x00FF                     #
#                          -DROUTE_EXPIRY_TIME=30 -DAPSC_ACK_WAIT_DURATION_PO #
#                          LLED=3000 -DNWK_INDIRECT_MSG_TIMEOUT=7             #
#                          -DMAX_RREQ_ENTRIES=8 -DAPSC_MAX_FRAME_RETRIES=3    #
#                          -DNWK_MAX_DATA_RETRIES=2                           #
#                          -DMAX_POLL_FAILURE_RETRIES=2 -DMAX_BCAST=9         #
#                          -DAPS_MAX_GROUPS=16 -DMAX_RTG_ENTRIES=40           #
#                          -DNWK_MAX_BINDING_ENTRIES=4                        #
#                          -DMAX_BINDING_CLUSTER_IDS=4 "-DDEFAULT_KEY={0x01,  #
#                          0x03, 0x05, 0x07, 0x09, 0x0B, 0x0D, 0x0F, 0x00,    #
#                          0x02, 0x04, 0x06, 0x08, 0x0A, 0x0C, 0x0D}"         #
#                          -DMAC_MAX_FRAME_SIZE=116 "-DCONST=const __code"    #
#                          -DGENERIC=__generic -DRFD_RCVC_ALWAYS_ON=FALSE     #
#                          -DPOLL_RATE=1000 -DQUEUED_POLL_RATE=100            #
#                          -DRESPONSE_POLL_RATE=100) -DREJOIN_POLL_RATE=440   #
#                          E:\wireless-switch\demo\ZStack-CC2530-2.3.0-1.4.0\ #
#                          Components\mac\low_level\srf04\mac_rx.c -D         #
#                          ZIGBEEPRO -D ZTOOL_P1 -D MT_TASK -D MT_SYS_FUNC    #
#                          -D MT_ZDO_FUNC -D LCD_SUPPORTED=DEBUG -D           #
#                          ROUTER_ME -lC E:\wireless-switch\demo\ZStack-CC253 #
#                          0-2.3.0-1.4.0\Projects\zstack\Samples\SampleApp\CC #
#                          2530DB\RouterEB-Pro\List\ -lA                      #
#                          E:\wireless-switch\demo\ZStack-CC2530-2.3.0-1.4.0\ #
#                          Projects\zstack\Samples\SampleApp\CC2530DB\RouterE #
#                          B-Pro\List\ --diag_suppress Pe001,Pa010 -o         #
#                          E:\wireless-switch\demo\ZStack-CC2530-2.3.0-1.4.0\ #
#                          Projects\zstack\Samples\SampleApp\CC2530DB\RouterE #
#                          B-Pro\Obj\ -e --debug --core=plain --dptr=16,1     #
#                          --data_model=large --code_model=banked             #
#                          --calling_convention=xdata_reentrant               #
#                          --place_constants=data_rom --nr_virtual_regs 16    #
#                          -I E:\wireless-switch\demo\ZStack-CC2530-2.3.0-1.4 #
#                          .0\Projects\zstack\Samples\SampleApp\CC2530DB\ -I  #
#                          E:\wireless-switch\demo\ZStack-CC2530-2.3.0-1.4.0\ #
#                          Projects\zstack\Samples\SampleApp\CC2530DB\..\SOUR #
#                          CE\ -I E:\wireless-switch\demo\ZStack-CC2530-2.3.0 #
#                          -1.4.0\Projects\zstack\Samples\SampleApp\CC2530DB\ #
#                          ..\..\..\ZMAIN\TI2530DB\ -I                        #
#                          E:\wireless-switch\demo\ZStack-CC2530-2.3.0-1.4.0\ #
#                          Projects\zstack\Samples\SampleApp\CC2530DB\..\..\. #
#                          .\..\..\COMPONENTS\MT\ -I                          #
#                          E:\wireless-switch\demo\ZStack-CC2530-2.3.0-1.4.0\ #
#                          Projects\zstack\Samples\SampleApp\CC2530DB\..\..\. #
#                          .\..\..\COMPONENTS\HAL\INCLUDE\ -I                 #
#                          E:\wireless-switch\demo\ZStack-CC2530-2.3.0-1.4.0\ #
#                          Projects\zstack\Samples\SampleApp\CC2530DB\..\..\. #
#                          .\..\..\COMPONENTS\HAL\TARGET\CC2530EB\ -I         #
#                          E:\wireless-switch\demo\ZStack-CC2530-2.3.0-1.4.0\ #
#                          Projects\zstack\Samples\SampleApp\CC2530DB\..\..\. #
#                          .\..\..\COMPONENTS\OSAL\MCU\CCSOC\ -I              #
#                          E:\wireless-switch\demo\ZStack-CC2530-2.3.0-1.4.0\ #
#                          Projects\zstack\Samples\SampleApp\CC2530DB\..\..\. #
#                          .\..\..\COMPONENTS\OSAL\INCLUDE\ -I                #
#                          E:\wireless-switch\demo\ZStack-CC2530-2.3.0-1.4.0\ #
#                          Projects\zstack\Samples\SampleApp\CC2530DB\..\..\. #
#                          .\..\..\COMPONENTS\STACK\AF\ -I                    #
#                          E:\wireless-switch\demo\ZStack-CC2530-2.3.0-1.4.0\ #
#                          Projects\zstack\Samples\SampleApp\CC2530DB\..\..\. #
#                          .\..\..\COMPONENTS\STACK\NWK\ -I                   #
#                          E:\wireless-switch\demo\ZStack-CC2530-2.3.0-1.4.0\ #
#                          Projects\zstack\Samples\SampleApp\CC2530DB\..\..\. #
#                          .\..\..\COMPONENTS\STACK\SEC\ -I                   #
#                          E:\wireless-switch\demo\ZStack-CC2530-2.3.0-1.4.0\ #
#                          Projects\zstack\Samples\SampleApp\CC2530DB\..\..\. #
#                          .\..\..\COMPONENTS\STACK\SAPI\ -I                  #
#                          E:\wireless-switch\demo\ZStack-CC2530-2.3.0-1.4.0\ #
#                          Projects\zstack\Samples\SampleApp\CC2530DB\..\..\. #
#                          .\..\..\COMPONENTS\STACK\SYS\ -I                   #
#                          E:\wireless-switch\demo\ZStack-CC2530-2.3.0-1.4.0\ #
#                          Projects\zstack\Samples\SampleApp\CC2530DB\..\..\. #
#                          .\..\..\COMPONENTS\STACK\ZDO\ -I                   #
#                          E:\wireless-switch\demo\ZStack-CC2530-2.3.0-1.4.0\ #
#                          Projects\zstack\Samples\SampleApp\CC2530DB\..\..\. #
#                          .\..\..\COMPONENTS\ZMAC\F8W\ -I                    #
#                          E:\wireless-switch\demo\ZStack-CC2530-2.3.0-1.4.0\ #
#                          Projects\zstack\Samples\SampleApp\CC2530DB\..\..\. #
#                          .\..\..\COMPONENTS\ZMAC\ -I                        #
#                          E:\wireless-switch\demo\ZStack-CC2530-2.3.0-1.4.0\ #
#                          Projects\zstack\Samples\SampleApp\CC2530DB\..\..\. #
#                          .\..\..\COMPONENTS\SERVICES\SADDR\ -I              #
#                          E:\wireless-switch\demo\ZStack-CC2530-2.3.0-1.4.0\ #
#                          Projects\zstack\Samples\SampleApp\CC2530DB\..\..\. #
#                          .\..\..\COMPONENTS\SERVICES\SDATA\ -I              #
#                          E:\wireless-switch\demo\ZStack-CC2530-2.3.0-1.4.0\ #
#                          Projects\zstack\Samples\SampleApp\CC2530DB\..\..\. #
#                          .\..\..\COMPONENTS\MAC\INCLUDE\ -I                 #
#                          E:\wireless-switch\demo\ZStack-CC2530-2.3.0-1.4.0\ #
#                          Projects\zstack\Samples\SampleApp\CC2530DB\..\..\. #
#                          .\..\..\COMPONENTS\MAC\HIGH_LEVEL\ -I              #
#                          E:\wireless-switch\demo\ZStack-CC2530-2.3.0-1.4.0\ #
#                          Projects\zstack\Samples\SampleApp\CC2530DB\..\..\. #
#                          .\..\..\COMPONENTS\MAC\LOW_LEVEL\srf04\ -I         #
#                          E:\wireless-switch\demo\ZStack-CC2530-2.3.0-1.4.0\ #
#                          Projects\zstack\Samples\SampleApp\CC2530DB\..\..\. #
#                          .\..\..\COMPONENTS\MAC\LOW_LEVEL\srf04\SINGLE_CHIP #
#                          \ -Ohs --require_prototypes                        #
#    List file          =  E:\wireless-switch\demo\ZStack-CC2530-2.3.0-1.4.0\ #
#                          Projects\zstack\Samples\SampleApp\CC2530DB\RouterE #
#                          B-Pro\List\mac_rx.lst                              #
#    Object file        =  E:\wireless-switch\demo\ZStack-CC2530-2.3.0-1.4.0\ #
#                          Projects\zstack\Samples\SampleApp\CC2530DB\RouterE #
#                          B-Pro\Obj\mac_rx.r51                               #
#                                                                             #
#                                                                             #
###############################################################################

E:\wireless-switch\demo\ZStack-CC2530-2.3.0-1.4.0\Components\mac\low_level\srf04\mac_rx.c
      1          /**************************************************************************************************
      2            Filename:       mac_rx.c
      3            Revised:        $Date: 2007-10-08 14:05:36 -0700 (Mon, 08 Oct 2007) $
      4            Revision:       $Revision: 15624 $
      5          
      6            Description:    Describe the purpose and contents of the file.
      7          
      8          
      9            Copyright 2006-2009 Texas Instruments Incorporated. All rights reserved.
     10          
     11            IMPORTANT: Your use of this Software is limited to those specific rights
     12            granted under the terms of a software license agreement between the user
     13            who downloaded the software, his/her employer (which must be your employer)
     14            and Texas Instruments Incorporated (the "License").  You may not use this
     15            Software unless you agree to abide by the terms of the License. The License
     16            limits your use, and you acknowledge, that the Software may not be modified,
     17            copied or distributed unless embedded on a Texas Instruments microcontroller
     18            or used solely and exclusively in conjunction with a Texas Instruments radio
     19            frequency transceiver, which is integrated into your product.  Other than for
     20            the foregoing purpose, you may not use, reproduce, copy, prepare derivative
     21            works of, modify, distribute, perform, display or sell this Software and/or
     22            its documentation for any purpose.
     23          
     24            YOU FURTHER ACKNOWLEDGE AND AGREE THAT THE SOFTWARE AND DOCUMENTATION ARE
     25            PROVIDED “AS IS” WITHOUT WARRANTY OF ANY KIND, EITHER EXPRESS OR IMPLIED,
     26            INCLUDING WITHOUT LIMITATION, ANY WARRANTY OF MERCHANTABILITY, TITLE,
     27            NON-INFRINGEMENT AND FITNESS FOR A PARTICULAR PURPOSE. IN NO EVENT SHALL
     28            TEXAS INSTRUMENTS OR ITS LICENSORS BE LIABLE OR OBLIGATED UNDER CONTRACT,
     29            NEGLIGENCE, STRICT LIABILITY, CONTRIBUTION, BREACH OF WARRANTY, OR OTHER
     30            LEGAL EQUITABLE THEORY ANY DIRECT OR INDIRECT DAMAGES OR EXPENSES
     31            INCLUDING BUT NOT LIMITED TO ANY INCIDENTAL, SPECIAL, INDIRECT, PUNITIVE
     32            OR CONSEQUENTIAL DAMAGES, LOST PROFITS OR LOST DATA, COST OF PROCUREMENT
     33            OF SUBSTITUTE GOODS, TECHNOLOGY, SERVICES, OR ANY CLAIMS BY THIRD PARTIES
     34            (INCLUDING BUT NOT LIMITED TO ANY DEFENSE THEREOF), OR OTHER SIMILAR COSTS.
     35          
     36            Should you have any questions regarding your right to use this Software,
     37            contact Texas Instruments Incorporated at www.TI.com.
     38          **************************************************************************************************/
     39          
     40          /* ------------------------------------------------------------------------------------------------
     41           *                                          Includes
     42           * ------------------------------------------------------------------------------------------------
     43           */
     44          
     45          /* hal */
     46          #include "hal_defs.h"
     47          #include "hal_types.h"
     48          
     49          /* high-level */
     50          #include "mac_high_level.h"
     51          #include "mac_spec.h"
     52          
     53          /* exported low-level */
     54          #include "mac_low_level.h"
     55          
     56          /* low-level specific */
     57          #include "mac_rx.h"
     58          #include "mac_tx.h"
     59          #include "mac_rx_onoff.h"
     60          #include "mac_radio.h"
     61          
     62          /* target specific */
     63          #include "mac_radio_defs.h"

   \                                 In  segment SFR_AN, at 0x91
   \   unsigned char volatile __sfr RFIRQF1
   \                     RFIRQF1:
   \   000000                DS 1

   \                                 In  segment SFR_AN, at 0x9b
   \   unsigned char volatile __sfr S1CON
   \                     S1CON:
   \   000000                DS 1

   \                                 In  segment SFR_AN, at 0xa8
   \   union <unnamed> volatile __sfr _A_IEN0
   \                     _A_IEN0:
   \   000000                DS 1

   \                                 In  segment SFR_AN, at 0xe1
   \   unsigned char volatile __sfr RFST
   \                     RFST:
   \   000000                DS 1

   \                                 In  segment SFR_AN, at 0xe9
   \   unsigned char volatile __sfr RFIRQF0
   \                     RFIRQF0:
   \   000000                DS 1
     64          #include "mac_autopend.h"
     65          
     66          /* debug */
     67          #include "mac_assert.h"
     68          
     69          
     70          /* ------------------------------------------------------------------------------------------------
     71           *                                            Defines
     72           * ------------------------------------------------------------------------------------------------
     73           */
     74          #define MAX_PAYLOAD_BYTES_READ_PER_INTERRUPT   16   /* adjustable to tune performance */
     75          
     76          /* receive FIFO bytes needed to start a valid receive (see function rxStartIsr for details) */
     77          #define RX_THRESHOLD_START_LEN    (MAC_PHY_PHR_LEN        +  \
     78                                             MAC_FCF_FIELD_LEN      +  \
     79                                             MAC_SEQ_NUM_FIELD_LEN  +  \
     80                                             MAC_FCS_FIELD_LEN)
     81          
     82          /* maximum size of addressing fields (note: command frame identifier processed as part of address) */
     83          #define MAX_ADDR_FIELDS_LEN  ((MAC_EXT_ADDR_FIELD_LEN + MAC_PAN_ID_FIELD_LEN) * 2)
     84          
     85          /* addressing mode reserved value */
     86          #define ADDR_MODE_RESERVERED  1
     87          
     88          /* length of command frame identifier */
     89          #define CMD_FRAME_ID_LEN      1
     90          
     91          /* packet size mask is equal to the maximum value */
     92          #define PHY_PACKET_SIZE_MASK  0x7F
     93          
     94          /* value for promiscuous off, must not conflict with other mode variants from separate include files */
     95          #define PROMISCUOUS_MODE_OFF  0x00
     96          
     97          /* bit of proprietary FCS format that indicates if the CRC is OK */
     98          #define PROPRIETARY_FCS_CRC_OK_BIT  0x80
     99          
    100          /* dummy length value for unused entry in lookup table */
    101          #define DUMMY_LEN   0xBE
    102          
    103          /* value for rxThresholdIntState */
    104          #define RX_THRESHOLD_INT_STATE_INACTIVE   0
    105          #define RX_THRESHOLD_INT_STATE_ACTIVE     1
    106          #define RX_THRESHOLD_INT_STATE_RESET      2
    107          
    108          
    109          /* ------------------------------------------------------------------------------------------------
    110           *                                             Macros
    111           * ------------------------------------------------------------------------------------------------
    112           */
    113          #define MEM_ALLOC(x)   macDataRxMemAlloc(x)
    114          #define MEM_FREE(x)    macDataRxMemFree((uint8 **)x)
    115          
    116          /*
    117           *  Macro for encoding frame control information into internal flags format.
    118           *  Parameter is pointer to the frame.  NOTE!  If either the internal frame
    119           *  format *or* the specification changes, this macro will need to be modified.
    120           */
    121          #define INTERNAL_FCF_FLAGS(p)  ((((p)[1] >> 4) & 0x03) | ((p)[0] & 0x78))
    122          
    123          /*
    124           *  The radio replaces the actual FCS with different information.  This proprietary FCS is
    125           *  the same length as the original and includes:
    126           *    1) the RSSI value
    127           *    2) the average correlation value (used for LQI)
    128           *    3) a CRC passed bit
    129           *
    130           *  These macros decode the proprietary FCS.  The macro parameter is a pointer to the two byte FCS.
    131           */
    132          #define PROPRIETARY_FCS_RSSI(p)                 ((int8)((p)[0]))
    133          #define PROPRIETARY_FCS_CRC_OK(p)               ((p)[1] & PROPRIETARY_FCS_CRC_OK_BIT)
    134          #define PROPRIETARY_FCS_CORRELATION_VALUE(p)    ((p)[1] & ~PROPRIETARY_FCS_CRC_OK_BIT)
    135          
    136          
    137          /* ------------------------------------------------------------------------------------------------
    138           *                                       Global Variables
    139           * ------------------------------------------------------------------------------------------------
    140           */

   \                                 In  segment XDATA_Z, align 1, keep-with-next
    141          uint8 macRxActive;
   \                     macRxActive:
   \   000000                DS 1
   \   000001                REQUIRE __INIT_XDATA_Z

   \                                 In  segment XDATA_Z, align 1, keep-with-next
    142          uint8 macRxFilter;
   \                     macRxFilter:
   \   000000                DS 1
   \   000001                REQUIRE __INIT_XDATA_Z

   \                                 In  segment XDATA_Z, align 1, keep-with-next
    143          uint8 macRxOutgoingAckFlag;
   \                     macRxOutgoingAckFlag:
   \   000000                DS 1
   \   000001                REQUIRE __INIT_XDATA_Z
    144          
    145          
    146          /* ------------------------------------------------------------------------------------------------
    147           *                                       Local Constants
    148           * ------------------------------------------------------------------------------------------------
    149           */

   \                                 In  segment CODE_C, align 1
    150          static const uint8 CODE macRxAddrLen[] =
   \                     macRxAddrLen:
   \   000000   00           DB 0
   \   000001   BE           DB 190
   \   000002   04           DB 4
   \   000003   0A           DB 10
    151          {
    152            0,                                                /* no address */
    153            DUMMY_LEN,                                        /* reserved */
    154            MAC_PAN_ID_FIELD_LEN + MAC_SHORT_ADDR_FIELD_LEN,  /* short address + pan id */
    155            MAC_PAN_ID_FIELD_LEN + MAC_EXT_ADDR_FIELD_LEN     /* extended address + pan id */
    156          };
    157          
    158          
    159          /* ------------------------------------------------------------------------------------------------
    160           *                                       Local Prototypes
    161           * ------------------------------------------------------------------------------------------------
    162           */
    163          static void rxHaltCleanupFinalStep(void);
    164          
    165          static void rxStartIsr(void);
    166          static void rxAddrIsr(void);
    167          static void rxPayloadIsr(void);
    168          static void rxDiscardIsr(void);
    169          static void rxFcsIsr(void);
    170          
    171          static void rxPrepPayload(void);
    172          static void rxDiscardFrame(void);
    173          static void rxDone(void);
    174          static void rxPostRxUpdates(void);
    175          
    176          
    177          /* ------------------------------------------------------------------------------------------------
    178           *                                         Local Variables
    179           * ------------------------------------------------------------------------------------------------
    180           */

   \                                 In  segment XDATA_Z, align 1, keep-with-next
    181          static void    (* pFuncRxState)(void);
   \                     pFuncRxState:
   \   000000                DS 2
   \   000002                REQUIRE __INIT_XDATA_Z

   \                                 In  segment XDATA_Z, align 1, keep-with-next
    182          static macRx_t  * pRxBuf;
   \                     pRxBuf:
   \   000000                DS 2
   \   000002                REQUIRE __INIT_XDATA_Z
    183          

   \                                 In  segment XDATA_Z, align 1, keep-with-next
    184          static uint8  rxBuf[MAC_PHY_PHR_LEN + MAC_FCF_FIELD_LEN + MAC_SEQ_NUM_FIELD_LEN];
   \                     rxBuf:
   \   000000                DS 4
   \   000004                REQUIRE __INIT_XDATA_Z

   \                                 In  segment XDATA_Z, align 1, keep-with-next
    185          static uint8  rxUnreadLen;
   \                     rxUnreadLen:
   \   000000                DS 1
   \   000001                REQUIRE __INIT_XDATA_Z

   \                                 In  segment XDATA_Z, align 1, keep-with-next
    186          static uint8  rxNextLen;
   \                     rxNextLen:
   \   000000                DS 1
   \   000001                REQUIRE __INIT_XDATA_Z

   \                                 In  segment XDATA_Z, align 1, keep-with-next
    187          static uint8  rxPayloadLen;
   \                     rxPayloadLen:
   \   000000                DS 1
   \   000001                REQUIRE __INIT_XDATA_Z

   \                                 In  segment XDATA_Z, align 1, keep-with-next
    188          static uint8  rxFilter;
   \                     rxFilter:
   \   000000                DS 1
   \   000001                REQUIRE __INIT_XDATA_Z

   \                                 In  segment XDATA_Z, align 1, keep-with-next
    189          static uint8  rxPromiscuousMode;
   \                     rxPromiscuousMode:
   \   000000                DS 1
   \   000001                REQUIRE __INIT_XDATA_Z

   \                                 In  segment XDATA_Z, align 1, keep-with-next
    190          static uint8  rxIsrActiveFlag;
   \                     rxIsrActiveFlag:
   \   000000                DS 1
   \   000001                REQUIRE __INIT_XDATA_Z

   \                                 In  segment XDATA_Z, align 1, keep-with-next
    191          static uint8  rxResetFlag;
   \                     rxResetFlag:
   \   000000                DS 1
   \   000001                REQUIRE __INIT_XDATA_Z

   \                                 In  segment XDATA_Z, align 1, keep-with-next
    192          static uint8  rxFifoOverflowCount;
   \                     rxFifoOverflowCount:
   \   000000                DS 1
   \   000001                REQUIRE __INIT_XDATA_Z
    193          
    194          
    195          /**************************************************************************************************
    196           * @fn          macRxInit
    197           *
    198           * @brief       Initialize receive variable states.
    199           *
    200           * @param       none
    201           *
    202           * @return      none
    203           **************************************************************************************************
    204           */

   \                                 In  segment BANKED_CODE, align 1, keep-with-next
    205          MAC_INTERNAL_API void macRxInit(void)
   \                     macRxInit:
    206          {
   \   000000   C082         PUSH    DPL
   \   000002   C083         PUSH    DPH
   \   000004                ; Saved register size: 2
   \   000004                ; Auto size: 0
    207            macRxFilter          = RX_FILTER_OFF;
   \   000004   90....       MOV     DPTR,#macRxFilter
   \   000007   E4           CLR     A
   \   000008   F0           MOVX    @DPTR,A
    208            rxPromiscuousMode    = PROMISCUOUS_MODE_OFF;
   \   000009   90....       MOV     DPTR,#rxPromiscuousMode
   \   00000C   F0           MOVX    @DPTR,A
    209            pRxBuf               = NULL; /* required for macRxReset() to function correctly */
   \   00000D   90....       MOV     DPTR,#pRxBuf
   \   000010   F0           MOVX    @DPTR,A
   \   000011   A3           INC     DPTR
   \   000012   F0           MOVX    @DPTR,A
    210            macRxActive          = MAC_RX_ACTIVE_NO_ACTIVITY;
   \   000013   90....       MOV     DPTR,#macRxActive
   \   000016   F0           MOVX    @DPTR,A
    211            pFuncRxState         = &rxStartIsr;
   \   000017   90....       MOV     DPTR,#pFuncRxState
   \   00001A   74..         MOV     A,#??rxStartIsr?relay & 0xff
   \   00001C   F0           MOVX    @DPTR,A
   \   00001D   A3           INC     DPTR
   \   00001E   74..         MOV     A,#(??rxStartIsr?relay >> 8) & 0xff
   \   000020   F0           MOVX    @DPTR,A
    212            macRxOutgoingAckFlag = 0;
   \   000021   90....       MOV     DPTR,#macRxOutgoingAckFlag
   \   000024   E4           CLR     A
   \   000025   F0           MOVX    @DPTR,A
    213            rxIsrActiveFlag      = 0;
   \   000026   90....       MOV     DPTR,#rxIsrActiveFlag
   \   000029   F0           MOVX    @DPTR,A
    214            rxResetFlag          = 0;
   \   00002A   90....       MOV     DPTR,#rxResetFlag
   \   00002D   F0           MOVX    @DPTR,A
    215            rxFifoOverflowCount  = 0;
   \   00002E   90....       MOV     DPTR,#rxFifoOverflowCount
   \   000031   02....       LJMP    ?Subroutine0 & 0xFFFF
    216          }

   \                                 In  segment BANKED_CODE, align 1, keep-with-next
   \                     ?Subroutine0:
   \   000000   F0           MOVX    @DPTR,A
   \   000001                REQUIRE ??Subroutine2_0
   \   000001                ; // Fall through to label ??Subroutine2_0

   \                                 In  segment BANKED_CODE, align 1, keep-with-next
   \                     ??Subroutine2_0:
   \   000000   D083         POP     DPH
   \   000002   D082         POP     DPL
   \   000004   02....       LJMP    ?BRET
    217          
    218          
    219          /**************************************************************************************************
    220           * @fn          macRxRadioPowerUpInit
    221           *
    222           * @brief       Initialization for after radio first powers up.
    223           *
    224           * @param       none
    225           *
    226           * @return      none
    227           **************************************************************************************************
    228           */

   \                                 In  segment BANKED_CODE, align 1, keep-with-next
    229          MAC_INTERNAL_API void macRxRadioPowerUpInit(void)
   \                     macRxRadioPowerUpInit:
    230          {
   \   000000   C082         PUSH    DPL
   \   000002   C083         PUSH    DPH
   \   000004                ; Saved register size: 2
   \   000004                ; Auto size: 0
    231            /* set threshold at initial value */
    232            MAC_RADIO_SET_RX_THRESHOLD(RX_THRESHOLD_START_LEN);
   \   000004   906194       MOV     DPTR,#0x6194
   \   000007   7405         MOV     A,#0x5
   \   000009   F0           MOVX    @DPTR,A
    233          
    234            /* clear any accidental threshold interrupt that happened as part of power up sequence */
    235            MAC_RADIO_CLEAR_RX_THRESHOLD_INTERRUPT_FLAG();
   \   00000A   E5A8         MOV     A,0xa8
   \   00000C   C2AF         CLR     0xa8.7
   \   00000E   759B00       MOV     0x9b,#0x0
   \   000011   75E9FB       MOV     0xe9,#-0x5
   \   000014   A2E7         MOV     C,0xE0 /* A   */.7
   \   000016   92AF         MOV     0xa8.7,C
    236          
    237            /* enable threshold interrupts */
    238            MAC_RADIO_ENABLE_RX_THRESHOLD_INTERRUPT();
   \   000018   9061A3       MOV     DPTR,#0x61a3
   \   00001B   E0           MOVX    A,@DPTR
   \   00001C   D2E2         SETB    0xE0 /* A   */.2
   \   00001E   02....       LJMP    ?Subroutine0 & 0xFFFF
   \   000021                REQUIRE _A_IEN0
   \   000021                REQUIRE S1CON
   \   000021                REQUIRE RFIRQF0
    239          }
    240          
    241          
    242          /**************************************************************************************************
    243           * @fn          macRxTxReset
    244           *
    245           * @brief       Reset the receive state.
    246           *
    247           * @param       none
    248           *
    249           * @return      none
    250           **************************************************************************************************
    251           */

   \                                 In  segment BANKED_CODE, align 1, keep-with-next
    252          MAC_INTERNAL_API void macRxTxReset(void)
   \                     macRxTxReset:
    253          {
   \   000000   C082         PUSH    DPL
   \   000002   C083         PUSH    DPH
   \   000004                ; Saved register size: 2
   \   000004                ; Auto size: 0
    254            /* forces receiver off, cleans up by calling macRxHaltCleanup() and macTxHaltCleanup() */
    255            macRxHardDisable();
   \   000004                ; Setup parameters for call to function macRxHardDisable
   \   000004   12....       LCALL   ??macRxHardDisable?relay
    256          
    257            /*
    258             *   Note : transmit does not require any reset logic
    259             *          beyond what macRxHardDisable() provides.
    260             */
    261          
    262            /* restore deault filter mode to off */
    263            macRxFilter = RX_FILTER_OFF;
   \   000007   90....       MOV     DPTR,#macRxFilter
   \   00000A   E4           CLR     A
   \   00000B   F0           MOVX    @DPTR,A
    264          
    265            /* return promiscuous mode to default off state */
    266            macRxPromiscuousMode(MAC_PROMISCUOUS_MODE_OFF);
   \   00000C   90....       MOV     DPTR,#rxPromiscuousMode
   \   00000F   F0           MOVX    @DPTR,A
   \   000010   906180       MOV     DPTR,#0x6180
   \   000013   E0           MOVX    A,@DPTR
   \   000014   D2E0         SETB    0xE0 /* A   */.0
   \   000016   80..         SJMP    ?Subroutine0
    267          }
    268          
    269          
    270          /**************************************************************************************************
    271           * @fn          macRxHaltCleanup
    272           *
    273           * @brief       Cleanup up the receive logic after receiver is forced off.
    274           *
    275           * @param       none
    276           *
    277           * @return      none
    278           **************************************************************************************************
    279           */

   \                                 In  segment BANKED_CODE, align 1, keep-with-next
    280          MAC_INTERNAL_API void macRxHaltCleanup(void)
   \                     macRxHaltCleanup:
    281          {
   \   000000   C082         PUSH    DPL
   \   000002   C083         PUSH    DPH
   \   000004                ; Saved register size: 2
   \   000004                ; Auto size: 0
    282            rxResetFlag = 1;
   \   000004   90....       MOV     DPTR,#rxResetFlag
   \   000007   7401         MOV     A,#0x1
   \   000009   F0           MOVX    @DPTR,A
    283            if (!rxIsrActiveFlag)
   \   00000A   90....       MOV     DPTR,#rxIsrActiveFlag
   \   00000D   E0           MOVX    A,@DPTR
   \   00000E   7068         JNZ     ??macRxHaltCleanup_0
    284            {
    285              rxHaltCleanupFinalStep();
   \   000010   9061A4       MOV     DPTR,#0x61a4
   \   000013   E0           MOVX    A,@DPTR
   \   000014   C2E0         CLR     0xE0 /* A   */.0
   \   000016   F0           MOVX    @DPTR,A
   \   000017   906194       MOV     DPTR,#0x6194
   \   00001A   7405         MOV     A,#0x5
   \   00001C   F0           MOVX    @DPTR,A
   \   00001D   75E1ED       MOV     0xe1,#-0x13
   \   000020   75E1ED       MOV     0xe1,#-0x13
   \   000023   E5A8         MOV     A,0xa8
   \   000025   C2AF         CLR     0xa8.7
   \   000027   759B00       MOV     0x9b,#0x0
   \   00002A   75E9FB       MOV     0xe9,#-0x5
   \   00002D   A2E7         MOV     C,0xE0 /* A   */.7
   \   00002F   92AF         MOV     0xa8.7,C
   \   000031   90....       MOV     DPTR,#pRxBuf
   \   000034   E0           MOVX    A,@DPTR
   \   000035   F8           MOV     R0,A
   \   000036   A3           INC     DPTR
   \   000037   E0           MOVX    A,@DPTR
   \   000038   F9           MOV     R1,A
   \   000039   E8           MOV     A,R0
   \   00003A   49           ORL     A,R1
   \   00003B   6007         JZ      ??macRxHaltCleanup_1
   \   00003D                ; Setup parameters for call to function macDataRxMemFree
   \   00003D   7A..         MOV     R2,#pRxBuf & 0xff
   \   00003F   7B..         MOV     R3,#(pRxBuf >> 8) & 0xff
   \   000041   12....       LCALL   ??macDataRxMemFree?relay
   \                     ??macRxHaltCleanup_1:
   \   000044   90....       MOV     DPTR,#pRxBuf
   \   000047   E4           CLR     A
   \   000048   F0           MOVX    @DPTR,A
   \   000049   A3           INC     DPTR
   \   00004A   F0           MOVX    @DPTR,A
   \   00004B   90....       MOV     DPTR,#pFuncRxState
   \   00004E   74..         MOV     A,#??rxStartIsr?relay & 0xff
   \   000050   F0           MOVX    @DPTR,A
   \   000051   A3           INC     DPTR
   \   000052   74..         MOV     A,#(??rxStartIsr?relay >> 8) & 0xff
   \   000054   F0           MOVX    @DPTR,A
   \   000055   90....       MOV     DPTR,#macRxActive
   \   000058   E0           MOVX    A,@DPTR
   \   000059   7006         JNZ     ??macRxHaltCleanup_2
   \   00005B   90....       MOV     DPTR,#macRxOutgoingAckFlag
   \   00005E   E0           MOVX    A,@DPTR
   \   00005F   6012         JZ      ??macRxHaltCleanup_3
   \                     ??macRxHaltCleanup_2:
   \   000061   90....       MOV     DPTR,#macRxActive
   \   000064   E4           CLR     A
   \   000065   F0           MOVX    @DPTR,A
   \   000066   90....       MOV     DPTR,#macRxOutgoingAckFlag
   \   000069   F0           MOVX    @DPTR,A
   \   00006A                ; Setup parameters for call to function macRxOffRequest
   \   00006A   12....       LCALL   ??macRxOffRequest?relay
   \   00006D                ; Setup parameters for call to function macRadioUpdateTxPower
   \   00006D   12....       LCALL   ??macRadioUpdateTxPower?relay
   \   000070                ; Setup parameters for call to function macTxStartQueuedFrame
   \   000070   12....       LCALL   ??macTxStartQueuedFrame?relay
    286              rxResetFlag = 0;
   \                     ??macRxHaltCleanup_3:
   \   000073   90....       MOV     DPTR,#rxResetFlag
   \   000076   E4           CLR     A
   \   000077   F0           MOVX    @DPTR,A
    287            }
    288          }
   \                     ??macRxHaltCleanup_0:
   \   000078   80..         SJMP    ??Subroutine2_0
   \   00007A                REQUIRE RFST
   \   00007A                REQUIRE _A_IEN0
   \   00007A                REQUIRE S1CON
   \   00007A                REQUIRE RFIRQF0
    289          
    290          
    291          /*=================================================================================================
    292           * @fn          rxHaltCleanupFinalStep
    293           *
    294           * @brief       Required cleanup if receiver is halted in the middle of a receive.
    295           *
    296           * @param       none
    297           *
    298           * @return      none
    299           *=================================================================================================
    300           */
    301          static void rxHaltCleanupFinalStep(void)
    302          {
    303            /* cancel any upcoming ACK transmit complete callback */
    304            MAC_RADIO_CANCEL_ACK_TX_DONE_CALLBACK();
    305          
    306            /* set start of frame threshold */
    307            MAC_RADIO_SET_RX_THRESHOLD(RX_THRESHOLD_START_LEN);
    308          
    309            /* flush the receive FIFO */
    310            MAC_RADIO_FLUSH_RX_FIFO();
    311          
    312            /* clear any receive interrupt that happened to squeak through */
    313            MAC_RADIO_CLEAR_RX_THRESHOLD_INTERRUPT_FLAG();
    314          
    315            /* if data buffer has been allocated, free it */
    316            if (pRxBuf != NULL)
    317            {
    318              MEM_FREE((uint8 **)&pRxBuf);
    319            }
    320            pRxBuf = NULL; /* needed to indicate buffer is no longer allocated */
    321          
    322            pFuncRxState = &rxStartIsr;
    323          
    324            /* if receive was active, perform the post receive updates */
    325            if (macRxActive || macRxOutgoingAckFlag)
    326            {
    327              macRxActive = MAC_RX_ACTIVE_NO_ACTIVITY;
    328              macRxOutgoingAckFlag = 0;
    329          
    330              rxPostRxUpdates();
    331            }
    332          }
    333          
    334          
    335          /**************************************************************************************************
    336           * @fn          macRxThresholdIsr
    337           *
    338           * @brief       Interrupt service routine called when bytes in FIFO reach threshold value.
    339           *              It implements a state machine for receiving a packet.
    340           *
    341           * @param       none
    342           *
    343           * @return      none
    344           **************************************************************************************************
    345           */

   \                                 In  segment BANKED_CODE, align 1, keep-with-next
    346          MAC_INTERNAL_API void macRxThresholdIsr(void)
   \                     macRxThresholdIsr:
    347          {
   \   000000   C082         PUSH    DPL
   \   000002   C083         PUSH    DPH
   \   000004                ; Saved register size: 2
   \   000004                ; Auto size: 0
    348            /* if currently reseting, do not execute receive ISR logic */
    349            if (rxResetFlag)
   \   000004   90....       MOV     DPTR,#rxResetFlag
   \   000007   E0           MOVX    A,@DPTR
   \   000008   6003         JZ      $+5
   \   00000A   02....       LJMP    ??macRxThresholdIsr_0 & 0xFFFF
    350            {
    351              return;
    352            }
    353          
    354            /*
    355             *  Call the function that handles the current receive state.
    356             *  A flag is set for the duration of the call to indicate
    357             *  the ISR is executing.  This is necessary for the reset
    358             *  logic so it does not perform a reset in the middle of
    359             *  executing the ISR.
    360             */
    361            rxIsrActiveFlag = 1;
   \   00000D   90....       MOV     DPTR,#rxIsrActiveFlag
   \   000010   7401         MOV     A,#0x1
   \   000012   F0           MOVX    @DPTR,A
    362            (*pFuncRxState)();
   \   000013                ; Setup parameters for indirect call
   \   000013   90....       MOV     DPTR,#pFuncRxState
   \   000016   E0           MOVX    A,@DPTR
   \   000017   F8           MOV     R0,A
   \   000018   A3           INC     DPTR
   \   000019   E0           MOVX    A,@DPTR
   \   00001A   F583         MOV     DPH,A
   \   00001C   8882         MOV     DPL,R0
   \   00001E   12....       LCALL   ?CALL_IND
    363            rxIsrActiveFlag = 0;
   \   000021   90....       MOV     DPTR,#rxIsrActiveFlag
   \   000024   E4           CLR     A
   \   000025   F0           MOVX    @DPTR,A
    364          
    365            /* if a reset occurred during the ISR, peform cleanup here */
    366            if (rxResetFlag)
   \   000026   90....       MOV     DPTR,#rxResetFlag
   \   000029   E0           MOVX    A,@DPTR
   \   00002A   6068         JZ      ??macRxThresholdIsr_0
    367            {
    368              rxHaltCleanupFinalStep();
   \   00002C   9061A4       MOV     DPTR,#0x61a4
   \   00002F   E0           MOVX    A,@DPTR
   \   000030   C2E0         CLR     0xE0 /* A   */.0
   \   000032   F0           MOVX    @DPTR,A
   \   000033   906194       MOV     DPTR,#0x6194
   \   000036   7405         MOV     A,#0x5
   \   000038   F0           MOVX    @DPTR,A
   \   000039   75E1ED       MOV     0xe1,#-0x13
   \   00003C   75E1ED       MOV     0xe1,#-0x13
   \   00003F   E5A8         MOV     A,0xa8
   \   000041   C2AF         CLR     0xa8.7
   \   000043   759B00       MOV     0x9b,#0x0
   \   000046   75E9FB       MOV     0xe9,#-0x5
   \   000049   A2E7         MOV     C,0xE0 /* A   */.7
   \   00004B   92AF         MOV     0xa8.7,C
   \   00004D   90....       MOV     DPTR,#pRxBuf
   \   000050   E0           MOVX    A,@DPTR
   \   000051   F8           MOV     R0,A
   \   000052   A3           INC     DPTR
   \   000053   E0           MOVX    A,@DPTR
   \   000054   F9           MOV     R1,A
   \   000055   E8           MOV     A,R0
   \   000056   49           ORL     A,R1
   \   000057   6007         JZ      ??macRxThresholdIsr_1
   \   000059                ; Setup parameters for call to function macDataRxMemFree
   \   000059   7A..         MOV     R2,#pRxBuf & 0xff
   \   00005B   7B..         MOV     R3,#(pRxBuf >> 8) & 0xff
   \   00005D   12....       LCALL   ??macDataRxMemFree?relay
   \                     ??macRxThresholdIsr_1:
   \   000060   90....       MOV     DPTR,#pRxBuf
   \   000063   E4           CLR     A
   \   000064   F0           MOVX    @DPTR,A
   \   000065   A3           INC     DPTR
   \   000066   F0           MOVX    @DPTR,A
   \   000067   90....       MOV     DPTR,#pFuncRxState
   \   00006A   74..         MOV     A,#??rxStartIsr?relay & 0xff
   \   00006C   F0           MOVX    @DPTR,A
   \   00006D   A3           INC     DPTR
   \   00006E   74..         MOV     A,#(??rxStartIsr?relay >> 8) & 0xff
   \   000070   F0           MOVX    @DPTR,A
   \   000071   90....       MOV     DPTR,#macRxActive
   \   000074   E0           MOVX    A,@DPTR
   \   000075   7006         JNZ     ??macRxThresholdIsr_2
   \   000077   90....       MOV     DPTR,#macRxOutgoingAckFlag
   \   00007A   E0           MOVX    A,@DPTR
   \   00007B   6012         JZ      ??macRxThresholdIsr_3
   \                     ??macRxThresholdIsr_2:
   \   00007D   90....       MOV     DPTR,#macRxActive
   \   000080   E4           CLR     A
   \   000081   F0           MOVX    @DPTR,A
   \   000082   90....       MOV     DPTR,#macRxOutgoingAckFlag
   \   000085   F0           MOVX    @DPTR,A
   \   000086                ; Setup parameters for call to function macRxOffRequest
   \   000086   12....       LCALL   ??macRxOffRequest?relay
   \   000089                ; Setup parameters for call to function macRadioUpdateTxPower
   \   000089   12....       LCALL   ??macRadioUpdateTxPower?relay
   \   00008C                ; Setup parameters for call to function macTxStartQueuedFrame
   \   00008C   12....       LCALL   ??macTxStartQueuedFrame?relay
    369              rxResetFlag = 0;
   \                     ??macRxThresholdIsr_3:
   \   00008F   90....       MOV     DPTR,#rxResetFlag
   \   000092   E4           CLR     A
   \   000093   F0           MOVX    @DPTR,A
    370            }
   \                     ??macRxThresholdIsr_0:
   \   000094   02....       LJMP    ??Subroutine2_0 & 0xFFFF
   \   000097                REQUIRE RFST
   \   000097                REQUIRE _A_IEN0
   \   000097                REQUIRE S1CON
   \   000097                REQUIRE RFIRQF0
    371          }
    372          
    373          
    374          /*=================================================================================================
    375           * @fn          rxStartIsr
    376           *
    377           * @brief       First ISR state for receiving a packet - compute packet length, allocate
    378           *              buffer, initialize buffer.  Acknowledgements are handled immediately without
    379           *              allocating a buffer.
    380           *
    381           * @param       none
    382           *
    383           * @return      none
    384           *=================================================================================================
    385           */

   \                                 In  segment BANKED_CODE, align 1, keep-with-next
    386          static void rxStartIsr(void)
   \                     rxStartIsr:
    387          {
   \   000000   74F0         MOV     A,#-0x10
   \   000002   12....       LCALL   ?BANKED_ENTER_XDATA
   \   000005                ; Saved register size: 16
   \   000005                ; Auto size: 2
   \   000005   74FE         MOV     A,#-0x2
   \   000007   12....       LCALL   ?ALLOC_XSTACK8
    388            uint8  addrLen;
    389            uint8  ackWithPending;
    390            uint8  dstAddrMode;
    391            uint8  srcAddrMode;
    392          
    393            MAC_ASSERT(!macRxActive); /* receive on top of receive */
   \   00000A   90....       MOV     DPTR,#macRxActive
   \   00000D   E0           MOVX    A,@DPTR
   \   00000E   6003         JZ      ??rxStartIsr_0
   \   000010                ; Setup parameters for call to function halAssertHandler
   \   000010   12....       LCALL   ??halAssertHandler?relay
    394          
    395            /* indicate rx is active */
    396            macRxActive = MAC_RX_ACTIVE_STARTED;
   \                     ??rxStartIsr_0:
   \   000013   90....       MOV     DPTR,#macRxActive
   \   000016   7481         MOV     A,#-0x7f
   \   000018   F0           MOVX    @DPTR,A
    397          
    398            /*
    399             *  For bullet proof functionality, need to see if the receiver was just turned off.
    400             *  The logic to request turning off the receiver, disables interrupts and then checks
    401             *  the value of macRxActive.  If it is TRUE, the receiver will not be turned off.
    402             *
    403             *  There is a small hole though.  It's possible to attempt turning off the receiver
    404             *  in the window from when the receive interrupt fires and the point where macRxActive
    405             *  is set to TRUE.  To plug this hole, the on/off status must be tested *after*
    406             *  macRxActive has been set.  If the receiver is off at this point, there is nothing
    407             *  in the RX fifo and the receive is simply aborted.
    408             *
    409             *  Also, there are some considerations in case a hard disable just happened.  Usually,
    410             *  the receiver will just be off at this point after a hard disable.  The check described
    411             *  above will account for this case too.  However, if a hard disable were immediately
    412             *  followed by an enable, the receiver would be on.  To catch this case, the receive
    413             *  FIFO is also tested to see if it is empty.  Recovery is identical to the other cases.
    414             */
    415            if (!macRxOnFlag || MAC_RADIO_RX_FIFO_IS_EMPTY())
   \   000019   90....       MOV     DPTR,#macRxOnFlag
   \   00001C   E0           MOVX    A,@DPTR
   \   00001D   600D         JZ      ??rxStartIsr_1
   \   00001F   906193       MOV     DPTR,#0x6193
   \   000022   E0           MOVX    A,@DPTR
   \   000023   A2E7         MOV     C,0xE0 /* A   */.7
   \   000025   4016         JC      ??rxStartIsr_2
   \   000027   E0           MOVX    A,@DPTR
   \   000028   A2E6         MOV     C,0xE0 /* A   */.6
   \   00002A   4011         JC      ??rxStartIsr_2
    416            {
    417              /* reset active flag */
    418              macRxActive = MAC_RX_ACTIVE_NO_ACTIVITY;
   \                     ??rxStartIsr_1:
   \   00002C   90....       MOV     DPTR,#macRxActive
   \   00002F   E4           CLR     A
   \   000030   F0           MOVX    @DPTR,A
    419          
    420              /*
    421               *  To be absolutely bulletproof, must make sure no transmit queue'ed up during
    422               *  the tiny, tiny window when macRxActive was not zero.
    423               */
    424              rxPostRxUpdates();
   \   000031                ; Setup parameters for call to function macRxOffRequest
   \                     ??rxStartIsr_3:
   \   000031   12....       LCALL   ??macRxOffRequest?relay
   \   000034                ; Setup parameters for call to function macRadioUpdateTxPower
   \   000034   12....       LCALL   ??macRadioUpdateTxPower?relay
   \   000037                ; Setup parameters for call to function macTxStartQueuedFrame
   \   000037   12....       LCALL   ??macTxStartQueuedFrame?relay
    425          
    426              /* return immediately from here */
    427              return;
   \   00003A   02....       LJMP    ??rxStartIsr_4 & 0xFFFF
    428            }
    429          
    430            /*
    431             *  If interrupts are held off for too long it's possible the previous "transmit done"
    432             *  callback is pending.  If this is the case, it needs to be completed before
    433             *  continuing with the receive logic.
    434             */
    435            MAC_RADIO_FORCE_TX_DONE_IF_PENDING();
   \                     ??rxStartIsr_2:
   \   00003D                ; Setup parameters for call to function macCspForceTxDoneIfPending
   \   00003D   12....       LCALL   ??macCspForceTxDoneIfPending?relay
    436          
    437            /*
    438             *  It's possible receive logic is still waiting for confirmation of an ACK that went out
    439             *  for the previous receive.  This is OK but the callback needs to be canceled at this point.
    440             *  That callback execute receive cleanup logic that will run at the completion
    441             *  of *this* receive.  Also, it is important the flag for the outgoing ACK to be cleared.
    442             */
    443            MAC_RADIO_CANCEL_ACK_TX_DONE_CALLBACK();
   \   000040   9061A4       MOV     DPTR,#0x61a4
   \   000043   E0           MOVX    A,@DPTR
   \   000044   C2E0         CLR     0xE0 /* A   */.0
   \   000046   F0           MOVX    @DPTR,A
    444            macRxOutgoingAckFlag = 0;
   \   000047   90....       MOV     DPTR,#macRxOutgoingAckFlag
   \   00004A   E4           CLR     A
   \   00004B   F0           MOVX    @DPTR,A
    445          
    446            /*
    447             *  Make a module-local copy of macRxFilter.  This prevents the selected
    448             *  filter from changing in the middle of a receive.
    449             */
    450            rxFilter = macRxFilter;
   \   00004C   90....       MOV     DPTR,#macRxFilter
   \   00004F   E0           MOVX    A,@DPTR
   \   000050   90....       MOV     DPTR,#rxFilter
   \   000053   F0           MOVX    @DPTR,A
    451          
    452            /*-------------------------------------------------------------------------------
    453             *  Read initial frame information from FIFO.
    454             *
    455             *   This code is not triggered until the following are in the RX FIFO:
    456             *     frame length          - one byte containing length of MAC frame (excludes this field)
    457             *     frame control field   - two bytes defining frame type, addressing fields, control flags
    458             *     sequence number       - one byte unique sequence identifier
    459             *     additional two bytes  - these bytes are available in case the received frame is an ACK,
    460             *                             if so, the frame can be verified and responded to immediately,
    461             *                             if not an ACK, these bytes will be processed normally
    462             */
    463          
    464            /* read frame length, frame control field, and sequence number from FIFO */
    465            MAC_RADIO_READ_RX_FIFO(rxBuf, MAC_PHY_PHR_LEN + MAC_FCF_FIELD_LEN + MAC_SEQ_NUM_FIELD_LEN);
   \   000054                ; Setup parameters for call to function macMemReadRxFifo
   \   000054   7904         MOV     R1,#0x4
   \   000056   7A..         MOV     R2,#rxBuf & 0xff
   \   000058   7B..         MOV     R3,#(rxBuf >> 8) & 0xff
   \   00005A   12....       LCALL   ??macMemReadRxFifo?relay
    466          
    467            /* bytes to read from FIFO equals frame length minus length of MHR fields just read from FIFO */
    468            rxUnreadLen = (rxBuf[0] & PHY_PACKET_SIZE_MASK) - MAC_FCF_FIELD_LEN - MAC_SEQ_NUM_FIELD_LEN;
   \   00005D   90....       MOV     DPTR,#rxBuf
   \   000060   E0           MOVX    A,@DPTR
   \   000061   547F         ANL     A,#0x7f
   \   000063   24FD         ADD     A,#-0x3
   \   000065   90....       MOV     DPTR,#rxUnreadLen
   \   000068   F0           MOVX    @DPTR,A
    469          
    470            /*
    471             *  Workaround for chip bug #1547.  The receive buffer can sometimes be corrupted by hardware.
    472             *  This usually occurs under heavy traffic.  If a corrupted receive buffer is detected
    473             *  the entire receive buffer is flushed.
    474             *
    475             *  In the case that this workaround is not needed, an assert is used to make sure the
    476             *  receive length field is not corrupted.  This is important because a corrupted receive
    477             *  length field is utterly fatal and, if not caught here, extremely hard to track down.
    478             */
    479            if (macChipVersion == REV_A)
   \   000069   90....       MOV     DPTR,#macChipVersion
   \   00006C   E0           MOVX    A,@DPTR
   \   00006D   90....       MOV     DPTR,#rxUnreadLen
   \   000070   702D         JNZ     ??rxStartIsr_5
    480            {
    481              if ((rxUnreadLen > (MAC_A_MAX_PHY_PACKET_SIZE - MAC_FCF_FIELD_LEN - MAC_SEQ_NUM_FIELD_LEN)) ||
    482                  (MAC_FRAME_TYPE(&rxBuf[1]) > MAC_FRAME_TYPE_MAX_VALID))
   \   000072   E0           MOVX    A,@DPTR
   \   000073   C3           CLR     C
   \   000074   947D         SUBB    A,#0x7d
   \   000076   500B         JNC     ??rxStartIsr_6
   \   000078   90....       MOV     DPTR,#rxBuf + 1
   \   00007B   E0           MOVX    A,@DPTR
   \   00007C   5407         ANL     A,#0x7
   \   00007E   C3           CLR     C
   \   00007F   9404         SUBB    A,#0x4
   \   000081   4025         JC      ??rxStartIsr_7
    483              {
    484                MAC_RADIO_FLUSH_RX_FIFO();
   \                     ??rxStartIsr_6:
   \   000083   75E1ED       MOV     0xe1,#-0x13
   \   000086   75E1ED       MOV     0xe1,#-0x13
    485                rxDone();
   \                     ??rxStartIsr_8:
   \   000089   906193       MOV     DPTR,#0x6193
   \   00008C   E0           MOVX    A,@DPTR
   \   00008D   A2E6         MOV     C,0xE0 /* A   */.6
   \   00008F   4003         JC      $+5
   \   000091   02....       LJMP    ??rxStartIsr_9 & 0xFFFF
   \   000094   E0           MOVX    A,@DPTR
   \   000095   A2E7         MOV     C,0xE0 /* A   */.7
   \   000097   5003         JNC     $+5
   \   000099   02....       LJMP    ??rxStartIsr_9 & 0xFFFF
   \   00009C   02....       LJMP    ??rxStartIsr_10 & 0xFFFF
    486                return;
    487              }
    488            }
    489            else
    490            {
    491              /* radio supplied a corrupted receive buffer length */
    492              MAC_ASSERT(rxUnreadLen <= (MAC_A_MAX_PHY_PACKET_SIZE - MAC_FCF_FIELD_LEN - MAC_SEQ_NUM_FIELD_LEN));
   \                     ??rxStartIsr_5:
   \   00009F   E0           MOVX    A,@DPTR
   \   0000A0   C3           CLR     C
   \   0000A1   947D         SUBB    A,#0x7d
   \   0000A3   4003         JC      ??rxStartIsr_7
   \   0000A5                ; Setup parameters for call to function halAssertHandler
   \   0000A5   12....       LCALL   ??halAssertHandler?relay
    493            }
    494          
    495          
    496          
    497            /*-------------------------------------------------------------------------------
    498             *  Process ACKs.
    499             *
    500             *  If this frame is an ACK, process it immediately and exit from here.
    501             *  If this frame is not an ACK and transmit is listening for an ACK, let
    502             *  the transmit logic know an non-ACK was received so transmit can complete.
    503             *
    504             *  In promiscuous mode ACKs are treated like any other frame.
    505             */
    506            if ((MAC_FRAME_TYPE(&rxBuf[1]) == MAC_FRAME_TYPE_ACK) && (rxPromiscuousMode == PROMISCUOUS_MODE_OFF))
   \                     ??rxStartIsr_7:
   \   0000A8   90....       MOV     DPTR,#rxBuf + 1
   \   0000AB   E0           MOVX    A,@DPTR
   \   0000AC   5407         ANL     A,#0x7
   \   0000AE   6402         XRL     A,#0x2
   \   0000B0   6003         JZ      $+5
   \   0000B2   02....       LJMP    ??rxStartIsr_11 & 0xFFFF
   \   0000B5   90....       MOV     DPTR,#rxPromiscuousMode
   \   0000B8   E0           MOVX    A,@DPTR
   \   0000B9   6003         JZ      $+5
   \   0000BB   02....       LJMP    ??rxStartIsr_11 & 0xFFFF
    507            {
    508              halIntState_t  s;
    509              uint8 fcsBuf[MAC_FCF_FIELD_LEN];
    510              /*
    511               *  There are guaranteed to be two unread bytes in the FIFO.  By defintion, for ACK frames
    512               *  these two bytes will be the FCS.
    513               */
    514          
    515              /* read FCS from FIFO (threshold set so bytes are guaranteed to be there) */
    516              MAC_RADIO_READ_RX_FIFO(fcsBuf, MAC_FCS_FIELD_LEN);
   \   0000BE                ; Setup parameters for call to function macMemReadRxFifo
   \   0000BE   7902         MOV     R1,#0x2
   \   0000C0   85..82       MOV     DPL,?XSP + 0
   \   0000C3   85..83       MOV     DPH,?XSP + 1
   \   0000C6   AA82         MOV     R2,DPL
   \   0000C8   AB83         MOV     R3,DPH
   \   0000CA   12....       LCALL   ??macMemReadRxFifo?relay
    517          
    518              /*
    519               *  This critical section ensures that the ACK timeout won't be triggered in the
    520               *  millde of receiving the ACK frame.
    521               */
    522              HAL_ENTER_CRITICAL_SECTION(s);
   \   0000CD   A2AF         MOV     C,0xa8.7
   \   0000CF   E4           CLR     A
   \   0000D0   33           RLC     A
   \   0000D1   F5..         MOV     ?V0 + 0,A
   \   0000D3   C2AF         CLR     0xa8.7
    523          
    524              /* see if transmit is listening for an ACK */
    525              if (macTxActive == MAC_TX_ACTIVE_LISTEN_FOR_ACK)
   \   0000D5   90....       MOV     DPTR,#macTxActive
   \   0000D8   E0           MOVX    A,@DPTR
   \   0000D9   6486         XRL     A,#0x86
   \   0000DB   6003         JZ      $+5
   \   0000DD   02....       LJMP    ??rxStartIsr_12 & 0xFFFF
    526              {
    527                MAC_ASSERT(pMacDataTx != NULL); /* transmit buffer must be present */
   \   0000E0   90....       MOV     DPTR,#pMacDataTx
   \   0000E3   E0           MOVX    A,@DPTR
   \   0000E4   F8           MOV     R0,A
   \   0000E5   A3           INC     DPTR
   \   0000E6   E0           MOVX    A,@DPTR
   \   0000E7   F9           MOV     R1,A
   \   0000E8   E8           MOV     A,R0
   \   0000E9   49           ORL     A,R1
   \   0000EA   7003         JNZ     ??rxStartIsr_13
   \   0000EC                ; Setup parameters for call to function halAssertHandler
   \   0000EC   12....       LCALL   ??halAssertHandler?relay
    528          
    529                /* record link quality metrics for the receive ACK */
    530                {
    531                  int8 rssiDbm;
    532                  uint8 corr;
    533          
    534                  rssiDbm = PROPRIETARY_FCS_RSSI(fcsBuf) + MAC_RADIO_RSSI_OFFSET;
   \                     ??rxStartIsr_13:
   \   0000EF   85..82       MOV     DPL,?XSP + 0
   \   0000F2   85..83       MOV     DPH,?XSP + 1
   \   0000F5   E0           MOVX    A,@DPTR
   \   0000F6   24B7         ADD     A,#-0x49
   \   0000F8   FE           MOV     R6,A
    535                  MAC_RADIO_RSSI_LNA_OFFSET(rssiDbm);
    536                  corr = PROPRIETARY_FCS_CORRELATION_VALUE(fcsBuf);
   \   0000F9   7401         MOV     A,#0x1
   \   0000FB   12....       LCALL   ?XSTACK_DISP0_8
   \   0000FE   E0           MOVX    A,@DPTR
   \   0000FF   547F         ANL     A,#0x7f
   \   000101   FF           MOV     R7,A
    537          
    538                  pMacDataTx->internal.mpduLinkQuality = macRadioComputeLQI(rssiDbm, corr);
   \   000102                ; Setup parameters for call to function macRadioComputeLQI
   \   000102   FA           MOV     R2,A
   \   000103   EE           MOV     A,R6
   \   000104   F9           MOV     R1,A
   \   000105   12....       LCALL   ??macRadioComputeLQI?relay
   \   000108   E9           MOV     A,R1
   \   000109   C0E0         PUSH    A
   \   00010B   90....       MOV     DPTR,#pMacDataTx
   \   00010E   E0           MOVX    A,@DPTR
   \   00010F   2414         ADD     A,#0x14
   \   000111   F8           MOV     R0,A
   \   000112   A3           INC     DPTR
   \   000113   E0           MOVX    A,@DPTR
   \   000114   3400         ADDC    A,#0x0
   \   000116   F9           MOV     R1,A
   \   000117   8882         MOV     DPL,R0
   \   000119   8983         MOV     DPH,R1
   \   00011B   D0E0         POP     A
   \   00011D   F0           MOVX    @DPTR,A
    539                  pMacDataTx->internal.correlation = corr;
   \   00011E   90....       MOV     DPTR,#pMacDataTx
   \   000121   E0           MOVX    A,@DPTR
   \   000122   2415         ADD     A,#0x15
   \   000124   F8           MOV     R0,A
   \   000125   A3           INC     DPTR
   \   000126   E0           MOVX    A,@DPTR
   \   000127   3400         ADDC    A,#0x0
   \   000129   F9           MOV     R1,A
   \   00012A   8882         MOV     DPL,R0
   \   00012C   8983         MOV     DPH,R1
   \   00012E   EF           MOV     A,R7
   \   00012F   F0           MOVX    @DPTR,A
    540                  pMacDataTx->internal.rssi= rssiDbm;
   \   000130   90....       MOV     DPTR,#pMacDataTx
   \   000133   E0           MOVX    A,@DPTR
   \   000134   2416         ADD     A,#0x16
   \   000136   F8           MOV     R0,A
   \   000137   A3           INC     DPTR
   \   000138   E0           MOVX    A,@DPTR
   \   000139   3400         ADDC    A,#0x0
   \   00013B   F9           MOV     R1,A
   \   00013C   8882         MOV     DPL,R0
   \   00013E   8983         MOV     DPH,R1
   \   000140   EE           MOV     A,R6
   \   000141   F0           MOVX    @DPTR,A
    541                }
    542          
    543                /*
    544                 *  It's okay if the ACK timeout is triggered here. The callbacks for ACK received
    545                 *  or ACK not received will check "macTxActive" flag before taking any actions.
    546                 */
    547                HAL_EXIT_CRITICAL_SECTION(s);
   \   000142   E5..         MOV     A,?V0 + 0
   \   000144   A2E0         MOV     C,0xE0 /* A   */.0
   \   000146   92AF         MOV     0xa8.7,C
    548          
    549                /*
    550                 *  An ACK was received so transmit logic needs to know.  If the FCS failed,
    551                 *  the transmit logic still needs to know.  In that case, treat the frame
    552                 *  as a non-ACK to complete the active transmit.
    553                 */
    554                if (PROPRIETARY_FCS_CRC_OK(fcsBuf))
   \   000148   7401         MOV     A,#0x1
   \   00014A   12....       LCALL   ?XSTACK_DISP0_8
   \   00014D   E0           MOVX    A,@DPTR
   \   00014E   A2E7         MOV     C,0xE0 /* A   */.7
   \   000150   5011         JNC     ??rxStartIsr_14
    555                {
    556                  /* call transmit logic to indicate ACK was received */
    557                  macTxAckReceivedCallback(MAC_SEQ_NUMBER(&rxBuf[1]), MAC_FRAME_PENDING(&rxBuf[1]));
   \   000152                ; Setup parameters for call to function macTxAckReceivedCallback
   \   000152   90....       MOV     DPTR,#rxBuf + 1
   \   000155   E0           MOVX    A,@DPTR
   \   000156   5410         ANL     A,#0x10
   \   000158   FA           MOV     R2,A
   \   000159   90....       MOV     DPTR,#rxBuf + 3
   \   00015C   E0           MOVX    A,@DPTR
   \   00015D   F9           MOV     R1,A
   \   00015E   12....       LCALL   ??macTxAckReceivedCallback?relay
   \   000161   800B         SJMP    ??rxStartIsr_15
    558                }
    559                else
    560                {
    561                  macTxAckNotReceivedCallback();
   \                     ??rxStartIsr_14:
   \   000163                ; Setup parameters for call to function macTxAckNotReceivedCallback
   \   000163   12....       LCALL   ??macTxAckNotReceivedCallback?relay
   \   000166   8006         SJMP    ??rxStartIsr_15
    562                }
    563              }
    564              else
    565              {
    566                HAL_EXIT_CRITICAL_SECTION(s);
   \                     ??rxStartIsr_12:
   \   000168   E5..         MOV     A,?V0 + 0
   \   00016A   A2E0         MOV     C,0xE0 /* A   */.0
   \   00016C   92AF         MOV     0xa8.7,C
    567              }
    568          
    569              /* receive is done, exit from here */
    570              rxDone();
   \                     ??rxStartIsr_15:
   \   00016E   02....       LJMP    ??rxStartIsr_8 & 0xFFFF
    571              return;
    572            }
    573            else if (macTxActive == MAC_TX_ACTIVE_LISTEN_FOR_ACK)
   \                     ??rxStartIsr_11:
   \   000171   90....       MOV     DPTR,#macTxActive
   \   000174   E0           MOVX    A,@DPTR
   \   000175   6486         XRL     A,#0x86
   \   000177   7003         JNZ     ??rxStartIsr_16
    574            {
    575              macTxAckNotReceivedCallback();
   \   000179                ; Setup parameters for call to function macTxAckNotReceivedCallback
   \   000179   12....       LCALL   ??macTxAckNotReceivedCallback?relay
    576            }
    577          
    578            /*-------------------------------------------------------------------------------
    579             *  Apply filtering.
    580             *
    581             *  For efficiency, see if filtering is even 'on' before processing.  Also test
    582             *  to make sure promiscuous mode is disabled.  If promiscuous mode is enabled,
    583             *  do not apply filtering.
    584             */
    585            if ((rxFilter != RX_FILTER_OFF) && !rxPromiscuousMode)
   \                     ??rxStartIsr_16:
   \   00017C   90....       MOV     DPTR,#rxFilter
   \   00017F   E0           MOVX    A,@DPTR
   \   000180   601B         JZ      ??rxStartIsr_17
   \   000182   90....       MOV     DPTR,#rxPromiscuousMode
   \   000185   E0           MOVX    A,@DPTR
   \   000186   7015         JNZ     ??rxStartIsr_17
    586            {
    587              if (/* filter all frames */
    588                   (rxFilter == RX_FILTER_ALL) ||
    589          
    590                   /* filter non-beacon frames */
    591                   ((rxFilter == RX_FILTER_NON_BEACON_FRAMES) &&
    592                    (MAC_FRAME_TYPE(&rxBuf[1]) != MAC_FRAME_TYPE_BEACON)) ||
    593          
    594                   /* filter non-command frames */
    595                   ((rxFilter == RX_FILTER_NON_COMMAND_FRAMES) &&
    596                    ((MAC_FRAME_TYPE(&rxBuf[1]) != MAC_FRAME_TYPE_COMMAND))))
   \   000188   90....       MOV     DPTR,#rxFilter
   \   00018B   E0           MOVX    A,@DPTR
   \   00018C   6401         XRL     A,#0x1
   \   00018E   606B         JZ      ??rxStartIsr_18
   \   000190   E0           MOVX    A,@DPTR
   \   000191   6402         XRL     A,#0x2
   \   000193   7057         JNZ     ??rxStartIsr_19
   \   000195   90....       MOV     DPTR,#rxBuf + 1
   \   000198   E0           MOVX    A,@DPTR
   \   000199   5407         ANL     A,#0x7
   \   00019B   705E         JNZ     ??rxStartIsr_18
    597              {
    598                /* discard rest of frame */
    599                rxDiscardFrame();
    600                return;
    601              }
    602            }
    603          
    604            /*-------------------------------------------------------------------------------
    605             *  Compute length of addressing fields.  Compute payload length.
    606             */
    607          
    608            /* decode addressing modes */
    609            dstAddrMode = MAC_DEST_ADDR_MODE(&rxBuf[1]);
   \                     ??rxStartIsr_17:
   \   00019D   90....       MOV     DPTR,#rxBuf + 2
   \   0001A0   E0           MOVX    A,@DPTR
   \   0001A1   F8           MOV     R0,A
   \   0001A2   13           RRC     A
   \   0001A3   13           RRC     A
   \   0001A4   543F         ANL     A,#0x3f
   \   0001A6   5403         ANL     A,#0x3
   \   0001A8   F5..         MOV     ?V0 + 2,A
    610            srcAddrMode = MAC_SRC_ADDR_MODE(&rxBuf[1]);
   \   0001AA   E8           MOV     A,R0
   \   0001AB   C4           SWAP    A
   \   0001AC   13           RRC     A
   \   0001AD   13           RRC     A
   \   0001AE   5403         ANL     A,#0x3
   \   0001B0   FF           MOV     R7,A
    611          
    612            /*
    613            *  Workaround for chip bug #1547.  The receive buffer can sometimes be corrupted by hardware.
    614             *  This usually occurs under heavy traffic.  If a corrupted receive buffer is detected
    615             *  the entire receive buffer is flushed.
    616             */
    617            if (macChipVersion == REV_A)
   \   0001B1   90....       MOV     DPTR,#macChipVersion
   \   0001B4   E0           MOVX    A,@DPTR
   \   0001B5   7061         JNZ     ??rxStartIsr_20
    618            {
    619              if ((srcAddrMode == ADDR_MODE_RESERVERED) || (dstAddrMode == ADDR_MODE_RESERVERED))
   \   0001B7   7401         MOV     A,#0x1
   \   0001B9   6F           XRL     A,R7
   \   0001BA   6006         JZ      ??rxStartIsr_21
   \   0001BC   7401         MOV     A,#0x1
   \   0001BE   65..         XRL     A,?V0 + 2
   \   0001C0   7056         JNZ     ??rxStartIsr_20
    620              {
    621                MAC_RADIO_FLUSH_RX_FIFO();
   \                     ??rxStartIsr_21:
   \   0001C2   75E1ED       MOV     0xe1,#-0x13
   \   0001C5   75E1ED       MOV     0xe1,#-0x13
    622                rxDone();
   \   0001C8   906193       MOV     DPTR,#0x6193
   \   0001CB   E0           MOVX    A,@DPTR
   \   0001CC   A2E6         MOV     C,0xE0 /* A   */.6
   \   0001CE   500B         JNC     ??rxStartIsr_9
   \   0001D0   E0           MOVX    A,@DPTR
   \   0001D1   A2E7         MOV     C,0xE0 /* A   */.7
   \   0001D3   4006         JC      ??rxStartIsr_9
   \                     ??rxStartIsr_10:
   \   0001D5   75E1ED       MOV     0xe1,#-0x13
   \   0001D8   75E1ED       MOV     0xe1,#-0x13
   \                     ??rxStartIsr_9:
   \   0001DB   90....       MOV     DPTR,#macRxActive
   \   0001DE   E4           CLR     A
   \   0001DF   F0           MOVX    @DPTR,A
   \   0001E0   90....       MOV     DPTR,#macRxOutgoingAckFlag
   \   0001E3   E0           MOVX    A,@DPTR
   \   0001E4   6003         JZ      $+5
   \   0001E6   02....       LJMP    ??rxStartIsr_4 & 0xFFFF
   \   0001E9                ; Setup parameters for call to function macRxOffRequest
   \   0001E9   02....       LJMP    ??rxStartIsr_3 & 0xFFFF
    623                return;
    624              }
    625            }
   \                     ??rxStartIsr_19:
   \   0001EC   E0           MOVX    A,@DPTR
   \   0001ED   6403         XRL     A,#0x3
   \   0001EF   70AC         JNZ     ??rxStartIsr_17
   \   0001F1   90....       MOV     DPTR,#rxBuf + 1
   \   0001F4   E0           MOVX    A,@DPTR
   \   0001F5   5407         ANL     A,#0x7
   \   0001F7   6403         XRL     A,#0x3
   \   0001F9   60A2         JZ      ??rxStartIsr_17
   \                     ??rxStartIsr_18:
   \   0001FB   90....       MOV     DPTR,#pFuncRxState
   \   0001FE   E0           MOVX    A,@DPTR
   \   0001FF   64..         XRL     A,#??rxStartIsr?relay & 0xff
   \   000201   7004         JNZ     ??rxStartIsr_22
   \   000203   A3           INC     DPTR
   \   000204   E0           MOVX    A,@DPTR
   \   000205   64..         XRL     A,#(??rxStartIsr?relay >> 8) & 0xff
   \                     ??rxStartIsr_22:
   \   000207   6003         JZ      ??rxStartIsr_23
   \   000209                ; Setup parameters for call to function halAssertHandler
   \   000209   12....       LCALL   ??halAssertHandler?relay
   \                     ??rxStartIsr_23:
   \   00020C   90....       MOV     DPTR,#rxUnreadLen
   \   00020F   E0           MOVX    A,@DPTR
   \   000210   6003         JZ      $+5
   \   000212   02....       LJMP    ??rxStartIsr_24 & 0xFFFF
   \   000215   02....       LJMP    ??rxStartIsr_8 & 0xFFFF
    626          
    627            /*
    628             *  Compute the addressing field length.  A lookup table based on addressing
    629             *  mode is used for efficiency.  If the source address is present and the
    630             *  frame is intra-PAN, the PAN Id is not repeated.  In this case, the address
    631             *  length is adjusted to match the smaller length.
    632             */
    633            addrLen = macRxAddrLen[dstAddrMode] + macRxAddrLen[srcAddrMode];
   \                     ??rxStartIsr_20:
   \   000218   8F..         MOV     ?V0 + 0,R7
   \   00021A   74..         MOV     A,#macRxAddrLen & 0xff
   \   00021C   25..         ADD     A,?V0 + 0
   \   00021E   F582         MOV     DPL,A
   \   000220   74..         MOV     A,#(macRxAddrLen >> 8) & 0xff
   \   000222   3400         ADDC    A,#0x0
   \   000224   F583         MOV     DPH,A
   \   000226   E4           CLR     A
   \   000227   93           MOVC    A,@A+DPTR
   \   000228   F8           MOV     R0,A
   \   000229   85....       MOV     ?V0 + 0,?V0 + 2
   \   00022C   74..         MOV     A,#macRxAddrLen & 0xff
   \   00022E   25..         ADD     A,?V0 + 0
   \   000230   F582         MOV     DPL,A
   \   000232   74..         MOV     A,#(macRxAddrLen >> 8) & 0xff
   \   000234   3400         ADDC    A,#0x0
   \   000236   F583         MOV     DPH,A
   \   000238   E4           CLR     A
   \   000239   93           MOVC    A,@A+DPTR
   \   00023A   28           ADD     A,R0
   \   00023B   FE           MOV     R6,A
    634            if ((srcAddrMode != SADDR_MODE_NONE) && MAC_INTRA_PAN(&rxBuf[1]))
   \   00023C   EF           MOV     A,R7
   \   00023D   600A         JZ      ??rxStartIsr_25
   \   00023F   90....       MOV     DPTR,#rxBuf + 1
   \   000242   E0           MOVX    A,@DPTR
   \   000243   A2E6         MOV     C,0xE0 /* A   */.6
   \   000245   5002         JNC     ??rxStartIsr_25
    635            {
    636              addrLen -= MAC_PAN_ID_FIELD_LEN;
   \   000247   1E           DEC     R6
   \   000248   1E           DEC     R6
    637            }
    638          
    639            /*
    640             *  If there are not enough unread bytes to include the computed address
    641             *  plus FCS field, the frame is corrupted and must be discarded.
    642             */
    643            if ((addrLen + MAC_FCS_FIELD_LEN) > rxUnreadLen)
   \                     ??rxStartIsr_25:
   \   000249   90....       MOV     DPTR,#rxUnreadLen
   \   00024C   E0           MOVX    A,@DPTR
   \   00024D   FA           MOV     R2,A
   \   00024E   8E..         MOV     ?V0 + 0,R6
   \   000250   E5..         MOV     A,?V0 + 0
   \   000252   2402         ADD     A,#0x2
   \   000254   F8           MOV     R0,A
   \   000255   E4           CLR     A
   \   000256   3400         ADDC    A,#0x0
   \   000258   F9           MOV     R1,A
   \   000259   EA           MOV     A,R2
   \   00025A   98           SUBB    A,R0
   \   00025B   E4           CLR     A
   \   00025C   99           SUBB    A,R1
   \   00025D   C3           CLR     C
   \   00025E   65D0         XRL     A,PSW
   \   000260   33           RLC     A
   \   000261   4098         JC      ??rxStartIsr_18
    644            {
    645              /* discard frame and exit */
    646              rxDiscardFrame();
    647              return;
    648            }
    649          
    650            /* payload length is equal to unread bytes minus address length, minus the FCS */
    651            rxPayloadLen = rxUnreadLen - addrLen - MAC_FCS_FIELD_LEN;
   \   000263   E0           MOVX    A,@DPTR
   \   000264   C3           CLR     C
   \   000265   9E           SUBB    A,R6
   \   000266   24FE         ADD     A,#-0x2
   \   000268   90....       MOV     DPTR,#rxPayloadLen
   \   00026B   F0           MOVX    @DPTR,A
    652          
    653            /*-------------------------------------------------------------------------------
    654             *  Allocate memory for the incoming frame.
    655             */
    656            pRxBuf = (macRx_t *) MEM_ALLOC(sizeof(macRx_t) + rxPayloadLen);
   \   00026C                ; Setup parameters for call to function macDataRxMemAlloc
   \   00026C   2432         ADD     A,#0x32
   \   00026E   FA           MOV     R2,A
   \   00026F   E4           CLR     A
   \   000270   3400         ADDC    A,#0x0
   \   000272   FB           MOV     R3,A
   \   000273   12....       LCALL   ??macDataRxMemAlloc?relay
   \   000276   90....       MOV     DPTR,#pRxBuf
   \   000279   EA           MOV     A,R2
   \   00027A   F0           MOVX    @DPTR,A
   \   00027B   A3           INC     DPTR
   \   00027C   EB           MOV     A,R3
   \   00027D   F0           MOVX    @DPTR,A
    657            if (pRxBuf == NULL)
   \   00027E   90....       MOV     DPTR,#pRxBuf
   \   000281   E0           MOVX    A,@DPTR
   \   000282   F8           MOV     R0,A
   \   000283   A3           INC     DPTR
   \   000284   E0           MOVX    A,@DPTR
   \   000285   F9           MOV     R1,A
   \   000286   E8           MOV     A,R0
   \   000287   49           ORL     A,R1
   \   000288   7041         JNZ     ??rxStartIsr_26
    658            {
    659              /* Cancel the outgoing TX ACK */
    660              MAC_RADIO_CANCEL_TX_ACK();
   \   00028A   75E1E8       MOV     0xe1,#-0x18
    661          
    662              /* buffer allocation failed, discard the frame and exit*/
    663              rxDiscardFrame();
   \   00028D   90....       MOV     DPTR,#pFuncRxState
   \   000290   E0           MOVX    A,@DPTR
   \   000291   64..         XRL     A,#??rxStartIsr?relay & 0xff
   \   000293   7004         JNZ     ??rxStartIsr_27
   \   000295   A3           INC     DPTR
   \   000296   E0           MOVX    A,@DPTR
   \   000297   64..         XRL     A,#(??rxStartIsr?relay >> 8) & 0xff
   \                     ??rxStartIsr_27:
   \   000299   6003         JZ      ??rxStartIsr_28
   \   00029B                ; Setup parameters for call to function halAssertHandler
   \   00029B   12....       LCALL   ??halAssertHandler?relay
   \                     ??rxStartIsr_28:
   \   00029E   90....       MOV     DPTR,#rxUnreadLen
   \   0002A1   E0           MOVX    A,@DPTR
   \   0002A2   7003         JNZ     $+5
   \   0002A4   02....       LJMP    ??rxStartIsr_8 & 0xFFFF
   \                     ??rxStartIsr_24:
   \   0002A7   E0           MOVX    A,@DPTR
   \   0002A8   C3           CLR     C
   \   0002A9   9410         SUBB    A,#0x10
   \   0002AB   5006         JNC     ??rxStartIsr_29
   \   0002AD   E0           MOVX    A,@DPTR
   \   0002AE   90....       MOV     DPTR,#rxNextLen
   \   0002B1   8005         SJMP    ??rxStartIsr_30
   \                     ??rxStartIsr_29:
   \   0002B3   90....       MOV     DPTR,#rxNextLen
   \   0002B6   7410         MOV     A,#0x10
   \                     ??rxStartIsr_30:
   \   0002B8   F0           MOVX    @DPTR,A
   \   0002B9   E0           MOVX    A,@DPTR
   \   0002BA   14           DEC     A
   \   0002BB   906194       MOV     DPTR,#0x6194
   \   0002BE   F0           MOVX    @DPTR,A
   \   0002BF   90....       MOV     DPTR,#pFuncRxState
   \   0002C2   74..         MOV     A,#??rxDiscardIsr?relay & 0xff
   \   0002C4   F0           MOVX    @DPTR,A
   \   0002C5   A3           INC     DPTR
   \   0002C6   74..         MOV     A,#(??rxDiscardIsr?relay >> 8) & 0xff
   \   0002C8   02....       LJMP    ??rxStartIsr_31 & 0xFFFF
    664              return;
    665            }
    666          
    667            /*-------------------------------------------------------------------------------
    668             *  Set up to process ACK request.  Do not ACK if in promiscuous mode.
    669             */
    670            ackWithPending = 0;
   \                     ??rxStartIsr_26:
   \   0002CB   75..00       MOV     ?V0 + 0,#0x0
    671            if (!rxPromiscuousMode)
   \   0002CE   90....       MOV     DPTR,#rxPromiscuousMode
   \   0002D1   E0           MOVX    A,@DPTR
   \   0002D2   700A         JNZ     ??rxStartIsr_32
    672            {
    673              macRxOutgoingAckFlag = MAC_ACK_REQUEST(&rxBuf[1]);
   \   0002D4   90....       MOV     DPTR,#rxBuf + 1
   \   0002D7   E0           MOVX    A,@DPTR
   \   0002D8   5420         ANL     A,#0x20
   \   0002DA   90....       MOV     DPTR,#macRxOutgoingAckFlag
   \   0002DD   F0           MOVX    @DPTR,A
    674            }
    675          
    676            /*-------------------------------------------------------------------------------
    677             *  Process any ACK request.
    678             */
    679            if (macRxOutgoingAckFlag)
   \                     ??rxStartIsr_32:
   \   0002DE   90....       MOV     DPTR,#macRxOutgoingAckFlag
   \   0002E1   E0           MOVX    A,@DPTR
   \   0002E2   605B         JZ      ??rxStartIsr_33
    680            {
    681              halIntState_t  s;
    682          
    683              /*
    684               *  This critical section ensures that the callback ISR is initiated within time
    685               *  to guarantee correlation with the strobe.
    686               */
    687              HAL_ENTER_CRITICAL_SECTION(s);
   \   0002E4   A2AF         MOV     C,0xa8.7
   \   0002E6   E4           CLR     A
   \   0002E7   33           RLC     A
   \   0002E8   F5..         MOV     ?V0 + 1,A
   \   0002EA   C2AF         CLR     0xa8.7
    688          
    689              /* Do not ack data packet with pending more data */
    690              if( MAC_FRAME_TYPE(&rxBuf[1]) == MAC_FRAME_TYPE_COMMAND )
   \   0002EC   90....       MOV     DPTR,#rxBuf + 1
   \   0002EF   E0           MOVX    A,@DPTR
   \   0002F0   5407         ANL     A,#0x7
   \   0002F2   6403         XRL     A,#0x3
   \   0002F4   7027         JNZ     ??rxStartIsr_34
    691              {
    692                if( macRxCheckMACPendingCallback())
   \   0002F6                ; Setup parameters for call to function macRxCheckMACPendingCallback
   \   0002F6   12....       LCALL   ??macRxCheckMACPendingCallback?relay
   \   0002F9   E9           MOV     A,R1
   \   0002FA   600B         JZ      ??rxStartIsr_35
    693                {
    694                  /* Check is any mac data pending for end devices */
    695                  ackWithPending = MAC_RX_FLAG_ACK_PENDING;
   \                     ??rxStartIsr_36:
   \   0002FC   75..04       MOV     ?V0 + 0,#0x4
    696                }
    697                else
    698                {
    699                  if( macSrcMatchIsEnabled )
    700                  {
    701                    /* When autopend is enabled, check if allpending is set to true */
    702                    if( MAC_SrcMatchCheckAllPending() == MAC_AUTOACK_PENDING_ALL_ON )
    703                    {
    704                      ackWithPending = MAC_RX_FLAG_ACK_PENDING;
    705                    }
    706                  }
    707                  else
    708                  {
    709                    /* When autopend is disabled, check the application pending callback */
    710                    if( macRxCheckPendingCallback() )
    711                    {
    712                      ackWithPending = MAC_RX_FLAG_ACK_PENDING;
    713                    }
    714                  }
    715                }
    716              }
    717          
    718              if( ackWithPending == MAC_RX_FLAG_ACK_PENDING )
    719              {
    720                MAC_RADIO_TX_ACK_PEND();
   \   0002FF   90618A       MOV     DPTR,#0x618a
   \   000302   E0           MOVX    A,@DPTR
   \   000303   D2E2         SETB    0xE0 /* A   */.2
   \   000305   801C         SJMP    ??rxStartIsr_37
    721              }
   \                     ??rxStartIsr_35:
   \   000307   90....       MOV     DPTR,#macSrcMatchIsEnabled
   \   00030A   E0           MOVX    A,@DPTR
   \   00030B   600A         JZ      ??rxStartIsr_38
   \   00030D                ; Setup parameters for call to function MAC_SrcMatchCheckAllPending
   \   00030D   12....       LCALL   ??MAC_SrcMatchCheckAllPending?relay
   \   000310   E9           MOV     A,R1
   \   000311   64FE         XRL     A,#0xfe
   \   000313   7008         JNZ     ??rxStartIsr_34
   \   000315   80E5         SJMP    ??rxStartIsr_36
   \                     ??rxStartIsr_38:
   \   000317                ; Setup parameters for call to function macRxCheckPendingCallback
   \   000317   12....       LCALL   ??macRxCheckPendingCallback?relay
   \   00031A   E9           MOV     A,R1
   \   00031B   70DF         JNZ     ??rxStartIsr_36
    722              else
    723              {
    724                MAC_RADIO_TX_ACK();
   \                     ??rxStartIsr_34:
   \   00031D   90618A       MOV     DPTR,#0x618a
   \   000320   E0           MOVX    A,@DPTR
   \   000321   C2E2         CLR     0xE0 /* A   */.2
   \                     ??rxStartIsr_37:
   \   000323   F0           MOVX    @DPTR,A
    725              }
    726          
    727          
    728              /* request a callback to macRxAckTxDoneCallback() when the ACK transmit has finished */
    729              MAC_RADIO_REQUEST_ACK_TX_DONE_CALLBACK();
   \   000324   E5A8         MOV     A,0xa8
   \   000326   C2AF         CLR     0xa8.7
   \   000328   759B00       MOV     0x9b,#0x0
   \   00032B   7591FE       MOV     0x91,#-0x2
   \   00032E   A2E7         MOV     C,0xE0 /* A   */.7
   \   000330   92AF         MOV     0xa8.7,C
   \   000332   9061A4       MOV     DPTR,#0x61a4
   \   000335   E0           MOVX    A,@DPTR
   \   000336   D2E0         SETB    0xE0 /* A   */.0
   \   000338   F0           MOVX    @DPTR,A
    730              HAL_EXIT_CRITICAL_SECTION(s);
   \   000339   E5..         MOV     A,?V0 + 1
   \   00033B   A2E0         MOV     C,0xE0 /* A   */.0
   \   00033D   92AF         MOV     0xa8.7,C
    731            }
    732          
    733           /*-------------------------------------------------------------------------------
    734            *  Populate the receive buffer going up to high-level.
    735            */
    736          
    737            /* configure the payload buffer */
    738            pRxBuf->msdu.p = (uint8 *) (pRxBuf + 1);
   \                     ??rxStartIsr_33:
   \   00033F   90....       MOV     DPTR,#pRxBuf
   \   000342   E0           MOVX    A,@DPTR
   \   000343   2432         ADD     A,#0x32
   \   000345   F8           MOV     R0,A
   \   000346   A3           INC     DPTR
   \   000347   E0           MOVX    A,@DPTR
   \   000348   3400         ADDC    A,#0x0
   \   00034A   F9           MOV     R1,A
   \   00034B   90....       MOV     DPTR,#pRxBuf
   \   00034E   E0           MOVX    A,@DPTR
   \   00034F   FA           MOV     R2,A
   \   000350   A3           INC     DPTR
   \   000351   E0           MOVX    A,@DPTR
   \   000352   F583         MOV     DPH,A
   \   000354   8A82         MOV     DPL,R2
   \   000356   A3           INC     DPTR
   \   000357   A3           INC     DPTR
   \   000358   E8           MOV     A,R0
   \   000359   F0           MOVX    @DPTR,A
   \   00035A   A3           INC     DPTR
   \   00035B   E9           MOV     A,R1
   \   00035C   F0           MOVX    @DPTR,A
    739            pRxBuf->msdu.len = rxPayloadLen;
   \   00035D   90....       MOV     DPTR,#rxPayloadLen
   \   000360   E0           MOVX    A,@DPTR
   \   000361   C0E0         PUSH    A
   \   000363   90....       MOV     DPTR,#pRxBuf
   \   000366   E0           MOVX    A,@DPTR
   \   000367   F8           MOV     R0,A
   \   000368   A3           INC     DPTR
   \   000369   E0           MOVX    A,@DPTR
   \   00036A   F583         MOV     DPH,A
   \   00036C   8882         MOV     DPL,R0
   \   00036E   A3           INC     DPTR
   \   00036F   A3           INC     DPTR
   \   000370   A3           INC     DPTR
   \   000371   A3           INC     DPTR
   \   000372   D0E0         POP     A
   \   000374   F0           MOVX    @DPTR,A
    740          
    741            /* set internal values */
    742            pRxBuf->mac.srcAddr.addrMode  = srcAddrMode;
   \   000375   90....       MOV     DPTR,#pRxBuf
   \   000378   E0           MOVX    A,@DPTR
   \   000379   241A         ADD     A,#0x1a
   \   00037B   F8           MOV     R0,A
   \   00037C   A3           INC     DPTR
   \   00037D   E0           MOVX    A,@DPTR
   \   00037E   3400         ADDC    A,#0x0
   \   000380   F9           MOV     R1,A
   \   000381   8882         MOV     DPL,R0
   \   000383   8983         MOV     DPH,R1
   \   000385   EF           MOV     A,R7
   \   000386   F0           MOVX    @DPTR,A
    743            pRxBuf->mac.dstAddr.addrMode  = dstAddrMode;
   \   000387   90....       MOV     DPTR,#pRxBuf
   \   00038A   E0           MOVX    A,@DPTR
   \   00038B   2423         ADD     A,#0x23
   \   00038D   F8           MOV     R0,A
   \   00038E   A3           INC     DPTR
   \   00038F   E0           MOVX    A,@DPTR
   \   000390   3400         ADDC    A,#0x0
   \   000392   F9           MOV     R1,A
   \   000393   8882         MOV     DPL,R0
   \   000395   8983         MOV     DPH,R1
   \   000397   E5..         MOV     A,?V0 + 2
   \   000399   F0           MOVX    @DPTR,A
    744            pRxBuf->mac.timestamp         = MAC_RADIO_BACKOFF_CAPTURE();
   \   00039A                ; Setup parameters for call to function macMcuOverflowCapture
   \   00039A   12....       LCALL   ??macMcuOverflowCapture?relay
   \   00039D   8A..         MOV     ?V0 + 4,R2
   \   00039F   8B..         MOV     ?V0 + 5,R3
   \   0003A1   8C..         MOV     ?V0 + 6,R4
   \   0003A3   8D..         MOV     ?V0 + 7,R5
   \   0003A5   90....       MOV     DPTR,#pRxBuf
   \   0003A8   E0           MOVX    A,@DPTR
   \   0003A9   2424         ADD     A,#0x24
   \   0003AB   F8           MOV     R0,A
   \   0003AC   A3           INC     DPTR
   \   0003AD   E0           MOVX    A,@DPTR
   \   0003AE   3400         ADDC    A,#0x0
   \   0003B0   F9           MOV     R1,A
   \   0003B1   8882         MOV     DPL,R0
   \   0003B3   8983         MOV     DPH,R1
   \   0003B5   78..         MOV     R0,#?V0 + 4
   \   0003B7   12....       LCALL   ?L_MOV_TO_X
    745            pRxBuf->mac.timestamp2        = MAC_RADIO_TIMER_CAPTURE();
   \   0003BA                ; Setup parameters for call to function macMcuTimerCapture
   \   0003BA   12....       LCALL   ??macMcuTimerCapture?relay
   \   0003BD   90....       MOV     DPTR,#pRxBuf
   \   0003C0   E0           MOVX    A,@DPTR
   \   0003C1   2428         ADD     A,#0x28
   \   0003C3   F8           MOV     R0,A
   \   0003C4   A3           INC     DPTR
   \   0003C5   E0           MOVX    A,@DPTR
   \   0003C6   3400         ADDC    A,#0x0
   \   0003C8   F9           MOV     R1,A
   \   0003C9   8882         MOV     DPL,R0
   \   0003CB   8983         MOV     DPH,R1
   \   0003CD   EA           MOV     A,R2
   \   0003CE   F0           MOVX    @DPTR,A
   \   0003CF   A3           INC     DPTR
   \   0003D0   EB           MOV     A,R3
   \   0003D1   F0           MOVX    @DPTR,A
    746            pRxBuf->internal.frameType    = MAC_FRAME_TYPE(&rxBuf[1]);
   \   0003D2   90....       MOV     DPTR,#rxBuf + 1
   \   0003D5   E0           MOVX    A,@DPTR
   \   0003D6   5407         ANL     A,#0x7
   \   0003D8   C0E0         PUSH    A
   \   0003DA   90....       MOV     DPTR,#pRxBuf
   \   0003DD   E0           MOVX    A,@DPTR
   \   0003DE   F8           MOV     R0,A
   \   0003DF   A3           INC     DPTR
   \   0003E0   E0           MOVX    A,@DPTR
   \   0003E1   F583         MOV     DPH,A
   \   0003E3   8882         MOV     DPL,R0
   \   0003E5   A3           INC     DPTR
   \   0003E6   A3           INC     DPTR
   \   0003E7   A3           INC     DPTR
   \   0003E8   A3           INC     DPTR
   \   0003E9   A3           INC     DPTR
   \   0003EA   D0E0         POP     A
   \   0003EC   F0           MOVX    @DPTR,A
    747            pRxBuf->mac.dsn               = MAC_SEQ_NUMBER(&rxBuf[1]);
   \   0003ED   90....       MOV     DPTR,#rxBuf + 3
   \   0003F0   E0           MOVX    A,@DPTR
   \   0003F1   C0E0         PUSH    A
   \   0003F3   90....       MOV     DPTR,#pRxBuf
   \   0003F6   E0           MOVX    A,@DPTR
   \   0003F7   2431         ADD     A,#0x31
   \   0003F9   F8           MOV     R0,A
   \   0003FA   A3           INC     DPTR
   \   0003FB   E0           MOVX    A,@DPTR
   \   0003FC   3400         ADDC    A,#0x0
   \   0003FE   F9           MOV     R1,A
   \   0003FF   8882         MOV     DPL,R0
   \   000401   8983         MOV     DPH,R1
   \   000403   D0E0         POP     A
   \   000405   F0           MOVX    @DPTR,A
    748            pRxBuf->internal.flags        = INTERNAL_FCF_FLAGS(&rxBuf[1]) | ackWithPending;
   \   000406   90....       MOV     DPTR,#rxBuf + 1
   \   000409   E0           MOVX    A,@DPTR
   \   00040A   5478         ANL     A,#0x78
   \   00040C   F8           MOV     R0,A
   \   00040D   A3           INC     DPTR
   \   00040E   E0           MOVX    A,@DPTR
   \   00040F   C4           SWAP    A
   \   000410   540F         ANL     A,#0xf
   \   000412   5403         ANL     A,#0x3
   \   000414   48           ORL     A,R0
   \   000415   45..         ORL     A,?V0 + 0
   \   000417   C0E0         PUSH    A
   \   000419   90....       MOV     DPTR,#pRxBuf
   \   00041C   E0           MOVX    A,@DPTR
   \   00041D   F8           MOV     R0,A
   \   00041E   A3           INC     DPTR
   \   00041F   E0           MOVX    A,@DPTR
   \   000420   F583         MOV     DPH,A
   \   000422   8882         MOV     DPL,R0
   \   000424   A3           INC     DPTR
   \   000425   A3           INC     DPTR
   \   000426   A3           INC     DPTR
   \   000427   A3           INC     DPTR
   \   000428   A3           INC     DPTR
   \   000429   A3           INC     DPTR
   \   00042A   D0E0         POP     A
   \   00042C   F0           MOVX    @DPTR,A
    749            pRxBuf->sec.securityLevel     = MAC_SEC_LEVEL_NONE;
   \   00042D   90....       MOV     DPTR,#pRxBuf
   \   000430   E0           MOVX    A,@DPTR
   \   000431   240F         ADD     A,#0xf
   \   000433   F8           MOV     R0,A
   \   000434   A3           INC     DPTR
   \   000435   E0           MOVX    A,@DPTR
   \   000436   3400         ADDC    A,#0x0
   \   000438   F9           MOV     R1,A
   \   000439   8882         MOV     DPL,R0
   \   00043B   8983         MOV     DPH,R1
   \   00043D   E4           CLR     A
   \   00043E   F0           MOVX    @DPTR,A
    750          
    751            /*-------------------------------------------------------------------------------
    752             *  If the processing the addressing fields does not require more bytes from
    753             *  the FIFO go directly address processing function.  Otherwise, configure
    754             *  interrupt to jump there once bytes are received.
    755             */
    756            if (addrLen == 0)
   \   00043F   EE           MOV     A,R6
   \   000440   7039         JNZ     ??rxStartIsr_39
    757            {
    758              /* no addressing fields to read, prepare for payload interrupts */
    759              pFuncRxState = &rxPayloadIsr;
   \   000442   90....       MOV     DPTR,#pFuncRxState
   \   000445   74..         MOV     A,#??rxPayloadIsr?relay & 0xff
   \   000447   F0           MOVX    @DPTR,A
   \   000448   A3           INC     DPTR
   \   000449   74..         MOV     A,#(??rxPayloadIsr?relay >> 8) & 0xff
   \   00044B   F0           MOVX    @DPTR,A
    760              rxPrepPayload();
   \   00044C   90....       MOV     DPTR,#rxPayloadLen
   \   00044F   E0           MOVX    A,@DPTR
   \   000450   7011         JNZ     ??rxStartIsr_40
   \   000452   906194       MOV     DPTR,#0x6194
   \   000455   7401         MOV     A,#0x1
   \   000457   F0           MOVX    @DPTR,A
   \   000458   90....       MOV     DPTR,#pFuncRxState
   \   00045B   74..         MOV     A,#??rxFcsIsr?relay & 0xff
   \   00045D   F0           MOVX    @DPTR,A
   \   00045E   A3           INC     DPTR
   \   00045F   74..         MOV     A,#(??rxFcsIsr?relay >> 8) & 0xff
   \   000461   802A         SJMP    ??rxStartIsr_31
   \                     ??rxStartIsr_40:
   \   000463   C3           CLR     C
   \   000464   9410         SUBB    A,#0x10
   \   000466   5006         JNC     ??rxStartIsr_41
   \   000468   E0           MOVX    A,@DPTR
   \   000469   90....       MOV     DPTR,#rxNextLen
   \   00046C   8005         SJMP    ??rxStartIsr_42
   \                     ??rxStartIsr_41:
   \   00046E   90....       MOV     DPTR,#rxNextLen
   \   000471   7410         MOV     A,#0x10
   \                     ??rxStartIsr_42:
   \   000473   F0           MOVX    @DPTR,A
   \   000474   E0           MOVX    A,@DPTR
   \   000475   14           DEC     A
   \   000476   906194       MOV     DPTR,#0x6194
   \   000479   8012         SJMP    ??rxStartIsr_31
    761            }
    762            else
    763            {
    764              /* need to read and process addressing fields, prepare for address interrupt */
    765              rxNextLen = addrLen;
   \                     ??rxStartIsr_39:
   \   00047B   90....       MOV     DPTR,#rxNextLen
   \   00047E   F0           MOVX    @DPTR,A
    766              MAC_RADIO_SET_RX_THRESHOLD(rxNextLen);
   \   00047F   14           DEC     A
   \   000480   906194       MOV     DPTR,#0x6194
   \   000483   F0           MOVX    @DPTR,A
    767              pFuncRxState = &rxAddrIsr;
   \   000484   90....       MOV     DPTR,#pFuncRxState
   \   000487   74..         MOV     A,#??rxAddrIsr?relay & 0xff
   \   000489   F0           MOVX    @DPTR,A
   \   00048A   A3           INC     DPTR
   \   00048B   74..         MOV     A,#(??rxAddrIsr?relay >> 8) & 0xff
   \                     ??rxStartIsr_31:
   \   00048D   F0           MOVX    @DPTR,A
   \                     ??rxStartIsr_4:
   \   00048E   7402         MOV     A,#0x2
   \   000490   12....       LCALL   ?DEALLOC_XSTACK8
   \   000493   7F08         MOV     R7,#0x8
   \   000495   02....       LJMP    ?BANKED_LEAVE_XDATA
   \   000498                REQUIRE RFST
   \   000498                REQUIRE _A_IEN0
   \   000498                REQUIRE S1CON
   \   000498                REQUIRE RFIRQF1
    768            }
    769          }
    770          
    771          
    772          /*=================================================================================================
    773           * @fn          rxAddrIsr
    774           *
    775           * @brief       Receive ISR state for decoding address.  Reads and stores the address information
    776           *              from the incoming packet.
    777           *
    778           * @param       none
    779           *
    780           * @return      none
    781           *=================================================================================================
    782           */

   \                                 In  segment BANKED_CODE, align 1, keep-with-next
    783          static void rxAddrIsr(void)
   \                     rxAddrIsr:
    784          {
   \   000000   74F7         MOV     A,#-0x9
   \   000002   12....       LCALL   ?BANKED_ENTER_XDATA
   \   000005                ; Saved register size: 9
   \   000005                ; Auto size: 20
   \   000005   74EC         MOV     A,#-0x14
   \   000007   12....       LCALL   ?ALLOC_XSTACK8
    785            uint8 buf[MAX_ADDR_FIELDS_LEN];
    786            uint8 dstAddrMode;
    787            uint8 srcAddrMode;
    788            uint8  * p;
    789          
    790            MAC_ASSERT(rxNextLen != 0); /* logic assumes at least one address byte in buffer */
   \   00000A   90....       MOV     DPTR,#rxNextLen
   \   00000D   E0           MOVX    A,@DPTR
   \   00000E   7003         JNZ     ??rxAddrIsr_0
   \   000010                ; Setup parameters for call to function halAssertHandler
   \   000010   12....       LCALL   ??halAssertHandler?relay
    791          
    792            /*  read out address fields into local buffer in one shot */
    793            MAC_RADIO_READ_RX_FIFO(buf, rxNextLen);
   \                     ??rxAddrIsr_0:
   \   000013                ; Setup parameters for call to function macMemReadRxFifo
   \   000013   90....       MOV     DPTR,#rxNextLen
   \   000016   E0           MOVX    A,@DPTR
   \   000017   F9           MOV     R1,A
   \   000018   85..82       MOV     DPL,?XSP + 0
   \   00001B   85..83       MOV     DPH,?XSP + 1
   \   00001E   AA82         MOV     R2,DPL
   \   000020   AB83         MOV     R3,DPH
   \   000022   12....       LCALL   ??macMemReadRxFifo?relay
    794          
    795            /* set pointer to buffer with addressing fields */
    796            p = buf;
   \   000025   85..82       MOV     DPL,?XSP + 0
   \   000028   85..83       MOV     DPH,?XSP + 1
   \   00002B   AC82         MOV     R4,DPL
   \   00002D   AD83         MOV     R5,DPH
    797          
    798            /* destination address */
    799            dstAddrMode = MAC_DEST_ADDR_MODE(&rxBuf[1]);
   \   00002F   90....       MOV     DPTR,#rxBuf + 2
   \   000032   E0           MOVX    A,@DPTR
   \   000033   13           RRC     A
   \   000034   13           RRC     A
   \   000035   543F         ANL     A,#0x3f
   \   000037   5403         ANL     A,#0x3
   \   000039   FE           MOV     R6,A
    800            if (dstAddrMode != SADDR_MODE_NONE)
   \   00003A   7003         JNZ     $+5
   \   00003C   02....       LJMP    ??rxAddrIsr_1 & 0xFFFF
    801            {
    802              pRxBuf->mac.srcPanId = pRxBuf->mac.dstPanId = BUILD_UINT16(p[0], p[1]);
   \   00003F   90....       MOV     DPTR,#pRxBuf
   \   000042   E0           MOVX    A,@DPTR
   \   000043   242C         ADD     A,#0x2c
   \   000045   F8           MOV     R0,A
   \   000046   A3           INC     DPTR
   \   000047   E0           MOVX    A,@DPTR
   \   000048   3400         ADDC    A,#0x0
   \   00004A   F9           MOV     R1,A
   \   00004B   85..82       MOV     DPL,?XSP + 0
   \   00004E   85..83       MOV     DPH,?XSP + 1
   \   000051   E0           MOVX    A,@DPTR
   \   000052   FC           MOV     R4,A
   \   000053   7401         MOV     A,#0x1
   \   000055   12....       LCALL   ?XSTACK_DISP0_8
   \   000058   E0           MOVX    A,@DPTR
   \   000059   FB           MOV     R3,A
   \   00005A   EC           MOV     A,R4
   \   00005B   8882         MOV     DPL,R0
   \   00005D   8983         MOV     DPH,R1
   \   00005F   F0           MOVX    @DPTR,A
   \   000060   A3           INC     DPTR
   \   000061   EB           MOV     A,R3
   \   000062   F0           MOVX    @DPTR,A
   \   000063   8882         MOV     DPL,R0
   \   000065   8983         MOV     DPH,R1
   \   000067   E0           MOVX    A,@DPTR
   \   000068   FA           MOV     R2,A
   \   000069   90....       MOV     DPTR,#pRxBuf
   \   00006C   E0           MOVX    A,@DPTR
   \   00006D   242A         ADD     A,#0x2a
   \   00006F   F8           MOV     R0,A
   \   000070   A3           INC     DPTR
   \   000071   E0           MOVX    A,@DPTR
   \   000072   3400         ADDC    A,#0x0
   \   000074   F9           MOV     R1,A
   \   000075   8882         MOV     DPL,R0
   \   000077   8983         MOV     DPH,R1
   \   000079   EA           MOV     A,R2
   \   00007A   F0           MOVX    @DPTR,A
   \   00007B   A3           INC     DPTR
   \   00007C   EB           MOV     A,R3
   \   00007D   F0           MOVX    @DPTR,A
    803              p += MAC_PAN_ID_FIELD_LEN;
    804              if (dstAddrMode == SADDR_MODE_EXT)
   \   00007E   90....       MOV     DPTR,#pRxBuf
   \   000081   E0           MOVX    A,@DPTR
   \   000082   241B         ADD     A,#0x1b
   \   000084   FA           MOV     R2,A
   \   000085   A3           INC     DPTR
   \   000086   E0           MOVX    A,@DPTR
   \   000087   3400         ADDC    A,#0x0
   \   000089   FB           MOV     R3,A
   \   00008A   7403         MOV     A,#0x3
   \   00008C   6E           XRL     A,R6
   \   00008D   7010         JNZ     ??rxAddrIsr_2
    805              {
    806                sAddrExtCpy(pRxBuf->mac.dstAddr.addr.extAddr, p);
   \   00008F                ; Setup parameters for call to function sAddrExtCpy
   \   00008F   7402         MOV     A,#0x2
   \   000091   12....       LCALL   ?XSTACK_DISP0_8
   \   000094   AC82         MOV     R4,DPL
   \   000096   AD83         MOV     R5,DPH
   \   000098   12....       LCALL   ??sAddrExtCpy?relay
    807                p += MAC_EXT_ADDR_FIELD_LEN;
   \   00009B   740A         MOV     A,#0xa
   \   00009D   8019         SJMP    ??rxAddrIsr_3
    808              }
    809              else
    810              {
    811                pRxBuf->mac.dstAddr.addr.shortAddr = BUILD_UINT16(p[0], p[1]);
   \                     ??rxAddrIsr_2:
   \   00009F   7402         MOV     A,#0x2
   \   0000A1   12....       LCALL   ?XSTACK_DISP0_8
   \   0000A4   E0           MOVX    A,@DPTR
   \   0000A5   FC           MOV     R4,A
   \   0000A6   7403         MOV     A,#0x3
   \   0000A8   12....       LCALL   ?XSTACK_DISP0_8
   \   0000AB   E0           MOVX    A,@DPTR
   \   0000AC   F9           MOV     R1,A
   \   0000AD   EC           MOV     A,R4
   \   0000AE   8A82         MOV     DPL,R2
   \   0000B0   8B83         MOV     DPH,R3
   \   0000B2   F0           MOVX    @DPTR,A
   \   0000B3   A3           INC     DPTR
   \   0000B4   E9           MOV     A,R1
   \   0000B5   F0           MOVX    @DPTR,A
    812                p += MAC_SHORT_ADDR_FIELD_LEN;
   \   0000B6   7404         MOV     A,#0x4
   \                     ??rxAddrIsr_3:
   \   0000B8   12....       LCALL   ?XSTACK_DISP0_8
   \   0000BB   AC82         MOV     R4,DPL
   \   0000BD   AD83         MOV     R5,DPH
    813              }
    814            }
    815          
    816            /* sources address */
    817            srcAddrMode = MAC_SRC_ADDR_MODE(&rxBuf[1]);
   \                     ??rxAddrIsr_1:
   \   0000BF   90....       MOV     DPTR,#rxBuf + 2
   \   0000C2   E0           MOVX    A,@DPTR
   \   0000C3   C4           SWAP    A
   \   0000C4   13           RRC     A
   \   0000C5   13           RRC     A
   \   0000C6   5403         ANL     A,#0x3
   \   0000C8   FE           MOV     R6,A
    818            if (srcAddrMode != SADDR_MODE_NONE)
   \   0000C9   606B         JZ      ??rxAddrIsr_4
    819            {
    820              if (!(pRxBuf->internal.flags & MAC_RX_FLAG_INTRA_PAN))
   \   0000CB   90....       MOV     DPTR,#pRxBuf
   \   0000CE   E0           MOVX    A,@DPTR
   \   0000CF   F8           MOV     R0,A
   \   0000D0   A3           INC     DPTR
   \   0000D1   E0           MOVX    A,@DPTR
   \   0000D2   F583         MOV     DPH,A
   \   0000D4   8882         MOV     DPL,R0
   \   0000D6   A3           INC     DPTR
   \   0000D7   A3           INC     DPTR
   \   0000D8   A3           INC     DPTR
   \   0000D9   A3           INC     DPTR
   \   0000DA   A3           INC     DPTR
   \   0000DB   A3           INC     DPTR
   \   0000DC   E0           MOVX    A,@DPTR
   \   0000DD   A2E6         MOV     C,0xE0 /* A   */.6
   \   0000DF   402D         JC      ??rxAddrIsr_5
    821              {
    822                pRxBuf->mac.srcPanId = BUILD_UINT16(p[0], p[1]);
   \   0000E1   8C82         MOV     DPL,R4
   \   0000E3   8D83         MOV     DPH,R5
   \   0000E5   E0           MOVX    A,@DPTR
   \   0000E6   FA           MOV     R2,A
   \   0000E7   A3           INC     DPTR
   \   0000E8   E0           MOVX    A,@DPTR
   \   0000E9   F9           MOV     R1,A
   \   0000EA   EA           MOV     A,R2
   \   0000EB   2400         ADD     A,#0x0
   \   0000ED   E4           CLR     A
   \   0000EE   39           ADDC    A,R1
   \   0000EF   FB           MOV     R3,A
   \   0000F0   90....       MOV     DPTR,#pRxBuf
   \   0000F3   E0           MOVX    A,@DPTR
   \   0000F4   242A         ADD     A,#0x2a
   \   0000F6   F8           MOV     R0,A
   \   0000F7   A3           INC     DPTR
   \   0000F8   E0           MOVX    A,@DPTR
   \   0000F9   3400         ADDC    A,#0x0
   \   0000FB   F9           MOV     R1,A
   \   0000FC   8882         MOV     DPL,R0
   \   0000FE   8983         MOV     DPH,R1
   \   000100   EA           MOV     A,R2
   \   000101   F0           MOVX    @DPTR,A
   \   000102   A3           INC     DPTR
   \   000103   EB           MOV     A,R3
   \   000104   F0           MOVX    @DPTR,A
    823                p += MAC_PAN_ID_FIELD_LEN;
   \   000105   EC           MOV     A,R4
   \   000106   2402         ADD     A,#0x2
   \   000108   0C           INC     R4
   \   000109   0C           INC     R4
   \   00010A   ED           MOV     A,R5
   \   00010B   3400         ADDC    A,#0x0
   \   00010D   FD           MOV     R5,A
    824              }
    825              if (srcAddrMode == SADDR_MODE_EXT)
   \                     ??rxAddrIsr_5:
   \   00010E   90....       MOV     DPTR,#pRxBuf
   \   000111   E0           MOVX    A,@DPTR
   \   000112   2412         ADD     A,#0x12
   \   000114   FA           MOV     R2,A
   \   000115   A3           INC     DPTR
   \   000116   E0           MOVX    A,@DPTR
   \   000117   3400         ADDC    A,#0x0
   \   000119   FB           MOV     R3,A
   \   00011A   7403         MOV     A,#0x3
   \   00011C   6E           XRL     A,R6
   \   00011D   7005         JNZ     ??rxAddrIsr_6
    826              {
    827                sAddrExtCpy(pRxBuf->mac.srcAddr.addr.extAddr, p);
   \   00011F                ; Setup parameters for call to function sAddrExtCpy
   \   00011F   12....       LCALL   ??sAddrExtCpy?relay
   \   000122   8012         SJMP    ??rxAddrIsr_4
    828              }
    829              else
    830              {
    831                pRxBuf->mac.srcAddr.addr.shortAddr = BUILD_UINT16(p[0], p[1]);
   \                     ??rxAddrIsr_6:
   \   000124   8C82         MOV     DPL,R4
   \   000126   8D83         MOV     DPH,R5
   \   000128   E0           MOVX    A,@DPTR
   \   000129   FE           MOV     R6,A
   \   00012A   A3           INC     DPTR
   \   00012B   E0           MOVX    A,@DPTR
   \   00012C   F9           MOV     R1,A
   \   00012D   EE           MOV     A,R6
   \   00012E   8A82         MOV     DPL,R2
   \   000130   8B83         MOV     DPH,R3
   \   000132   F0           MOVX    @DPTR,A
   \   000133   A3           INC     DPTR
   \   000134   E9           MOV     A,R1
   \   000135   F0           MOVX    @DPTR,A
    832              }
    833            }
    834          
    835            /*-------------------------------------------------------------------------------
    836             *  Prepare for payload interrupts.
    837             */
    838            pFuncRxState = &rxPayloadIsr;
   \                     ??rxAddrIsr_4:
   \   000136   90....       MOV     DPTR,#pFuncRxState
   \   000139   74..         MOV     A,#??rxPayloadIsr?relay & 0xff
   \   00013B   F0           MOVX    @DPTR,A
   \   00013C   A3           INC     DPTR
   \   00013D   74..         MOV     A,#(??rxPayloadIsr?relay >> 8) & 0xff
   \   00013F   F0           MOVX    @DPTR,A
    839            rxPrepPayload();
   \   000140   90....       MOV     DPTR,#rxPayloadLen
   \   000143   E0           MOVX    A,@DPTR
   \   000144   7011         JNZ     ??rxAddrIsr_7
   \   000146   906194       MOV     DPTR,#0x6194
   \   000149   7401         MOV     A,#0x1
   \   00014B   F0           MOVX    @DPTR,A
   \   00014C   90....       MOV     DPTR,#pFuncRxState
   \   00014F   74..         MOV     A,#??rxFcsIsr?relay & 0xff
   \   000151   F0           MOVX    @DPTR,A
   \   000152   A3           INC     DPTR
   \   000153   74..         MOV     A,#(??rxFcsIsr?relay >> 8) & 0xff
   \   000155   8016         SJMP    ??rxAddrIsr_8
   \                     ??rxAddrIsr_7:
   \   000157   C3           CLR     C
   \   000158   9410         SUBB    A,#0x10
   \   00015A   5006         JNC     ??rxAddrIsr_9
   \   00015C   E0           MOVX    A,@DPTR
   \   00015D   90....       MOV     DPTR,#rxNextLen
   \   000160   8005         SJMP    ??rxAddrIsr_10
   \                     ??rxAddrIsr_9:
   \   000162   90....       MOV     DPTR,#rxNextLen
   \   000165   7410         MOV     A,#0x10
   \                     ??rxAddrIsr_10:
   \   000167   F0           MOVX    @DPTR,A
   \   000168   E0           MOVX    A,@DPTR
   \   000169   14           DEC     A
   \   00016A   906194       MOV     DPTR,#0x6194
   \                     ??rxAddrIsr_8:
   \   00016D   F0           MOVX    @DPTR,A
    840          }
   \   00016E   7414         MOV     A,#0x14
   \   000170   12....       LCALL   ?DEALLOC_XSTACK8
   \   000173                REQUIRE ?Subroutine1
   \   000173                ; // Fall through to label ?Subroutine1

   \                                 In  segment BANKED_CODE, align 1, keep-with-next
   \                     ?Subroutine1:
   \   000000   7F01         MOV     R7,#0x1
   \   000002   02....       LJMP    ?BANKED_LEAVE_XDATA
    841          
    842          
    843          /*=================================================================================================
    844           * @fn          rxPrepPayload
    845           *
    846           * @brief       Common code to prepare for the payload ISR.
    847           *
    848           * @param       none
    849           *
    850           * @return      none
    851           *=================================================================================================
    852           */
    853          static void rxPrepPayload(void)
    854          {
    855            if (rxPayloadLen == 0)
    856            {
    857              MAC_RADIO_SET_RX_THRESHOLD(MAC_FCS_FIELD_LEN);
    858              pFuncRxState = &rxFcsIsr;
    859            }
    860            else
    861            {
    862              rxNextLen = MIN(rxPayloadLen, MAX_PAYLOAD_BYTES_READ_PER_INTERRUPT);
    863              MAC_RADIO_SET_RX_THRESHOLD(rxNextLen);
    864            }
    865          }
    866          
    867          
    868          /*=================================================================================================
    869           * @fn          rxPayloadIsr
    870           *
    871           * @brief       Receive ISR state for reading out and storing the packet payload.
    872           *
    873           * @param       none
    874           *
    875           * @return      none
    876           *=================================================================================================
    877           */

   \                                 In  segment BANKED_CODE, align 1, keep-with-next
    878          static void rxPayloadIsr(void)
   \                     rxPayloadIsr:
    879          {
   \   000000   C082         PUSH    DPL
   \   000002   C083         PUSH    DPH
   \   000004                ; Saved register size: 2
   \   000004                ; Auto size: 0
    880            MAC_RADIO_READ_RX_FIFO(pRxBuf->msdu.p, rxNextLen);
   \   000004                ; Setup parameters for call to function macMemReadRxFifo
   \   000004   90....       MOV     DPTR,#rxNextLen
   \   000007   E0           MOVX    A,@DPTR
   \   000008   F9           MOV     R1,A
   \   000009   90....       MOV     DPTR,#pRxBuf
   \   00000C   E0           MOVX    A,@DPTR
   \   00000D   F8           MOV     R0,A
   \   00000E   A3           INC     DPTR
   \   00000F   E0           MOVX    A,@DPTR
   \   000010   F583         MOV     DPH,A
   \   000012   8882         MOV     DPL,R0
   \   000014   A3           INC     DPTR
   \   000015   A3           INC     DPTR
   \   000016   E0           MOVX    A,@DPTR
   \   000017   FA           MOV     R2,A
   \   000018   A3           INC     DPTR
   \   000019   E0           MOVX    A,@DPTR
   \   00001A   FB           MOV     R3,A
   \   00001B   12....       LCALL   ??macMemReadRxFifo?relay
    881            pRxBuf->msdu.p += rxNextLen;
   \   00001E   90....       MOV     DPTR,#pRxBuf
   \   000021   E0           MOVX    A,@DPTR
   \   000022   2402         ADD     A,#0x2
   \   000024   F8           MOV     R0,A
   \   000025   A3           INC     DPTR
   \   000026   E0           MOVX    A,@DPTR
   \   000027   3400         ADDC    A,#0x0
   \   000029   F9           MOV     R1,A
   \   00002A   90....       MOV     DPTR,#rxNextLen
   \   00002D   E0           MOVX    A,@DPTR
   \   00002E   FA           MOV     R2,A
   \   00002F   8882         MOV     DPL,R0
   \   000031   8983         MOV     DPH,R1
   \   000033   E0           MOVX    A,@DPTR
   \   000034   2A           ADD     A,R2
   \   000035   FA           MOV     R2,A
   \   000036   A3           INC     DPTR
   \   000037   E0           MOVX    A,@DPTR
   \   000038   3400         ADDC    A,#0x0
   \   00003A   FB           MOV     R3,A
   \   00003B   8882         MOV     DPL,R0
   \   00003D   8983         MOV     DPH,R1
   \   00003F   EA           MOV     A,R2
   \   000040   F0           MOVX    @DPTR,A
   \   000041   A3           INC     DPTR
   \   000042   EB           MOV     A,R3
   \   000043   F0           MOVX    @DPTR,A
    882            rxPayloadLen -= rxNextLen;
   \   000044   90....       MOV     DPTR,#rxNextLen
   \   000047   E0           MOVX    A,@DPTR
   \   000048   F8           MOV     R0,A
   \   000049   90....       MOV     DPTR,#rxPayloadLen
   \   00004C   E0           MOVX    A,@DPTR
   \   00004D   C3           CLR     C
   \   00004E   98           SUBB    A,R0
   \   00004F   F0           MOVX    @DPTR,A
    883          
    884            rxPrepPayload();
   \   000050   7011         JNZ     ??rxPayloadIsr_0
   \   000052   906194       MOV     DPTR,#0x6194
   \   000055   7401         MOV     A,#0x1
   \   000057   F0           MOVX    @DPTR,A
   \   000058   90....       MOV     DPTR,#pFuncRxState
   \   00005B   74..         MOV     A,#??rxFcsIsr?relay & 0xff
   \   00005D   F0           MOVX    @DPTR,A
   \   00005E   A3           INC     DPTR
   \   00005F   74..         MOV     A,#(??rxFcsIsr?relay >> 8) & 0xff
   \   000061   8016         SJMP    ??rxPayloadIsr_1
   \                     ??rxPayloadIsr_0:
   \   000063   C3           CLR     C
   \   000064   9410         SUBB    A,#0x10
   \   000066   5006         JNC     ??rxPayloadIsr_2
   \   000068   E0           MOVX    A,@DPTR
   \   000069   90....       MOV     DPTR,#rxNextLen
   \   00006C   8005         SJMP    ??rxPayloadIsr_3
   \                     ??rxPayloadIsr_2:
   \   00006E   90....       MOV     DPTR,#rxNextLen
   \   000071   7410         MOV     A,#0x10
   \                     ??rxPayloadIsr_3:
   \   000073   F0           MOVX    @DPTR,A
   \   000074   E0           MOVX    A,@DPTR
   \   000075   14           DEC     A
   \   000076   906194       MOV     DPTR,#0x6194
   \                     ??rxPayloadIsr_1:
   \   000079   02....       LJMP    ?Subroutine0 & 0xFFFF
    885          }
    886          
    887          
    888          /*=================================================================================================
    889           * @fn          rxFcsIsr
    890           *
    891           * @brief       Receive ISR state for handling the FCS.
    892           *
    893           * @param       none
    894           *
    895           * @return      none
    896           *=================================================================================================
    897           */

   \                                 In  segment BANKED_CODE, align 1, keep-with-next
    898          static void rxFcsIsr(void)
   \                     rxFcsIsr:
    899          {
   \   000000   74F6         MOV     A,#-0xa
   \   000002   12....       LCALL   ?BANKED_ENTER_XDATA
   \   000005                ; Saved register size: 10
   \   000005                ; Auto size: 0
    900            uint8 crcOK;
    901            uint8 ackWithPending = 0;
   \   000005   75..00       MOV     ?V0 + 0,#0x0
    902          
    903            /* read FCS, rxBuf is now available storage */
    904            MAC_RADIO_READ_RX_FIFO(rxBuf, MAC_FCS_FIELD_LEN);
   \   000008                ; Setup parameters for call to function macMemReadRxFifo
   \   000008   7902         MOV     R1,#0x2
   \   00000A   7A..         MOV     R2,#rxBuf & 0xff
   \   00000C   7B..         MOV     R3,#(rxBuf >> 8) & 0xff
   \   00000E   12....       LCALL   ??macMemReadRxFifo?relay
    905          
    906            /*
    907             *  The FCS has actually been replaced within the radio by a proprietary version of the FCS.
    908             *  This proprietary FCS is two bytes (same length as the real FCS) and contains:
    909             *    1) the RSSI value
    910             *    2) the average correlation value (used for LQI)
    911             *    3) a CRC passed bit
    912             */
    913          
    914            /* save the "CRC-is-OK" status */
    915            crcOK = PROPRIETARY_FCS_CRC_OK(rxBuf);
   \   000011   90....       MOV     DPTR,#rxBuf + 1
   \   000014   E0           MOVX    A,@DPTR
   \   000015   5480         ANL     A,#0x80
   \   000017   F5..         MOV     ?V0 + 1,A
    916          
    917            /*
    918             *  See if the frame should be passed up to high-level MAC.  If the CRC is OK, the
    919             *  the frame is always passed up.  Frames with a bad CRC are also passed up *if*
    920             *  a special variant of promiscuous mode is active.
    921             */
    922            if (crcOK || (rxPromiscuousMode == MAC_PROMISCUOUS_MODE_WITH_BAD_CRC))
   \   000019   700B         JNZ     ??rxFcsIsr_0
   \   00001B   90....       MOV     DPTR,#rxPromiscuousMode
   \   00001E   E0           MOVX    A,@DPTR
   \   00001F   6402         XRL     A,#0x2
   \   000021   6003         JZ      $+5
   \   000023   02....       LJMP    ??rxFcsIsr_1 & 0xFFFF
    923            {
    924              int8 rssiDbm;
    925              uint8 corr;
    926          
    927              /*
    928               *  As power saving optimization, set state variable to indicate physical receive
    929               *  has completed and then request turning of the receiver.  This means the receiver
    930               *  can be off (if other conditions permit) during execution of the callback function.
    931               *
    932               *  The receiver will be requested to turn off once again at the end of the receive
    933               *  logic.  There is no harm in doing this.
    934               */
    935              macRxActive = MAC_RX_ACTIVE_DONE;
   \                     ??rxFcsIsr_0:
   \   000026   90....       MOV     DPTR,#macRxActive
   \   000029   7402         MOV     A,#0x2
   \   00002B   F0           MOVX    @DPTR,A
    936              macRxOffRequest();
   \   00002C                ; Setup parameters for call to function macRxOffRequest
   \   00002C   12....       LCALL   ??macRxOffRequest?relay
    937          
    938              /* decode RSSI and correlation values */
    939              rssiDbm = PROPRIETARY_FCS_RSSI(rxBuf) + MAC_RADIO_RSSI_OFFSET;
   \   00002F   90....       MOV     DPTR,#rxBuf
   \   000032   E0           MOVX    A,@DPTR
   \   000033   24B7         ADD     A,#-0x49
   \   000035   FF           MOV     R7,A
    940              MAC_RADIO_RSSI_LNA_OFFSET(rssiDbm);
    941              corr = PROPRIETARY_FCS_CORRELATION_VALUE(rxBuf);
   \   000036   A3           INC     DPTR
   \   000037   E0           MOVX    A,@DPTR
   \   000038   547F         ANL     A,#0x7f
   \   00003A   FE           MOV     R6,A
    942          
    943              /* Read the source matching result back */
    944              if( macSrcMatchIsEnabled && MAC_RADIO_SRC_MATCH_RESULT() )
   \   00003B   90....       MOV     DPTR,#macSrcMatchIsEnabled
   \   00003E   E0           MOVX    A,@DPTR
   \   00003F   6009         JZ      ??rxFcsIsr_2
   \   000041                ; Setup parameters for call to function MAC_SrcMatchCheckResult
   \   000041   12....       LCALL   ??MAC_SrcMatchCheckResult?relay
   \   000044   E9           MOV     A,R1
   \   000045   6003         JZ      ??rxFcsIsr_2
    945              {
    946                /* This result will not overwrite the previously determined pRxBuf->internal.flags */
    947                ackWithPending = MAC_RX_FLAG_ACK_PENDING;
   \   000047   75..04       MOV     ?V0 + 0,#0x4
    948              }
    949          
    950              /* record parameters that get passed up to high-level */
    951              pRxBuf->internal.flags |= ( crcOK | ackWithPending );
   \                     ??rxFcsIsr_2:
   \   00004A   E5..         MOV     A,?V0 + 1
   \   00004C   45..         ORL     A,?V0 + 0
   \   00004E   F8           MOV     R0,A
   \   00004F   90....       MOV     DPTR,#pRxBuf
   \   000052   E0           MOVX    A,@DPTR
   \   000053   F9           MOV     R1,A
   \   000054   A3           INC     DPTR
   \   000055   E0           MOVX    A,@DPTR
   \   000056   F583         MOV     DPH,A
   \   000058   8982         MOV     DPL,R1
   \   00005A   A3           INC     DPTR
   \   00005B   A3           INC     DPTR
   \   00005C   A3           INC     DPTR
   \   00005D   A3           INC     DPTR
   \   00005E   A3           INC     DPTR
   \   00005F   A3           INC     DPTR
   \   000060   E0           MOVX    A,@DPTR
   \   000061   48           ORL     A,R0
   \   000062   F0           MOVX    @DPTR,A
    952              pRxBuf->mac.mpduLinkQuality = macRadioComputeLQI(rssiDbm, corr);
   \   000063                ; Setup parameters for call to function macRadioComputeLQI
   \   000063   EE           MOV     A,R6
   \   000064   FA           MOV     R2,A
   \   000065   EF           MOV     A,R7
   \   000066   F9           MOV     R1,A
   \   000067   12....       LCALL   ??macRadioComputeLQI?relay
   \   00006A   E9           MOV     A,R1
   \   00006B   C0E0         PUSH    A
   \   00006D   90....       MOV     DPTR,#pRxBuf
   \   000070   E0           MOVX    A,@DPTR
   \   000071   242E         ADD     A,#0x2e
   \   000073   F8           MOV     R0,A
   \   000074   A3           INC     DPTR
   \   000075   E0           MOVX    A,@DPTR
   \   000076   3400         ADDC    A,#0x0
   \   000078   F9           MOV     R1,A
   \   000079   8882         MOV     DPL,R0
   \   00007B   8983         MOV     DPH,R1
   \   00007D   D0E0         POP     A
   \   00007F   F0           MOVX    @DPTR,A
    953              pRxBuf->mac.rssi = rssiDbm;
   \   000080   90....       MOV     DPTR,#pRxBuf
   \   000083   E0           MOVX    A,@DPTR
   \   000084   2430         ADD     A,#0x30
   \   000086   F8           MOV     R0,A
   \   000087   A3           INC     DPTR
   \   000088   E0           MOVX    A,@DPTR
   \   000089   3400         ADDC    A,#0x0
   \   00008B   F9           MOV     R1,A
   \   00008C   8882         MOV     DPL,R0
   \   00008E   8983         MOV     DPH,R1
   \   000090   EF           MOV     A,R7
   \   000091   F0           MOVX    @DPTR,A
    954              pRxBuf->mac.correlation = corr;
   \   000092   90....       MOV     DPTR,#pRxBuf
   \   000095   E0           MOVX    A,@DPTR
   \   000096   242F         ADD     A,#0x2f
   \   000098   F8           MOV     R0,A
   \   000099   A3           INC     DPTR
   \   00009A   E0           MOVX    A,@DPTR
   \   00009B   3400         ADDC    A,#0x0
   \   00009D   F9           MOV     R1,A
   \   00009E   8882         MOV     DPL,R0
   \   0000A0   8983         MOV     DPH,R1
   \   0000A2   EE           MOV     A,R6
   \   0000A3   F0           MOVX    @DPTR,A
    955          
    956              /* set the MSDU pointer to point at start of data */
    957              pRxBuf->msdu.p = (uint8 *) (pRxBuf + 1);
   \   0000A4   90....       MOV     DPTR,#pRxBuf
   \   0000A7   E0           MOVX    A,@DPTR
   \   0000A8   2432         ADD     A,#0x32
   \   0000AA   F8           MOV     R0,A
   \   0000AB   A3           INC     DPTR
   \   0000AC   E0           MOVX    A,@DPTR
   \   0000AD   3400         ADDC    A,#0x0
   \   0000AF   F9           MOV     R1,A
   \   0000B0   90....       MOV     DPTR,#pRxBuf
   \   0000B3   E0           MOVX    A,@DPTR
   \   0000B4   FA           MOV     R2,A
   \   0000B5   A3           INC     DPTR
   \   0000B6   E0           MOVX    A,@DPTR
   \   0000B7   F583         MOV     DPH,A
   \   0000B9   8A82         MOV     DPL,R2
   \   0000BB   A3           INC     DPTR
   \   0000BC   A3           INC     DPTR
   \   0000BD   E8           MOV     A,R0
   \   0000BE   F0           MOVX    @DPTR,A
   \   0000BF   A3           INC     DPTR
   \   0000C0   E9           MOV     A,R1
   \   0000C1   F0           MOVX    @DPTR,A
    958          
    959              /* finally... execute callback function */
    960              macRxCompleteCallback(pRxBuf);
   \   0000C2                ; Setup parameters for call to function macRxCompleteCallback
   \   0000C2   90....       MOV     DPTR,#pRxBuf
   \   0000C5   E0           MOVX    A,@DPTR
   \   0000C6   FA           MOV     R2,A
   \   0000C7   A3           INC     DPTR
   \   0000C8   E0           MOVX    A,@DPTR
   \   0000C9   FB           MOV     R3,A
   \   0000CA   12....       LCALL   ??macRxCompleteCallback?relay
    961              pRxBuf = NULL; /* needed to indicate buffer is no longer allocated */
   \   0000CD   8013         SJMP    ??rxFcsIsr_3
    962            }
    963            else
    964            {
    965              /*
    966               *  The CRC is bad so no ACK was sent.  Cancel any callback and clear the flag.
    967               *  (It's OK to cancel the outgoing ACK even if an ACK was not requested.  It's
    968               *  slightly more efficient to do so.)
    969               */
    970              MAC_RADIO_CANCEL_ACK_TX_DONE_CALLBACK();
   \                     ??rxFcsIsr_1:
   \   0000CF   9061A4       MOV     DPTR,#0x61a4
   \   0000D2   E0           MOVX    A,@DPTR
   \   0000D3   C2E0         CLR     0xE0 /* A   */.0
   \   0000D5   F0           MOVX    @DPTR,A
    971              macRxOutgoingAckFlag = 0;
   \   0000D6   90....       MOV     DPTR,#macRxOutgoingAckFlag
   \   0000D9   E4           CLR     A
   \   0000DA   F0           MOVX    @DPTR,A
    972          
    973              /* the CRC failed so the packet must be discarded */
    974              MEM_FREE((uint8 **)&pRxBuf);
   \   0000DB                ; Setup parameters for call to function macDataRxMemFree
   \   0000DB   7A..         MOV     R2,#pRxBuf & 0xff
   \   0000DD   7B..         MOV     R3,#(pRxBuf >> 8) & 0xff
   \   0000DF   12....       LCALL   ??macDataRxMemFree?relay
    975              pRxBuf = NULL;  /* needed to indicate buffer is no longer allocated */
   \                     ??rxFcsIsr_3:
   \   0000E2   90....       MOV     DPTR,#pRxBuf
   \   0000E5   E4           CLR     A
   \   0000E6   F0           MOVX    @DPTR,A
   \   0000E7   A3           INC     DPTR
   \   0000E8   F0           MOVX    @DPTR,A
    976            }
    977          
    978            /* reset threshold level, reset receive state, and complete receive logic */
    979            MAC_RADIO_SET_RX_THRESHOLD(RX_THRESHOLD_START_LEN);
   \   0000E9   906194       MOV     DPTR,#0x6194
   \   0000EC   7405         MOV     A,#0x5
   \   0000EE   F0           MOVX    @DPTR,A
    980            pFuncRxState = &rxStartIsr;
   \   0000EF   90....       MOV     DPTR,#pFuncRxState
   \   0000F2   74..         MOV     A,#??rxStartIsr?relay & 0xff
   \   0000F4   F0           MOVX    @DPTR,A
   \   0000F5   A3           INC     DPTR
   \   0000F6   74..         MOV     A,#(??rxStartIsr?relay >> 8) & 0xff
   \   0000F8   F0           MOVX    @DPTR,A
    981            rxDone();
   \   0000F9   906193       MOV     DPTR,#0x6193
   \   0000FC   E0           MOVX    A,@DPTR
   \   0000FD   A2E6         MOV     C,0xE0 /* A   */.6
   \   0000FF   500B         JNC     ??rxFcsIsr_4
   \   000101   E0           MOVX    A,@DPTR
   \   000102   A2E7         MOV     C,0xE0 /* A   */.7
   \   000104   4006         JC      ??rxFcsIsr_4
   \   000106   75E1ED       MOV     0xe1,#-0x13
   \   000109   75E1ED       MOV     0xe1,#-0x13
   \                     ??rxFcsIsr_4:
   \   00010C   90....       MOV     DPTR,#macRxActive
   \   00010F   E4           CLR     A
   \   000110   F0           MOVX    @DPTR,A
   \   000111   90....       MOV     DPTR,#macRxOutgoingAckFlag
   \   000114   E0           MOVX    A,@DPTR
   \   000115   7009         JNZ     ??rxFcsIsr_5
   \   000117                ; Setup parameters for call to function macRxOffRequest
   \   000117   12....       LCALL   ??macRxOffRequest?relay
   \   00011A                ; Setup parameters for call to function macRadioUpdateTxPower
   \   00011A   12....       LCALL   ??macRadioUpdateTxPower?relay
   \   00011D                ; Setup parameters for call to function macTxStartQueuedFrame
   \   00011D   12....       LCALL   ??macTxStartQueuedFrame?relay
    982          }
   \                     ??rxFcsIsr_5:
   \   000120   7F02         MOV     R7,#0x2
   \   000122   02....       LJMP    ?BANKED_LEAVE_XDATA
   \   000125                REQUIRE RFST
    983          
    984          
    985          /*=================================================================================================
    986           * @fn          rxDone
    987           *
    988           * @brief       Common exit point for receive.
    989           *
    990           * @param       none
    991           *
    992           * @return      none
    993           *=================================================================================================
    994           */
    995          static void rxDone(void)
    996          {
    997            /* if the receive FIFO has overflowed, flush it here */
    998            if (MAC_RADIO_RX_FIFO_HAS_OVERFLOWED())
    999            {
   1000              MAC_RADIO_FLUSH_RX_FIFO();
   1001            }
   1002          
   1003            /* mark receive as inactive */
   1004            macRxActive = MAC_RX_ACTIVE_NO_ACTIVITY;
   1005          
   1006            /* if there is no outgoing ACK, run the post receive updates */
   1007            if (!macRxOutgoingAckFlag)
   1008            {
   1009              rxPostRxUpdates();
   1010            }
   1011          }
   1012          
   1013          
   1014          /**************************************************************************************************
   1015           * @fn          macRxAckTxDoneCallback
   1016           *
   1017           * @brief       Function called when the outoing ACK has completed transmitting.
   1018           *
   1019           * @param       none
   1020           *
   1021           * @return      none
   1022           **************************************************************************************************
   1023           */

   \                                 In  segment BANKED_CODE, align 1, keep-with-next
   1024          void macRxAckTxDoneCallback(void)
   \                     macRxAckTxDoneCallback:
   1025          {
   \   000000   C082         PUSH    DPL
   \   000002   C083         PUSH    DPH
   \   000004                ; Saved register size: 2
   \   000004                ; Auto size: 0
   1026            macRxOutgoingAckFlag = 0;
   \   000004   90....       MOV     DPTR,#macRxOutgoingAckFlag
   \   000007   E4           CLR     A
   \   000008   F0           MOVX    @DPTR,A
   1027          
   1028            /*
   1029             *  With certain interrupt priorities and timing conditions, it is possible this callback
   1030             *  could be executed before the primary receive logic completes.  To prevent this, the
   1031             *  post updates are only executed if receive logic is no longer active.  In the case the
   1032             *  post updates are not executed here, they will execute when the main receive logic
   1033             *  completes.
   1034             */
   1035            if (!macRxActive)
   \   000009   90....       MOV     DPTR,#macRxActive
   \   00000C   E0           MOVX    A,@DPTR
   \   00000D   7009         JNZ     ??macRxAckTxDoneCallback_0
   1036            {
   1037              rxPostRxUpdates();
   \   00000F                ; Setup parameters for call to function macRxOffRequest
   \   00000F   12....       LCALL   ??macRxOffRequest?relay
   \   000012                ; Setup parameters for call to function macRadioUpdateTxPower
   \   000012   12....       LCALL   ??macRadioUpdateTxPower?relay
   \   000015                ; Setup parameters for call to function macTxStartQueuedFrame
   \   000015   12....       LCALL   ??macTxStartQueuedFrame?relay
   1038            }
   1039          }
   \                     ??macRxAckTxDoneCallback_0:
   \   000018   02....       LJMP    ??Subroutine2_0 & 0xFFFF
   1040          
   1041          
   1042          /*=================================================================================================
   1043           * @fn          rxPostRxUpdates
   1044           *
   1045           * @brief       Updates that need to be performed once receive is complete.
   1046           *
   1047           *              It is not fatal to execute this function if somehow receive is active.  Under
   1048           *              certain timing/interrupt conditions a new receive may have started before this
   1049           *              function executes.  This should happen very rarely (if it happens at all) and
   1050           *              would cause no problems.
   1051           *
   1052           * @param       none
   1053           *
   1054           * @return      none
   1055           *=================================================================================================
   1056           */
   1057          static void rxPostRxUpdates(void)
   1058          {
   1059            /* turn off receiver if permitted */
   1060            macRxOffRequest();
   1061          
   1062            /* update the transmit power, update may have been blocked by transmit of outgoing ACK */
   1063            macRadioUpdateTxPower();
   1064          
   1065            /* initiate and transmit that was queued during receive */
   1066            macTxStartQueuedFrame();
   1067          }
   1068          
   1069          
   1070          /*=================================================================================================
   1071           * @fn          rxDiscardFrame
   1072           *
   1073           * @brief       Initializes for discarding a packet.  Must be called before ACK is strobed.
   1074           *
   1075           * @param       none
   1076           *
   1077           * @return      none
   1078           *=================================================================================================
   1079           */
   1080          static void rxDiscardFrame(void)
   1081          {
   1082            MAC_ASSERT(pFuncRxState == &rxStartIsr); /* illegal state for calling discard frame function */
   1083          
   1084            if (rxUnreadLen == 0)
   1085            {
   1086              rxDone();
   1087            }
   1088            else
   1089            {
   1090              rxNextLen = MIN(rxUnreadLen, MAX_PAYLOAD_BYTES_READ_PER_INTERRUPT);
   1091              MAC_RADIO_SET_RX_THRESHOLD(rxNextLen);
   1092              pFuncRxState = &rxDiscardIsr;
   1093            }
   1094          }
   1095          
   1096          
   1097          /*=================================================================================================
   1098           * @fn          rxDiscardIsr
   1099           *
   1100           * @brief       Receive ISR state for discarding a packet.
   1101           *
   1102           * @param       none
   1103           *
   1104           * @return      none
   1105           *=================================================================================================
   1106           */

   \                                 In  segment BANKED_CODE, align 1, keep-with-next
   1107          static void rxDiscardIsr(void)
   \                     rxDiscardIsr:
   1108          {
   \   000000   C082         PUSH    DPL
   \   000002   C083         PUSH    DPH
   \   000004                ; Saved register size: 2
   \   000004                ; Auto size: 16
   \   000004   74F0         MOV     A,#-0x10
   \   000006   12....       LCALL   ?ALLOC_XSTACK8
   1109            uint8 buf[MAX_PAYLOAD_BYTES_READ_PER_INTERRUPT];
   1110          
   1111            MAC_RADIO_READ_RX_FIFO(buf, rxNextLen);
   \   000009                ; Setup parameters for call to function macMemReadRxFifo
   \   000009   90....       MOV     DPTR,#rxNextLen
   \   00000C   E0           MOVX    A,@DPTR
   \   00000D   F9           MOV     R1,A
   \   00000E   85..82       MOV     DPL,?XSP + 0
   \   000011   85..83       MOV     DPH,?XSP + 1
   \   000014   AA82         MOV     R2,DPL
   \   000016   AB83         MOV     R3,DPH
   \   000018   12....       LCALL   ??macMemReadRxFifo?relay
   1112            rxUnreadLen -= rxNextLen;
   \   00001B   90....       MOV     DPTR,#rxNextLen
   \   00001E   E0           MOVX    A,@DPTR
   \   00001F   F8           MOV     R0,A
   \   000020   90....       MOV     DPTR,#rxUnreadLen
   \   000023   E0           MOVX    A,@DPTR
   \   000024   C3           CLR     C
   \   000025   98           SUBB    A,R0
   \   000026   F0           MOVX    @DPTR,A
   1113          
   1114            /* read out and discard bytes until all bytes of packet are disposed of */
   1115            if (rxUnreadLen != 0)
   \   000027   6011         JZ      ??rxDiscardIsr_0
   1116            {
   1117              if (rxUnreadLen < MAX_PAYLOAD_BYTES_READ_PER_INTERRUPT)
   \   000029   C3           CLR     C
   \   00002A   9410         SUBB    A,#0x10
   \   00002C   5043         JNC     ??rxDiscardIsr_1
   1118              {
   1119                rxNextLen = rxUnreadLen;
   \   00002E   E0           MOVX    A,@DPTR
   \   00002F   90....       MOV     DPTR,#rxNextLen
   \   000032   F0           MOVX    @DPTR,A
   1120                MAC_RADIO_SET_RX_THRESHOLD(rxNextLen);
   \   000033   14           DEC     A
   \   000034   906194       MOV     DPTR,#0x6194
   \   000037   F0           MOVX    @DPTR,A
   \   000038   8037         SJMP    ??rxDiscardIsr_1
   1121              }
   1122            }
   1123            else
   1124            {
   1125              /* reset threshold level, reset receive state, and complete receive logic */
   1126              MAC_RADIO_SET_RX_THRESHOLD(RX_THRESHOLD_START_LEN);
   \                     ??rxDiscardIsr_0:
   \   00003A   906194       MOV     DPTR,#0x6194
   \   00003D   7405         MOV     A,#0x5
   \   00003F   F0           MOVX    @DPTR,A
   1127              pFuncRxState = &rxStartIsr;
   \   000040   90....       MOV     DPTR,#pFuncRxState
   \   000043   74..         MOV     A,#??rxStartIsr?relay & 0xff
   \   000045   F0           MOVX    @DPTR,A
   \   000046   A3           INC     DPTR
   \   000047   74..         MOV     A,#(??rxStartIsr?relay >> 8) & 0xff
   \   000049   F0           MOVX    @DPTR,A
   1128              rxDone();
   \   00004A   906193       MOV     DPTR,#0x6193
   \   00004D   E0           MOVX    A,@DPTR
   \   00004E   A2E6         MOV     C,0xE0 /* A   */.6
   \   000050   500B         JNC     ??rxDiscardIsr_2
   \   000052   E0           MOVX    A,@DPTR
   \   000053   A2E7         MOV     C,0xE0 /* A   */.7
   \   000055   4006         JC      ??rxDiscardIsr_2
   \   000057   75E1ED       MOV     0xe1,#-0x13
   \   00005A   75E1ED       MOV     0xe1,#-0x13
   \                     ??rxDiscardIsr_2:
   \   00005D   90....       MOV     DPTR,#macRxActive
   \   000060   E4           CLR     A
   \   000061   F0           MOVX    @DPTR,A
   \   000062   90....       MOV     DPTR,#macRxOutgoingAckFlag
   \   000065   E0           MOVX    A,@DPTR
   \   000066   7009         JNZ     ??rxDiscardIsr_1
   \   000068                ; Setup parameters for call to function macRxOffRequest
   \   000068   12....       LCALL   ??macRxOffRequest?relay
   \   00006B                ; Setup parameters for call to function macRadioUpdateTxPower
   \   00006B   12....       LCALL   ??macRadioUpdateTxPower?relay
   \   00006E                ; Setup parameters for call to function macTxStartQueuedFrame
   \   00006E   12....       LCALL   ??macTxStartQueuedFrame?relay
   1129            }
   1130          }
   \                     ??rxDiscardIsr_1:
   \   000071   7410         MOV     A,#0x10
   \   000073   12....       LCALL   ?DEALLOC_XSTACK8
   \   000076   02....       LJMP    ??Subroutine2_0 & 0xFFFF
   \   000079                REQUIRE RFST
   1131          
   1132          
   1133          /**************************************************************************************************
   1134           * @fn          maxRxRifoOverflowIsr
   1135           *
   1136           * @brief       This interrupt service routine is called when RX FIFO overflow. Note that this
   1137           *              exception does not retrieve the good frames that are trapped in the RX FIFO.
   1138           *              It simply halts and cleanup the RX.
   1139           *
   1140           * @param       none
   1141           *
   1142           * @return      none
   1143           **************************************************************************************************
   1144           */

   \                                 In  segment BANKED_CODE, align 1, keep-with-next
   1145          MAC_INTERNAL_API void macRxFifoOverflowIsr(void)
   \                     macRxFifoOverflowIsr:
   1146          {
   \   000000   C082         PUSH    DPL
   \   000002   C083         PUSH    DPH
   \   000004                ; Saved register size: 2
   \   000004                ; Auto size: 0
   1147            rxFifoOverflowCount++; /* This flag is used for debug purpose only */
   \   000004   90....       MOV     DPTR,#rxFifoOverflowCount
   \   000007   E0           MOVX    A,@DPTR
   \   000008   04           INC     A
   \   000009   F0           MOVX    @DPTR,A
   1148            macRxHaltCleanup();
   \   00000A                ; Setup parameters for call to function macRxHaltCleanup
   \   00000A   12....       LCALL   ??macRxHaltCleanup?relay
   1149          }
   \   00000D   02....       LJMP    ??Subroutine2_0 & 0xFFFF
   1150          
   1151          
   1152          /**************************************************************************************************
   1153           * @fn          macRxPromiscuousMode
   1154           *
   1155           * @brief       Sets promiscuous mode - enabling or disabling it.
   1156           *
   1157           * @param       none
   1158           *
   1159           * @return      none
   1160           **************************************************************************************************
   1161           */

   \                                 In  segment BANKED_CODE, align 1, keep-with-next
   1162          MAC_INTERNAL_API void macRxPromiscuousMode(uint8 mode)
   \                     macRxPromiscuousMode:
   1163          {
   \   000000   74F7         MOV     A,#-0x9
   \   000002   12....       LCALL   ?BANKED_ENTER_XDATA
   \   000005                ; Saved register size: 9
   \   000005                ; Auto size: 0
   \   000005   E9           MOV     A,R1
   \   000006   FE           MOV     R6,A
   1164            rxPromiscuousMode = mode;
   \   000007   90....       MOV     DPTR,#rxPromiscuousMode
   \   00000A   F0           MOVX    @DPTR,A
   1165          
   1166            if (rxPromiscuousMode == MAC_PROMISCUOUS_MODE_OFF)
   \   00000B   7008         JNZ     ??macRxPromiscuousMode_0
   1167            {
   1168                MAC_RADIO_TURN_ON_RX_FRAME_FILTERING();
   \   00000D   906180       MOV     DPTR,#0x6180
   \   000010   E0           MOVX    A,@DPTR
   \   000011   D2E0         SETB    0xE0 /* A   */.0
   \   000013   8013         SJMP    ??macRxPromiscuousMode_1
   1169            }
   1170            else
   1171            {
   1172              MAC_ASSERT((mode == MAC_PROMISCUOUS_MODE_WITH_BAD_CRC)   ||
   1173                         (mode == MAC_PROMISCUOUS_MODE_COMPLIANT));  /* invalid mode */
   \                     ??macRxPromiscuousMode_0:
   \   000015   7402         MOV     A,#0x2
   \   000017   6E           XRL     A,R6
   \   000018   6008         JZ      ??macRxPromiscuousMode_2
   \   00001A   7401         MOV     A,#0x1
   \   00001C   6E           XRL     A,R6
   \   00001D   6003         JZ      ??macRxPromiscuousMode_2
   \   00001F                ; Setup parameters for call to function halAssertHandler
   \   00001F   12....       LCALL   ??halAssertHandler?relay
   1174          
   1175              MAC_RADIO_TURN_OFF_RX_FRAME_FILTERING();
   \                     ??macRxPromiscuousMode_2:
   \   000022   906180       MOV     DPTR,#0x6180
   \   000025   E0           MOVX    A,@DPTR
   \   000026   C2E0         CLR     0xE0 /* A   */.0
   \                     ??macRxPromiscuousMode_1:
   \   000028   F0           MOVX    @DPTR,A
   1176            }
   1177          }
   \   000029   02....       LJMP    ?Subroutine1 & 0xFFFF

   \                                 In  segment BANK_RELAYS, align 1
   \                     ??macRxInit?relay:
   \   000000   12....       LCALL   ?BDISPATCH
   \   000003   ......       DC24    macRxInit

   \                                 In  segment BANK_RELAYS, align 1
   \                     ??macRxRadioPowerUpInit?relay:
   \   000000   12....       LCALL   ?BDISPATCH
   \   000003   ......       DC24    macRxRadioPowerUpInit

   \                                 In  segment BANK_RELAYS, align 1
   \                     ??macRxTxReset?relay:
   \   000000   12....       LCALL   ?BDISPATCH
   \   000003   ......       DC24    macRxTxReset

   \                                 In  segment BANK_RELAYS, align 1
   \                     ??macRxHaltCleanup?relay:
   \   000000   12....       LCALL   ?BDISPATCH
   \   000003   ......       DC24    macRxHaltCleanup

   \                                 In  segment BANK_RELAYS, align 1
   \                     ??macRxThresholdIsr?relay:
   \   000000   12....       LCALL   ?BDISPATCH
   \   000003   ......       DC24    macRxThresholdIsr

   \                                 In  segment BANK_RELAYS, align 1
   \                     ??rxStartIsr?relay:
   \   000000   12....       LCALL   ?BDISPATCH
   \   000003   ......       DC24    rxStartIsr

   \                                 In  segment BANK_RELAYS, align 1
   \                     ??rxAddrIsr?relay:
   \   000000   12....       LCALL   ?BDISPATCH
   \   000003   ......       DC24    rxAddrIsr

   \                                 In  segment BANK_RELAYS, align 1
   \                     ??rxPayloadIsr?relay:
   \   000000   12....       LCALL   ?BDISPATCH
   \   000003   ......       DC24    rxPayloadIsr

   \                                 In  segment BANK_RELAYS, align 1
   \                     ??rxFcsIsr?relay:
   \   000000   12....       LCALL   ?BDISPATCH
   \   000003   ......       DC24    rxFcsIsr

   \                                 In  segment BANK_RELAYS, align 1
   \                     ??macRxAckTxDoneCallback?relay:
   \   000000   12....       LCALL   ?BDISPATCH
   \   000003   ......       DC24    macRxAckTxDoneCallback

   \                                 In  segment BANK_RELAYS, align 1
   \                     ??rxDiscardIsr?relay:
   \   000000   12....       LCALL   ?BDISPATCH
   \   000003   ......       DC24    rxDiscardIsr

   \                                 In  segment BANK_RELAYS, align 1
   \                     ??macRxFifoOverflowIsr?relay:
   \   000000   12....       LCALL   ?BDISPATCH
   \   000003   ......       DC24    macRxFifoOverflowIsr

   \                                 In  segment BANK_RELAYS, align 1
   \                     ??macRxPromiscuousMode?relay:
   \   000000   12....       LCALL   ?BDISPATCH
   \   000003   ......       DC24    macRxPromiscuousMode
   1178          
   1179          
   1180          
   1181          /**************************************************************************************************
   1182           *                                  Compile Time Integrity Checks
   1183           **************************************************************************************************
   1184           */
   1185          
   1186          /* check for changes to the spec that would affect the source code */
   1187          #if ((MAC_A_MAX_PHY_PACKET_SIZE   !=  0x7F )   ||  \
   1188               (MAC_FCF_FIELD_LEN           !=  2    )   ||  \
   1189               (MAC_FCF_FRAME_TYPE_POS      !=  0    )   ||  \
   1190               (MAC_FCF_FRAME_PENDING_POS   !=  4    )   ||  \
   1191               (MAC_FCF_ACK_REQUEST_POS     !=  5    )   ||  \
   1192               (MAC_FCF_INTRA_PAN_POS       !=  6    )   ||  \
   1193               (MAC_FCF_DST_ADDR_MODE_POS   !=  10   )   ||  \
   1194               (MAC_FCF_FRAME_VERSION_POS   !=  12   )   ||  \
   1195               (MAC_FCF_SRC_ADDR_MODE_POS   !=  14   ))
   1196          #error "ERROR!  Change to the spec that requires modification of source code."
   1197          #endif
   1198          
   1199          /* check for changes to the internal flags format */
   1200          #if ((MAC_RX_FLAG_VERSION      !=  0x03)  ||  \
   1201               (MAC_RX_FLAG_ACK_PENDING  !=  0x04)  ||  \
   1202               (MAC_RX_FLAG_SECURITY     !=  0x08)  ||  \
   1203               (MAC_RX_FLAG_PENDING      !=  0x10)  ||  \
   1204               (MAC_RX_FLAG_ACK_REQUEST  !=  0x20)  ||  \
   1205               (MAC_RX_FLAG_INTRA_PAN    !=  0x40))
   1206          #error "ERROR!  Change to the internal RX flags format.  Requires modification of source code."
   1207          #endif
   1208          
   1209          /* validate CRC OK bit optimization */
   1210          #if (MAC_RX_FLAG_CRC_OK != PROPRIETARY_FCS_CRC_OK_BIT)
   1211          #error "ERROR!  Optimization relies on these bits having the same position."
   1212          #endif
   1213          
   1214          #if (MAC_RX_ACTIVE_NO_ACTIVITY != 0x00)
   1215          #error "ERROR! Zero is reserved value of macRxActive. Allows boolean operations, e.g !macRxActive."
   1216          #endif
   1217          
   1218          #if (MAC_PROMISCUOUS_MODE_OFF != 0x00)
   1219          #error "ERROR! Zero is reserved value of rxPromiscuousMode. Allows boolean operations, e.g !rxPromiscuousMode."
   1220          #endif
   1221          
   1222          
   1223          /**************************************************************************************************
   1224          */

   Maximum stack usage in bytes:

     Function                       ISTACK PSTACK XSTACK
     --------                       ------ ------ ------
     macRxAckTxDoneCallback             2      0      0
       -> macRxOffRequest               4      0      0
       -> macRadioUpdateTxPower         4      0      0
       -> macTxStartQueuedFrame         4      0      0
     macRxFifoOverflowIsr               2      0      0
       -> macRxHaltCleanup              4      0      0
     macRxHaltCleanup                   2      0      0
       -> macDataRxMemFree              4      0      0
       -> macRxOffRequest               4      0      0
       -> macRadioUpdateTxPower         4      0      0
       -> macTxStartQueuedFrame         4      0      0
     macRxInit                          2      0      0
     macRxPromiscuousMode               0      0      9
       -> halAssertHandler              0      0     18
     macRxRadioPowerUpInit              2      0      0
     macRxThresholdIsr                  2      0      0
       -> macDataRxMemFree              4      0      0
       -> macRxOffRequest               4      0      0
       -> macRadioUpdateTxPower         4      0      0
       -> macTxStartQueuedFrame         4      0      0
     macRxTxReset                       2      0      0
       -> macRxHardDisable              4      0      0
     rxAddrIsr                          0      0     29
       -> halAssertHandler              0      0     58
       -> macMemReadRxFifo              0      0     58
       -> sAddrExtCpy                   0      0     58
       -> sAddrExtCpy                   0      0     58
     rxDiscardIsr                       2      0     16
       -> macMemReadRxFifo              4      0     32
       -> macRxOffRequest               4      0     32
       -> macRadioUpdateTxPower         4      0     32
       -> macTxStartQueuedFrame         4      0     32
     rxFcsIsr                           1      0     10
       -> macMemReadRxFifo              0      0     20
       -> macRxOffRequest               0      0     20
       -> MAC_SrcMatchCheckResult       0      0     20
       -> macRadioComputeLQI            0      0     20
       -> macRxCompleteCallback         0      0     20
       -> macDataRxMemFree              0      0     20
       -> macRxOffRequest               0      0     20
       -> macRadioUpdateTxPower         0      0     20
       -> macTxStartQueuedFrame         0      0     20
     rxPayloadIsr                       2      0      0
       -> macMemReadRxFifo              4      0      0
     rxStartIsr                         1      0     18
       -> halAssertHandler              0      0     36
       -> macRxOffRequest               0      0     36
       -> macRadioUpdateTxPower         0      0     36
       -> macTxStartQueuedFrame         0      0     36
       -> macCspForceTxDoneIfPending
                                        0      0     36
       -> macMemReadRxFifo              0      0     36
       -> halAssertHandler              0      0     36
       -> macMemReadRxFifo              0      0     36
       -> halAssertHandler              0      0     36
       -> macRadioComputeLQI            0      0     36
       -> macTxAckReceivedCallback      0      0     36
       -> macTxAckNotReceivedCallback
                                        0      0     36
       -> macTxAckNotReceivedCallback
                                        0      0     36
       -> macRxOffRequest               0      0     36
       -> macRadioUpdateTxPower         0      0     36
       -> macTxStartQueuedFrame         0      0     36
       -> halAssertHandler              0      0     36
       -> halAssertHandler              0      0     36
       -> macDataRxMemAlloc             0      0     36
       -> halAssertHandler              0      0     36
       -> macRxCheckMACPendingCallback
                                        0      0     36
       -> MAC_SrcMatchCheckAllPending
                                        0      0     36
       -> macRxCheckPendingCallback     0      0     36
       -> macMcuOverflowCapture         0      0     36
       -> macMcuTimerCapture            0      0     36


   Segment part sizes:

     Function/Label                 Bytes
     --------------                 -----
     RFIRQF1                           1
     S1CON                             1
     _A_IEN0                           1
     RFST                              1
     RFIRQF0                           1
     macRxActive                       1
     macRxFilter                       1
     macRxOutgoingAckFlag              1
     macRxAddrLen                      4
     pFuncRxState                      2
     pRxBuf                            2
     rxBuf                             4
     rxUnreadLen                       1
     rxNextLen                         1
     rxPayloadLen                      1
     rxFilter                          1
     rxPromiscuousMode                 1
     rxIsrActiveFlag                   1
     rxResetFlag                       1
     rxFifoOverflowCount               1
     macRxInit                        52
     ?Subroutine0                      1
     ??Subroutine2_0                   7
     macRxRadioPowerUpInit            33
     macRxTxReset                     24
     macRxHaltCleanup                122
     macRxThresholdIsr               151
     rxStartIsr                     1176
     rxAddrIsr                       371
     ?Subroutine1                      5
     rxPayloadIsr                    124
     rxFcsIsr                        293
     macRxAckTxDoneCallback           27
     rxDiscardIsr                    121
     macRxFifoOverflowIsr             16
     macRxPromiscuousMode             44
     ??macRxInit?relay                 6
     ??macRxRadioPowerUpInit?relay     6
     ??macRxTxReset?relay              6
     ??macRxHaltCleanup?relay          6
     ??macRxThresholdIsr?relay         6
     ??rxStartIsr?relay                6
     ??rxAddrIsr?relay                 6
     ??rxPayloadIsr?relay              6
     ??rxFcsIsr?relay                  6
     ??macRxAckTxDoneCallback?relay    6
     ??rxDiscardIsr?relay              6
     ??macRxFifoOverflowIsr?relay      6
     ??macRxPromiscuousMode?relay      6

 
 2 567 bytes in segment BANKED_CODE
    78 bytes in segment BANK_RELAYS
     4 bytes in segment CODE_C
     5 bytes in segment SFR_AN
    19 bytes in segment XDATA_Z
 
 2 649 bytes of CODE  memory
     0 bytes of DATA  memory (+ 5 bytes shared)
    19 bytes of XDATA memory

Errors: none
Warnings: none
