###############################################################################
#                                                                             #
# IAR C/C++ Compiler V8.10.3.10338/W32 for 8051         23/May/2015  15:18:48 #
# Copyright 2004-2011 IAR Systems AB.                                         #
#                                                                             #
#    Core               =  plain                                              #
#    Code model         =  banked                                             #
#    Data model         =  large                                              #
#    Calling convention =  xdata reentrant                                    #
#    Constant location  =  data_rom                                           #
#    Dptr setup         =  1,16                                               #
#    Source file        =  E:\wireless-switch\demo\ZStack-CC2530-2.3.0-1.4.0\ #
#                          Components\osal\mcu\cc2530\OSAL_Nv.c               #
#    Command line       =  -f E:\wireless-switch\demo\ZStack-CC2530-2.3.0-1.4 #
#                          .0\Projects\zstack\Samples\SampleApp\CC2530DB\..\. #
#                          .\..\Tools\CC2530DB\f8wRouter.cfg (-DCPU32MHZ      #
#                          -DROOT=__near_func -DMAC_CFG_APP_PENDING_QUEUE=TRU #
#                          E -DRTR_NWK -DBLINK_LEDS) -f                       #
#                          E:\wireless-switch\demo\ZStack-CC2530-2.3.0-1.4.0\ #
#                          Projects\zstack\Samples\SampleApp\CC2530DB\..\..\. #
#                          .\Tools\CC2530DB\f8wConfig.cfg (-DSECURE=0         #
#                          -DZG_SECURE_DYNAMIC=0 -DREFLECTOR                  #
#                          -DDEFAULT_CHANLIST=0x00000800                      #
#                          -DZDAPP_CONFIG_PAN_ID=0xFFF1                       #
#                          -DNWK_START_DELAY=100 -DEXTENDED_JOINING_RANDOM_MA #
#                          SK=0x007F -DBEACON_REQUEST_DELAY=100               #
#                          -DBEACON_REQ_DELAY_MASK=0x00FF                     #
#                          -DROUTE_EXPIRY_TIME=30 -DAPSC_ACK_WAIT_DURATION_PO #
#                          LLED=3000 -DNWK_INDIRECT_MSG_TIMEOUT=7             #
#                          -DMAX_RREQ_ENTRIES=8 -DAPSC_MAX_FRAME_RETRIES=3    #
#                          -DNWK_MAX_DATA_RETRIES=2                           #
#                          -DMAX_POLL_FAILURE_RETRIES=2 -DMAX_BCAST=9         #
#                          -DAPS_MAX_GROUPS=16 -DMAX_RTG_ENTRIES=40           #
#                          -DNWK_MAX_BINDING_ENTRIES=4                        #
#                          -DMAX_BINDING_CLUSTER_IDS=4 "-DDEFAULT_KEY={0x01,  #
#                          0x03, 0x05, 0x07, 0x09, 0x0B, 0x0D, 0x0F, 0x00,    #
#                          0x02, 0x04, 0x06, 0x08, 0x0A, 0x0C, 0x0D}"         #
#                          -DMAC_MAX_FRAME_SIZE=116 "-DCONST=const __code"    #
#                          -DGENERIC=__generic -DRFD_RCVC_ALWAYS_ON=FALSE     #
#                          -DPOLL_RATE=1000 -DQUEUED_POLL_RATE=100            #
#                          -DRESPONSE_POLL_RATE=100) -DREJOIN_POLL_RATE=440   #
#                          E:\wireless-switch\demo\ZStack-CC2530-2.3.0-1.4.0\ #
#                          Components\osal\mcu\cc2530\OSAL_Nv.c -D ZIGBEEPRO  #
#                          -D ZTOOL_P1 -D MT_TASK -D MT_SYS_FUNC -D           #
#                          MT_ZDO_FUNC -D LCD_SUPPORTED=DEBUG -D ROUTER_ME    #
#                          -lC E:\wireless-switch\demo\ZStack-CC2530-2.3.0-1. #
#                          4.0\Projects\zstack\Samples\SampleApp\CC2530DB\Rou #
#                          terEB-Pro\List\ -lA E:\wireless-switch\demo\ZStack #
#                          -CC2530-2.3.0-1.4.0\Projects\zstack\Samples\Sample #
#                          App\CC2530DB\RouterEB-Pro\List\ --diag_suppress    #
#                          Pe001,Pa010 -o E:\wireless-switch\demo\ZStack-CC25 #
#                          30-2.3.0-1.4.0\Projects\zstack\Samples\SampleApp\C #
#                          C2530DB\RouterEB-Pro\Obj\ -e --debug --core=plain  #
#                          --dptr=16,1 --data_model=large                     #
#                          --code_model=banked --calling_convention=xdata_ree #
#                          ntrant --place_constants=data_rom                  #
#                          --nr_virtual_regs 16 -I E:\wireless-switch\demo\ZS #
#                          tack-CC2530-2.3.0-1.4.0\Projects\zstack\Samples\Sa #
#                          mpleApp\CC2530DB\ -I E:\wireless-switch\demo\ZStac #
#                          k-CC2530-2.3.0-1.4.0\Projects\zstack\Samples\Sampl #
#                          eApp\CC2530DB\..\SOURCE\ -I                        #
#                          E:\wireless-switch\demo\ZStack-CC2530-2.3.0-1.4.0\ #
#                          Projects\zstack\Samples\SampleApp\CC2530DB\..\..\. #
#                          .\ZMAIN\TI2530DB\ -I E:\wireless-switch\demo\ZStac #
#                          k-CC2530-2.3.0-1.4.0\Projects\zstack\Samples\Sampl #
#                          eApp\CC2530DB\..\..\..\..\..\COMPONENTS\MT\ -I     #
#                          E:\wireless-switch\demo\ZStack-CC2530-2.3.0-1.4.0\ #
#                          Projects\zstack\Samples\SampleApp\CC2530DB\..\..\. #
#                          .\..\..\COMPONENTS\HAL\INCLUDE\ -I                 #
#                          E:\wireless-switch\demo\ZStack-CC2530-2.3.0-1.4.0\ #
#                          Projects\zstack\Samples\SampleApp\CC2530DB\..\..\. #
#                          .\..\..\COMPONENTS\HAL\TARGET\CC2530EB\ -I         #
#                          E:\wireless-switch\demo\ZStack-CC2530-2.3.0-1.4.0\ #
#                          Projects\zstack\Samples\SampleApp\CC2530DB\..\..\. #
#                          .\..\..\COMPONENTS\OSAL\MCU\CCSOC\ -I              #
#                          E:\wireless-switch\demo\ZStack-CC2530-2.3.0-1.4.0\ #
#                          Projects\zstack\Samples\SampleApp\CC2530DB\..\..\. #
#                          .\..\..\COMPONENTS\OSAL\INCLUDE\ -I                #
#                          E:\wireless-switch\demo\ZStack-CC2530-2.3.0-1.4.0\ #
#                          Projects\zstack\Samples\SampleApp\CC2530DB\..\..\. #
#                          .\..\..\COMPONENTS\STACK\AF\ -I                    #
#                          E:\wireless-switch\demo\ZStack-CC2530-2.3.0-1.4.0\ #
#                          Projects\zstack\Samples\SampleApp\CC2530DB\..\..\. #
#                          .\..\..\COMPONENTS\STACK\NWK\ -I                   #
#                          E:\wireless-switch\demo\ZStack-CC2530-2.3.0-1.4.0\ #
#                          Projects\zstack\Samples\SampleApp\CC2530DB\..\..\. #
#                          .\..\..\COMPONENTS\STACK\SEC\ -I                   #
#                          E:\wireless-switch\demo\ZStack-CC2530-2.3.0-1.4.0\ #
#                          Projects\zstack\Samples\SampleApp\CC2530DB\..\..\. #
#                          .\..\..\COMPONENTS\STACK\SAPI\ -I                  #
#                          E:\wireless-switch\demo\ZStack-CC2530-2.3.0-1.4.0\ #
#                          Projects\zstack\Samples\SampleApp\CC2530DB\..\..\. #
#                          .\..\..\COMPONENTS\STACK\SYS\ -I                   #
#                          E:\wireless-switch\demo\ZStack-CC2530-2.3.0-1.4.0\ #
#                          Projects\zstack\Samples\SampleApp\CC2530DB\..\..\. #
#                          .\..\..\COMPONENTS\STACK\ZDO\ -I                   #
#                          E:\wireless-switch\demo\ZStack-CC2530-2.3.0-1.4.0\ #
#                          Projects\zstack\Samples\SampleApp\CC2530DB\..\..\. #
#                          .\..\..\COMPONENTS\ZMAC\F8W\ -I                    #
#                          E:\wireless-switch\demo\ZStack-CC2530-2.3.0-1.4.0\ #
#                          Projects\zstack\Samples\SampleApp\CC2530DB\..\..\. #
#                          .\..\..\COMPONENTS\ZMAC\ -I                        #
#                          E:\wireless-switch\demo\ZStack-CC2530-2.3.0-1.4.0\ #
#                          Projects\zstack\Samples\SampleApp\CC2530DB\..\..\. #
#                          .\..\..\COMPONENTS\SERVICES\SADDR\ -I              #
#                          E:\wireless-switch\demo\ZStack-CC2530-2.3.0-1.4.0\ #
#                          Projects\zstack\Samples\SampleApp\CC2530DB\..\..\. #
#                          .\..\..\COMPONENTS\SERVICES\SDATA\ -I              #
#                          E:\wireless-switch\demo\ZStack-CC2530-2.3.0-1.4.0\ #
#                          Projects\zstack\Samples\SampleApp\CC2530DB\..\..\. #
#                          .\..\..\COMPONENTS\MAC\INCLUDE\ -I                 #
#                          E:\wireless-switch\demo\ZStack-CC2530-2.3.0-1.4.0\ #
#                          Projects\zstack\Samples\SampleApp\CC2530DB\..\..\. #
#                          .\..\..\COMPONENTS\MAC\HIGH_LEVEL\ -I              #
#                          E:\wireless-switch\demo\ZStack-CC2530-2.3.0-1.4.0\ #
#                          Projects\zstack\Samples\SampleApp\CC2530DB\..\..\. #
#                          .\..\..\COMPONENTS\MAC\LOW_LEVEL\srf04\ -I         #
#                          E:\wireless-switch\demo\ZStack-CC2530-2.3.0-1.4.0\ #
#                          Projects\zstack\Samples\SampleApp\CC2530DB\..\..\. #
#                          .\..\..\COMPONENTS\MAC\LOW_LEVEL\srf04\SINGLE_CHIP #
#                          \ -Ohs --require_prototypes                        #
#    List file          =  E:\wireless-switch\demo\ZStack-CC2530-2.3.0-1.4.0\ #
#                          Projects\zstack\Samples\SampleApp\CC2530DB\RouterE #
#                          B-Pro\List\OSAL_Nv.lst                             #
#    Object file        =  E:\wireless-switch\demo\ZStack-CC2530-2.3.0-1.4.0\ #
#                          Projects\zstack\Samples\SampleApp\CC2530DB\RouterE #
#                          B-Pro\Obj\OSAL_Nv.r51                              #
#                                                                             #
#                                                                             #
###############################################################################

E:\wireless-switch\demo\ZStack-CC2530-2.3.0-1.4.0\Components\osal\mcu\cc2530\OSAL_Nv.c
      1          /**************************************************************************************************
      2            Filename:       OSAL_Nv.c
      3            Revised:        $Date: 2008-08-06 17:17:11 -0700 (Wed, 06 Aug 2008) $
      4            Revision:       $Revision: 17715 $
      5          
      6            Description:    This module contains the OSAL non-volatile memory functions.
      7          
      8          
      9            Copyright 2006-2009 Texas Instruments Incorporated. All rights reserved.
     10          
     11            IMPORTANT: Your use of this Software is limited to those specific rights
     12            granted under the terms of a software license agreement between the user
     13            who downloaded the software, his/her employer (which must be your employer)
     14            and Texas Instruments Incorporated (the "License").  You may not use this
     15            Software unless you agree to abide by the terms of the License. The License
     16            limits your use, and you acknowledge, that the Software may not be modified,
     17            copied or distributed unless embedded on a Texas Instruments microcontroller
     18            or used solely and exclusively in conjunction with a Texas Instruments radio
     19            frequency transceiver, which is integrated into your product.  Other than for
     20            the foregoing purpose, you may not use, reproduce, copy, prepare derivative
     21            works of, modify, distribute, perform, display or sell this Software and/or
     22            its documentation for any purpose.
     23          
     24            YOU FURTHER ACKNOWLEDGE AND AGREE THAT THE SOFTWARE AND DOCUMENTATION ARE
     25            PROVIDED “AS IS” WITHOUT WARRANTY OF ANY KIND, EITHER EXPRESS OR IMPLIED,
     26            INCLUDING WITHOUT LIMITATION, ANY WARRANTY OF MERCHANTABILITY, TITLE,
     27            NON-INFRINGEMENT AND FITNESS FOR A PARTICULAR PURPOSE. IN NO EVENT SHALL
     28            TEXAS INSTRUMENTS OR ITS LICENSORS BE LIABLE OR OBLIGATED UNDER CONTRACT,
     29            NEGLIGENCE, STRICT LIABILITY, CONTRIBUTION, BREACH OF WARRANTY, OR OTHER
     30            LEGAL EQUITABLE THEORY ANY DIRECT OR INDIRECT DAMAGES OR EXPENSES
     31            INCLUDING BUT NOT LIMITED TO ANY INCIDENTAL, SPECIAL, INDIRECT, PUNITIVE
     32            OR CONSEQUENTIAL DAMAGES, LOST PROFITS OR LOST DATA, COST OF PROCUREMENT
     33            OF SUBSTITUTE GOODS, TECHNOLOGY, SERVICES, OR ANY CLAIMS BY THIRD PARTIES
     34            (INCLUDING BUT NOT LIMITED TO ANY DEFENSE THEREOF), OR OTHER SIMILAR COSTS.
     35          
     36            Should you have any questions regarding your right to use this Software,
     37            contact Texas Instruments Incorporated at www.TI.com.
     38          **************************************************************************************************/
     39          
     40          /**************************************************************************************************
     41            Notes:
     42              - A trick buried deep in initPage() requires that the MSB of the NV Item Id is to
     43                be reserved for use by this module.
     44          **************************************************************************************************/
     45          
     46          /*********************************************************************
     47           * INCLUDES
     48           */
     49          
     50          #include "hal_adc.h"
     51          #include "hal_flash.h"
     52          #include "hal_types.h"
     53          #include "ZComdef.h"
     54          #include "OSAL_Nv.h"
     55          
     56          /*********************************************************************
     57           * CONSTANTS
     58           */
     59          
     60          #define OSAL_NV_PAGE_SIZE       HAL_FLASH_PAGE_SIZE
     61          #define OSAL_NV_PAGES_USED      HAL_NV_PAGE_CNT
     62          #define OSAL_NV_PAGE_BEG        HAL_NV_PAGE_BEG
     63          #define OSAL_NV_PAGE_END       (OSAL_NV_PAGE_BEG + OSAL_NV_PAGES_USED - 1)
     64          
     65          #define OSAL_NV_ACTIVE          0x00
     66          #define OSAL_NV_ERASED          0xFF
     67          #define OSAL_NV_ERASED_ID       0xFFFF
     68          #define OSAL_NV_ZEROED_ID       0x0000
     69          // Reserve MSB of Id to signal a search for the "old" source copy (new write interrupted/failed.)
     70          #define OSAL_NV_SOURCE_ID       0x8000
     71          
     72          #define OSAL_NV_PAGE_FREE       HAL_FLASH_PAGE_SIZE
     73          
     74          // In case pages 0-1 are ever used, define a null page value.
     75          #define OSAL_NV_PAGE_NULL       0
     76          
     77          // In case item Id 0 is ever used, define a null item value.
     78          #define OSAL_NV_ITEM_NULL       0
     79          
     80          #define OSAL_NV_WORD_SIZE       HAL_FLASH_WORD_SIZE
     81          
     82          #define OSAL_NV_PAGE_HDR_OFFSET 0
     83          
     84          /*********************************************************************
     85           * MACROS
     86           */
     87          
     88          #define  OSAL_NV_CHECK_BUS_VOLTAGE  (HalAdcCheckVdd( HAL_ADC_VDD_LIMIT_4 ))
     89          
     90          #define OSAL_NV_DATA_SIZE( LEN )  \
     91             ((((LEN) + OSAL_NV_WORD_SIZE - 1) / OSAL_NV_WORD_SIZE) * OSAL_NV_WORD_SIZE)
     92          
     93          #define OSAL_NV_ITEM_SIZE( LEN )  \
     94            (((((LEN) + OSAL_NV_WORD_SIZE - 1) / OSAL_NV_WORD_SIZE) * OSAL_NV_WORD_SIZE) + OSAL_NV_HDR_SIZE)
     95          
     96          /*********************************************************************
     97           * TYPEDEFS
     98           */
     99          
    100          typedef struct
    101          {
    102            uint16 id;
    103            uint16 len;   // Enforce Flash-WORD size on len.
    104            uint16 chk;   // Byte-wise checksum of the 'len' data bytes of the item.
    105            uint16 stat;  // Item status.
    106          } osalNvHdr_t;
    107          // Struct member offsets.
    108          #define OSAL_NV_HDR_ID    0
    109          #define OSAL_NV_HDR_LEN   2
    110          #define OSAL_NV_HDR_CHK   4
    111          #define OSAL_NV_HDR_STAT  6
    112          
    113          #define OSAL_NV_HDR_ITEM  2  // Length of any item of a header struct.
    114          #define OSAL_NV_HDR_SIZE  8
    115          #define OSAL_NV_HDR_HALF (OSAL_NV_HDR_SIZE / 2)
    116          
    117          typedef struct
    118          {
    119            uint16 active;
    120            uint16 inUse;
    121            uint16 xfer;
    122            uint16 spare;
    123          } osalNvPgHdr_t;
    124          // Struct member offsets.
    125          #define OSAL_NV_PG_ACTIVE 0
    126          #define OSAL_NV_PG_INUSE  2
    127          #define OSAL_NV_PG_XFER   4
    128          #define OSAL_NV_PG_SPARE  6
    129          
    130          #define OSAL_NV_PAGE_HDR_SIZE  8
    131          #define OSAL_NV_PAGE_HDR_HALF (OSAL_NV_PAGE_HDR_SIZE / 2)
    132          
    133          typedef enum
    134          {
    135            eNvXfer,
    136            eNvZero
    137          } eNvHdrEnum;
    138          
    139          typedef enum
    140          {
    141            ePgActive,
    142            ePgInUse,
    143            ePgXfer,
    144            ePgSpare
    145          } ePgHdrEnum;
    146          
    147          /*********************************************************************
    148           * EXTERNAL FUNCTIONS
    149           */
    150          
    151          extern bool HalAdcCheckVdd(uint8 limit);
    152          
    153          /*********************************************************************
    154           * GLOBAL VARIABLES
    155           */
    156          
    157          #ifndef OAD_KEEP_NV_PAGES
    158          // When NV pages are to remain intact during OAD download,
    159          // the image itself should not include NV pages.
    160          #pragma location="ZIGNV_ADDRESS_SPACE"

   \                                 In  segment ZIGNV_ADDRESS_SPACE, align 1
    161          __no_init uint8 _nvBuf[OSAL_NV_PAGES_USED * OSAL_NV_PAGE_SIZE];
   \                     _nvBuf:
   \   000000                DS 12288
    162          #pragma required=_nvBuf
    163          #pragma location="IEEE_ADDRESS_SPACE"

   \                                 In  segment IEEE_ADDRESS_SPACE, align 1
    164          __no_init uint8 _nvIEEE[Z_EXTADDR_LEN];
   \                     _nvIEEE:
   \   000000                DS 8
   \   000008                REQUIRE _nvBuf
    165          #pragma required=_nvIEEE
    166          #endif // OAD_KEEP_NV_PAGES
    167          
    168          /*********************************************************************
    169           * LOCAL VARIABLES
    170           */
    171          
    172          // Offset into the page of the first available erased space.

   \                                 In  segment XDATA_Z, align 1, keep-with-next
    173          static uint16 pgOff[OSAL_NV_PAGES_USED];
   \                     pgOff:
   \   000000                DS 12
   \   00000C                REQUIRE __INIT_XDATA_Z
   \   00000C                REQUIRE _nvIEEE
    174          
    175          // Count of the bytes lost for the zeroed-out items.

   \                                 In  segment XDATA_Z, align 1, keep-with-next
    176          static uint16 pgLost[OSAL_NV_PAGES_USED];
   \                     pgLost:
   \   000000                DS 12
   \   00000C                REQUIRE __INIT_XDATA_Z
    177          

   \                                 In  segment XDATA_Z, align 1, keep-with-next
    178          static uint8 pgRes;  // Page reserved for item compacting transfer.
   \                     pgRes:
   \   000000                DS 1
   \   000001                REQUIRE __INIT_XDATA_Z
    179          
    180          // Saving ~100 code bytes to move a uint8* parameter/return value from findItem() to a global.

   \                                 In  segment XDATA_Z, align 1, keep-with-next
    181          static uint8 findPg;
   \                     findPg:
   \   000000                DS 1
   \   000001                REQUIRE __INIT_XDATA_Z
    182          
    183          /* Immediately before the voltage critical operations of a page erase or
    184           * a word write, check bus voltage. If less than min, set global flag & abort.
    185           * Since this is to be done at the lowest level, many void functions would have to be changed to
    186           * return a value and code added to check that value before proceeding, resulting in a very
    187           * expensive code size hit for implementing this properly. Therefore, use this global as follows:
    188           * at the start of osal_nv_item_init/osal_nv_write, set to FALSE, and at the end, before returning,
    189           * check the value. Thus, the global is an accumulator of any error that occurred in any of the
    190           * attempts to modify Flash with a low bus voltage during the complicated sequence of events that
    191           * may occur on any item init or write. This is much more expedient and code saving than adding
    192           * return values and checking return values to early out. No matter which method is used, an NV
    193           * data record may end up mangled due to the low VCC conditions. The strategy is that the headers
    194           * and checksums will detect and allow recovery from such a condition.
    195           *
    196           * One unfortunate side-effect of using the global fail flag vice adding and checking return
    197           * values, is that when setting an item Id to zero has failed due to the low VCC check,
    198           * the page lost-bytes counter is still updated. Having an artificially high lost-byte
    199           * count makes it look like there are more bytes to recover from compacting a page than there may
    200           * actually be. The easy work-around implemented is it to invoke initNV() from osal_nv_item_init or
    201           * osal_nv_write anytime that the failF gets set - this will re-walk all of the pages and set the
    202           * page offset count and page lost bytes count to their actual values.
    203           */

   \                                 In  segment XDATA_Z, align 1, keep-with-next
    204          static uint8 failF;
   \                     failF:
   \   000000                DS 1
   \   000001                REQUIRE __INIT_XDATA_Z
    205          
    206          /*********************************************************************
    207           * LOCAL FUNCTIONS
    208           */
    209          
    210          static uint8  initNV( void );
    211          
    212          static void   setPageUse( uint8 pg, uint8 inUse );
    213          static uint16 initPage( uint8 pg, uint16 id, uint8 findDups );
    214          static void   erasePage( uint8 pg );
    215          static void   compactPage( uint8 pg );
    216          
    217          static uint16 findItem( uint16 id );
    218          static uint8  initItem( uint8 flag, uint16 id, uint16 len, void *buf );
    219          static void   setItem( uint8 pg, uint16 offset, eNvHdrEnum stat );
    220          
    221          static uint16 calcChkB( uint16 len, uint8 *buf );
    222          static uint16 calcChkF( byte pg, uint16 offset, uint16 len );
    223          
    224          static void   writeWord( uint8 pg, uint16 offset, uint8 *buf );
    225          static void   writeWordH( uint8 pg, uint16 offset, uint8 *buf );
    226          static void   writeWordM( uint8 pg, uint16 offset, uint8 *buf, uint16 cnt );
    227          static void   writeBuf( uint8 pg, uint16 offset, uint16 len, uint8 *buf );
    228          static void   xferBuf( uint8 srcPg, uint16 srcOff, uint8 dstPg, uint16 dstOff, uint16 len );
    229          
    230          static uint8  writeItem( uint8 pg, uint16 id, uint16 len, void *buf, uint8 flag );
    231          
    232          /*********************************************************************
    233           * @fn      initNV
    234           *
    235           * @brief   Initialize the NV flash pages.
    236           *
    237           * @param   none
    238           *
    239           * @return  TRUE
    240           */

   \                                 In  segment BANKED_CODE, align 1, keep-with-next
    241          static uint8 initNV( void )
   \                     initNV:
    242          {
   \   000000   74F3         MOV     A,#-0xd
   \   000002   12....       LCALL   ?BANKED_ENTER_XDATA
   \   000005                ; Saved register size: 13
   \   000005                ; Auto size: 16
   \   000005   74F0         MOV     A,#-0x10
   \   000007   12....       LCALL   ?ALLOC_XSTACK8
    243            osalNvPgHdr_t pgHdr;
    244            uint8 oldPg = OSAL_NV_PAGE_NULL;
   \   00000A   75..00       MOV     ?V0 + 2,#0x0
    245            uint8 newPg = OSAL_NV_PAGE_NULL;
   \   00000D   75..00       MOV     ?V0 + 4,#0x0
    246            uint8 findDups = FALSE;
   \   000010   7E00         MOV     R6,#0x0
    247            uint8 pg;
    248          
    249            pgRes = OSAL_NV_PAGE_NULL;
   \   000012   90....       MOV     DPTR,#pgRes
   \   000015   E4           CLR     A
   \   000016   F0           MOVX    @DPTR,A
    250          
    251            for ( pg = OSAL_NV_PAGE_BEG; pg <= OSAL_NV_PAGE_END; pg++ )
   \   000017   75..79       MOV     ?V0 + 3,#0x79
    252            {
    253              HalFlashRead(pg, OSAL_NV_PAGE_HDR_OFFSET, (uint8 *)(&pgHdr), OSAL_NV_HDR_SIZE);
   \                     ??initNV_0:
   \   00001A                ; Setup parameters for call to function HalFlashRead
   \   00001A   75..08       MOV     ?V0 + 0,#0x8
   \   00001D   75..00       MOV     ?V0 + 1,#0x0
   \   000020   78..         MOV     R0,#?V0 + 0
   \   000022   12....       LCALL   ?PUSH_XSTACK_I_TWO
   \   000025   740A         MOV     A,#0xa
   \   000027   12....       LCALL   ?XSTACK_DISP0_8
   \   00002A   AC82         MOV     R4,DPL
   \   00002C   AD83         MOV     R5,DPH
   \   00002E   7A00         MOV     R2,#0x0
   \   000030   7B00         MOV     R3,#0x0
   \   000032   A9..         MOV     R1,?V0 + 3
   \   000034   12....       LCALL   ??HalFlashRead?relay
   \   000037   7402         MOV     A,#0x2
   \   000039   12....       LCALL   ?DEALLOC_XSTACK8
    254          
    255              if ( pgHdr.active == OSAL_NV_ERASED_ID )
   \   00003C   7408         MOV     A,#0x8
   \   00003E   12....       LCALL   ?XSTACK_DISP0_8
   \   000041   E0           MOVX    A,@DPTR
   \   000042   F4           CPL     A
   \   000043   7003         JNZ     ??initNV_1
   \   000045   A3           INC     DPTR
   \   000046   E0           MOVX    A,@DPTR
   \   000047   F4           CPL     A
   \                     ??initNV_1:
   \   000048   7055         JNZ     ??initNV_2
    256              {
    257                if ( pgRes == OSAL_NV_PAGE_NULL )
   \   00004A   90....       MOV     DPTR,#pgRes
   \   00004D   E0           MOVX    A,@DPTR
   \   00004E   7005         JNZ     ??initNV_3
    258                {
    259                  pgRes = pg;
   \   000050   E5..         MOV     A,?V0 + 3
   \                     ??initNV_4:
   \   000052   F0           MOVX    @DPTR,A
   \   000053   806E         SJMP    ??initNV_5
    260                }
    261                else
    262                {
    263                  setPageUse( pg, TRUE );
   \                     ??initNV_3:
   \   000055   85..82       MOV     DPL,?XSP + 0
   \   000058   85..83       MOV     DPH,?XSP + 1
   \   00005B   E4           CLR     A
   \   00005C   F0           MOVX    @DPTR,A
   \   00005D   A3           INC     DPTR
   \   00005E   F0           MOVX    @DPTR,A
   \   00005F   7402         MOV     A,#0x2
   \   000061   12....       LCALL   ?XSTACK_DISP0_8
   \   000064   E4           CLR     A
   \   000065   F0           MOVX    @DPTR,A
   \   000066   A3           INC     DPTR
   \   000067   F0           MOVX    @DPTR,A
   \   000068                ; Setup parameters for call to function HalAdcCheckVdd
   \   000068   7904         MOV     R1,#0x4
   \   00006A   12....       LCALL   ??HalAdcCheckVdd?relay
   \   00006D   E9           MOV     A,R1
   \   00006E   6028         JZ      ??initNV_6
   \   000070                ; Setup parameters for call to function HalFlashWrite
   \   000070   75..01       MOV     ?V0 + 0,#0x1
   \   000073   78..         MOV     R0,#?V0 + 0
   \   000075   12....       LCALL   ?PUSH_XSTACK_I_TWO
   \   000078   7402         MOV     A,#0x2
   \   00007A   12....       LCALL   ?XSTACK_DISP0_8
   \   00007D   AC82         MOV     R4,DPL
   \   00007F   AD83         MOV     R5,DPH
   \   000081   85....       MOV     ?V0 + 0,?V0 + 3
   \   000084   7409         MOV     A,#0x9
   \   000086   78..         MOV     R0,#?V0 + 0
   \   000088   12....       LCALL   ?S_SHL
   \   00008B   FA           MOV     R2,A
   \   00008C   AB..         MOV     R3,?V0 + 1
   \   00008E   12....       LCALL   ??HalFlashWrite?relay
   \   000091   7402         MOV     A,#0x2
   \   000093   12....       LCALL   ?DEALLOC_XSTACK8
   \   000096   802B         SJMP    ??initNV_5
   \                     ??initNV_6:
   \   000098   90....       MOV     DPTR,#failF
   \   00009B   7401         MOV     A,#0x1
   \   00009D   80B3         SJMP    ??initNV_4
    264                }
    265              }
    266              else  // Page is active.
    267              {
    268                // If the page is not yet in use, it is the tgt of items from an xfer.
    269                if ( pgHdr.inUse == OSAL_NV_ERASED_ID )
   \                     ??initNV_2:
   \   00009F   740A         MOV     A,#0xa
   \   0000A1   12....       LCALL   ?XSTACK_DISP0_8
   \   0000A4   E0           MOVX    A,@DPTR
   \   0000A5   F4           CPL     A
   \   0000A6   7003         JNZ     ??initNV_7
   \   0000A8   A3           INC     DPTR
   \   0000A9   E0           MOVX    A,@DPTR
   \   0000AA   F4           CPL     A
   \                     ??initNV_7:
   \   0000AB   7005         JNZ     ??initNV_8
    270                {
    271                  newPg = pg;
   \   0000AD   85....       MOV     ?V0 + 4,?V0 + 3
   \   0000B0   8011         SJMP    ??initNV_5
    272                }
    273                // An Xfer from this page was in progress.
    274                else if ( pgHdr.xfer != OSAL_NV_ERASED_ID )
   \                     ??initNV_8:
   \   0000B2   740C         MOV     A,#0xc
   \   0000B4   12....       LCALL   ?XSTACK_DISP0_8
   \   0000B7   E0           MOVX    A,@DPTR
   \   0000B8   F4           CPL     A
   \   0000B9   7003         JNZ     ??initNV_9
   \   0000BB   A3           INC     DPTR
   \   0000BC   E0           MOVX    A,@DPTR
   \   0000BD   F4           CPL     A
   \                     ??initNV_9:
   \   0000BE   6003         JZ      ??initNV_5
    275                {
    276                  oldPg = pg;
   \   0000C0   85....       MOV     ?V0 + 2,?V0 + 3
    277                }
    278              }
    279          
    280              // Calculate page offset and lost bytes - any "old" item triggers an N^2 re-scan from start.
    281              if ( initPage( pg, OSAL_NV_ITEM_NULL, findDups ) != OSAL_NV_ITEM_NULL )
   \                     ??initNV_5:
   \   0000C3                ; Setup parameters for call to function initPage
   \   0000C3   EE           MOV     A,R6
   \   0000C4   FC           MOV     R4,A
   \   0000C5   7A00         MOV     R2,#0x0
   \   0000C7   7B00         MOV     R3,#0x0
   \   0000C9   A9..         MOV     R1,?V0 + 3
   \   0000CB   12....       LCALL   ??initPage?relay
   \   0000CE   8B..         MOV     ?V0 + 1,R3
   \   0000D0   EA           MOV     A,R2
   \   0000D1   45..         ORL     A,?V0 + 1
   \   0000D3   6005         JZ      ??initNV_10
    282              {
    283                findDups = TRUE;
   \   0000D5   7E01         MOV     R6,#0x1
    284                pg = OSAL_NV_PAGE_BEG-1;
   \   0000D7   75..78       MOV     ?V0 + 3,#0x78
    285                continue;
    286              }
    287            }  // for ( pg = OSAL_NV_PAGE_BEG; pg <= OSAL_NV_PAGE_END; pg++ )
   \                     ??initNV_10:
   \   0000DA   05..         INC     ?V0 + 3
   \   0000DC   E5..         MOV     A,?V0 + 3
   \   0000DE   C3           CLR     C
   \   0000DF   947F         SUBB    A,#0x7f
   \   0000E1   5003         JNC     $+5
   \   0000E3   02....       LJMP    ??initNV_0 & 0xFFFF
    288          
    289            /* First the old page is erased, and then the new page is put into use.
    290             * So if a transfer was in progress, the new page will always not yet be
    291             * marked as in use, since that is the last step to ending a transfer.
    292             */
    293            if ( newPg != OSAL_NV_PAGE_NULL )
   \   0000E6   E5..         MOV     A,?V0 + 4
   \   0000E8   6053         JZ      ??initNV_11
    294            {
    295              /* If there is already a fallow page reserved, keep it and put the newPg in use.
    296               * An unfinished compaction will finish to the new reserve page and the old page
    297               * will be erased and reserved.
    298               */
    299              if ( pgRes != OSAL_NV_PAGE_NULL )
   \   0000EA   90....       MOV     DPTR,#pgRes
   \   0000ED   E0           MOVX    A,@DPTR
   \   0000EE   6077         JZ      ??initNV_12
    300              {
    301                setPageUse( newPg, TRUE );
   \   0000F0   85..82       MOV     DPL,?XSP + 0
   \   0000F3   85..83       MOV     DPH,?XSP + 1
   \   0000F6   E4           CLR     A
   \   0000F7   F0           MOVX    @DPTR,A
   \   0000F8   A3           INC     DPTR
   \   0000F9   F0           MOVX    @DPTR,A
   \   0000FA   7402         MOV     A,#0x2
   \   0000FC   12....       LCALL   ?XSTACK_DISP0_8
   \   0000FF   E4           CLR     A
   \   000100   F0           MOVX    @DPTR,A
   \   000101   A3           INC     DPTR
   \   000102   F0           MOVX    @DPTR,A
   \   000103                ; Setup parameters for call to function HalAdcCheckVdd
   \   000103   7904         MOV     R1,#0x4
   \   000105   12....       LCALL   ??HalAdcCheckVdd?relay
   \   000108   E9           MOV     A,R1
   \   000109   6054         JZ      ??initNV_13
   \   00010B                ; Setup parameters for call to function HalFlashWrite
   \   00010B   75..01       MOV     ?V0 + 0,#0x1
   \   00010E   75..00       MOV     ?V0 + 1,#0x0
   \   000111   78..         MOV     R0,#?V0 + 0
   \   000113   12....       LCALL   ?PUSH_XSTACK_I_TWO
   \   000116   7402         MOV     A,#0x2
   \   000118   12....       LCALL   ?XSTACK_DISP0_8
   \   00011B   AC82         MOV     R4,DPL
   \   00011D   AD83         MOV     R5,DPH
   \   00011F   85....       MOV     ?V0 + 0,?V0 + 4
   \   000122   7409         MOV     A,#0x9
   \   000124   78..         MOV     R0,#?V0 + 0
   \   000126   12....       LCALL   ?S_SHL
   \   000129   FA           MOV     R2,A
   \   00012A   AB..         MOV     R3,?V0 + 1
   \   00012C   12....       LCALL   ??HalFlashWrite?relay
   \   00012F   7402         MOV     A,#0x2
   \   000131   12....       LCALL   ?DEALLOC_XSTACK8
    302              }
    303              else if ( oldPg != OSAL_NV_PAGE_NULL )
    304              {
    305                pgRes = newPg;
    306              }
    307          
    308              /* If a page compaction was interrupted and the page being compacted is not
    309               * yet erased, then there may be items remaining to xfer before erasing.
    310               */
    311              if ( oldPg != OSAL_NV_PAGE_NULL )
   \                     ??initNV_14:
   \   000134   E5..         MOV     A,?V0 + 2
   \   000136   6005         JZ      ??initNV_11
    312              {
    313                compactPage( oldPg );
   \                     ??initNV_15:
   \   000138                ; Setup parameters for call to function compactPage
   \   000138   A9..         MOV     R1,?V0 + 2
   \   00013A   12....       LCALL   ??compactPage?relay
    314              }
    315            }
    316          
    317            /* If no page met the criteria to be the reserve page:
    318             *  - A compactPage() failed or board reset before doing so.
    319             *  - Perhaps the user changed which Flash pages are dedicated to NV and downloaded the code
    320             *    without erasing Flash?
    321             */
    322            if ( pgRes == OSAL_NV_PAGE_NULL )
   \                     ??initNV_11:
   \   00013D   90....       MOV     DPTR,#pgRes
   \   000140   E0           MOVX    A,@DPTR
   \   000141   7066         JNZ     ??initNV_16
    323            {
    324              for ( pg = OSAL_NV_PAGE_BEG; pg <= OSAL_NV_PAGE_END; pg++ )
   \                     ??initNV_17:
   \   000143   75..79       MOV     ?V0 + 3,#0x79
   \   000146   7E..         MOV     R6,#pgOff & 0xff
   \   000148   7F..         MOV     R7,#(pgOff >> 8) & 0xff
   \   00014A   75....       MOV     ?V0 + 0,#pgLost & 0xff
   \   00014D   75....       MOV     ?V0 + 1,#(pgLost >> 8) & 0xff
    325              {
    326                erasePage( pg );
   \                     ??initNV_18:
   \   000150                ; Setup parameters for call to function HalAdcCheckVdd
   \   000150   7904         MOV     R1,#0x4
   \   000152   12....       LCALL   ??HalAdcCheckVdd?relay
   \   000155   E9           MOV     A,R1
   \   000156   7018         JNZ     ??initNV_19
   \   000158   90....       MOV     DPTR,#failF
   \   00015B   7401         MOV     A,#0x1
   \   00015D   8028         SJMP    ??initNV_20
   \                     ??initNV_13:
   \   00015F   90....       MOV     DPTR,#failF
   \   000162   7401         MOV     A,#0x1
   \   000164   F0           MOVX    @DPTR,A
   \   000165   80CD         SJMP    ??initNV_14
   \                     ??initNV_12:
   \   000167   E5..         MOV     A,?V0 + 2
   \   000169   60D8         JZ      ??initNV_17
   \   00016B   E5..         MOV     A,?V0 + 4
   \   00016D   F0           MOVX    @DPTR,A
   \   00016E   80C8         SJMP    ??initNV_15
   \                     ??initNV_19:
   \   000170                ; Setup parameters for call to function HalFlashErase
   \   000170   A9..         MOV     R1,?V0 + 3
   \   000172   12....       LCALL   ??HalFlashErase?relay
   \   000175   8E82         MOV     DPL,R6
   \   000177   8F83         MOV     DPH,R7
   \   000179   7408         MOV     A,#0x8
   \   00017B   F0           MOVX    @DPTR,A
   \   00017C   A3           INC     DPTR
   \   00017D   E4           CLR     A
   \   00017E   F0           MOVX    @DPTR,A
   \   00017F   85..82       MOV     DPL,?V0 + 0
   \   000182   85..83       MOV     DPH,?V0 + 1
   \   000185   F0           MOVX    @DPTR,A
   \   000186   A3           INC     DPTR
   \                     ??initNV_20:
   \   000187   F0           MOVX    @DPTR,A
   \   000188   05..         INC     ?V0 + 3
   \   00018A   E5..         MOV     A,?V0 + 0
   \   00018C   2402         ADD     A,#0x2
   \   00018E   F5..         MOV     ?V0 + 0,A
   \   000190   E5..         MOV     A,?V0 + 1
   \   000192   3400         ADDC    A,#0x0
   \   000194   F5..         MOV     ?V0 + 1,A
   \   000196   EE           MOV     A,R6
   \   000197   2402         ADD     A,#0x2
   \   000199   EF           MOV     A,R7
   \   00019A   3400         ADDC    A,#0x0
   \   00019C   0E           INC     R6
   \   00019D   0E           INC     R6
   \   00019E   FF           MOV     R7,A
   \   00019F   E5..         MOV     A,?V0 + 3
   \   0001A1   C3           CLR     C
   \   0001A2   947F         SUBB    A,#0x7f
   \   0001A4   40AA         JC      ??initNV_18
    327              }
    328              initNV();
   \   0001A6                ; Setup parameters for call to function initNV
   \   0001A6   12....       LCALL   ??initNV?relay
    329            }
    330          
    331            return TRUE;
   \                     ??initNV_16:
   \   0001A9   7901         MOV     R1,#0x1
   \   0001AB   7410         MOV     A,#0x10
   \   0001AD   12....       LCALL   ?DEALLOC_XSTACK8
   \   0001B0   7F05         MOV     R7,#0x5
   \   0001B2   02....       LJMP    ?BANKED_LEAVE_XDATA
    332          }
    333          
    334          /*********************************************************************
    335           * @fn      setPageUse
    336           *
    337           * @brief   Set page header active/inUse state according to 'inUse'.
    338           *
    339           * @param   pg - Valid NV page to verify and init.
    340           * @param   inUse - Boolean TRUE if inUse, FALSE if only active.
    341           *
    342           * @return  none
    343           */
    344          static void setPageUse( uint8 pg, uint8 inUse )
    345          {
    346            osalNvPgHdr_t pgHdr;
    347          
    348            pgHdr.active = OSAL_NV_ZEROED_ID;
    349          
    350            if ( inUse )
    351            {
    352              pgHdr.inUse = OSAL_NV_ZEROED_ID;
    353            }
    354            else
    355            {
    356              pgHdr.inUse = OSAL_NV_ERASED_ID;
    357            }
    358          
    359            writeWord( pg, OSAL_NV_PAGE_HDR_OFFSET, (uint8*)(&pgHdr) );
    360          }
    361          
    362          /*********************************************************************
    363           * @fn      initPage
    364           *
    365           * @brief   Walk the page items; calculate checksums, lost bytes & page offset.
    366           *
    367           * @param   pg - Valid NV page to verify and init.
    368           * @param   id - Valid NV item Id to use function as a "findItem".
    369           *               If set to NULL then just perform the page initialization.
    370           *
    371           * @return  If 'id' is non-NULL and good checksums are found, return the offset
    372           *          of the data corresponding to item Id; else OSAL_NV_ITEM_NULL.
    373           */

   \                                 In  segment BANKED_CODE, align 1, keep-with-next
    374          static uint16 initPage( uint8 pg, uint16 id, uint8 findDups )
   \                     initPage:
    375          {
   \   000000   74E8         MOV     A,#-0x18
   \   000002   12....       LCALL   ?BANKED_ENTER_XDATA
   \   000005                ; Saved register size: 24
   \   000005                ; Auto size: 16
   \   000005   74F0         MOV     A,#-0x10
   \   000007   12....       LCALL   ?ALLOC_XSTACK8
   \   00000A   85..82       MOV     DPL,?XSP + 0
   \   00000D   85..83       MOV     DPH,?XSP + 1
   \   000010   EA           MOV     A,R2
   \   000011   F0           MOVX    @DPTR,A
   \   000012   A3           INC     DPTR
   \   000013   EB           MOV     A,R3
   \   000014   F0           MOVX    @DPTR,A
   \   000015   89..         MOV     ?V0 + 14,R1
   \   000017   8C..         MOV     ?V0 + 15,R4
    376            uint16 offset = OSAL_NV_PAGE_HDR_SIZE;
   \   000019   75..08       MOV     ?V0 + 6,#0x8
   \   00001C   75..00       MOV     ?V0 + 7,#0x0
    377            uint16 sz, lost = 0;
   \   00001F   7E00         MOV     R6,#0x0
   \   000021   7F00         MOV     R7,#0x0
   \   000023   5480         ANL     A,#0x80
   \   000025   F5..         MOV     ?V0 + 5,A
   \   000027   85..82       MOV     DPL,?XSP + 0
   \   00002A   85..83       MOV     DPH,?XSP + 1
   \   00002D   E0           MOVX    A,@DPTR
   \   00002E   F5..         MOV     ?V0 + 2,A
   \   000030   A3           INC     DPTR
   \   000031   E0           MOVX    A,@DPTR
   \   000032   547F         ANL     A,#0x7f
   \   000034   F5..         MOV     ?V0 + 3,A
   \   000036   801C         SJMP    ??initPage_0
    378            osalNvHdr_t hdr;
    379          
    380            do
    381            {
    382              HalFlashRead(pg, offset, (uint8 *)(&hdr), OSAL_NV_HDR_SIZE);
    383          
    384              if ( hdr.id == OSAL_NV_ERASED_ID )
    385              {
    386                break;
    387              }
    388              offset += OSAL_NV_HDR_SIZE;
    389              sz = OSAL_NV_DATA_SIZE( hdr.len );
    390          
    391              // A bad 'len' write has blown away the rest of the page.
    392              if ( (offset + sz) > OSAL_NV_PAGE_FREE )
    393              {
    394                lost += (OSAL_NV_PAGE_FREE - offset + OSAL_NV_HDR_SIZE);
    395                offset = OSAL_NV_PAGE_FREE;
    396                break;
    397              }
    398          
    399              if ( hdr.id != OSAL_NV_ZEROED_ID )
    400              {
    401                /* This trick allows function to do double duty for findItem() without
    402                 * compromising its essential functionality at powerup initialization.
    403                 */
    404                if ( id != OSAL_NV_ITEM_NULL )
    405                {
    406                  /* This trick allows asking to find the old/transferred item in case
    407                   * of a successful new item write that gets interrupted before the
    408                   * old item can be zeroed out.
    409                   */
    410                  if ( (id & 0x7fff) == hdr.id )
    411                  {
    412                    if ( (((id & OSAL_NV_SOURCE_ID) == 0) && (hdr.stat == OSAL_NV_ERASED_ID)) ||
    413                         (((id & OSAL_NV_SOURCE_ID) != 0) && (hdr.stat != OSAL_NV_ERASED_ID)) )
    414                    {
    415                      return offset;
    416                    }
    417                  }
    418                }
    419                // When invoked from the osal_nv_init(), verify checksums and find & zero any duplicates.
    420                else
    421                {
    422                  if ( hdr.chk == calcChkF( pg, offset, hdr.len ) )
    423                  {
    424                    if ( findDups )
    425                    {
    426                      if ( hdr.stat == OSAL_NV_ERASED_ID )
    427                      {
    428                        /* The trick of setting the MSB of the item Id causes the logic
    429                         * immediately above to return a valid page only if the header 'stat'
    430                         * indicates that it was the older item being transferred.
    431                         */
    432                        uint16 off = findItem( (hdr.id | OSAL_NV_SOURCE_ID) );
    433          
    434                        if ( off != OSAL_NV_ITEM_NULL )
    435                        {
    436                          setItem( findPg, off, eNvZero );  // Mark old duplicate as invalid.
    437                        }
    438                      }
    439                    }
    440                    // Any "old" item immediately exits and triggers the N^2 exhaustive initialization.
    441                    else if ( hdr.stat != OSAL_NV_ERASED_ID )
    442                    {
    443                      return OSAL_NV_ERASED_ID;
    444                    }
    445                  }
    446                  else
    447                  {
    448                    setItem( pg, offset, eNvZero );  // Mark bad checksum as invalid.
    449                    lost += (OSAL_NV_HDR_SIZE + sz);
    450                  }
    451                }
    452              }
    453              else
    454              {
    455                lost += (OSAL_NV_HDR_SIZE + sz);
   \                     ??initPage_1:
   \   000038   E5..         MOV     A,?V0 + 0
   \   00003A   2408         ADD     A,#0x8
   \   00003C   F8           MOV     R0,A
   \   00003D   E5..         MOV     A,?V0 + 1
   \   00003F   3400         ADDC    A,#0x0
   \   000041   F9           MOV     R1,A
   \   000042   EE           MOV     A,R6
   \   000043   28           ADD     A,R0
   \   000044   FE           MOV     R6,A
   \   000045   EF           MOV     A,R7
   \   000046   39           ADDC    A,R1
   \   000047   FF           MOV     R7,A
    456              }
    457              offset += sz;
   \                     ??initPage_2:
   \   000048   E5..         MOV     A,?V0 + 6
   \   00004A   25..         ADD     A,?V0 + 0
   \   00004C   F5..         MOV     ?V0 + 6,A
   \   00004E   E5..         MOV     A,?V0 + 7
   \   000050   35..         ADDC    A,?V0 + 1
   \   000052   F5..         MOV     ?V0 + 7,A
    458          
    459            } while ( TRUE );
   \                     ??initPage_0:
   \   000054                ; Setup parameters for call to function HalFlashRead
   \   000054   75..08       MOV     ?V0 + 0,#0x8
   \   000057   75..00       MOV     ?V0 + 1,#0x0
   \   00005A   78..         MOV     R0,#?V0 + 0
   \   00005C   12....       LCALL   ?PUSH_XSTACK_I_TWO
   \   00005F   7406         MOV     A,#0x6
   \   000061   12....       LCALL   ?XSTACK_DISP0_8
   \   000064   AC82         MOV     R4,DPL
   \   000066   AD83         MOV     R5,DPH
   \   000068   AA..         MOV     R2,?V0 + 6
   \   00006A   AB..         MOV     R3,?V0 + 7
   \   00006C   A9..         MOV     R1,?V0 + 14
   \   00006E   12....       LCALL   ??HalFlashRead?relay
   \   000071   7402         MOV     A,#0x2
   \   000073   12....       LCALL   ?DEALLOC_XSTACK8
   \   000076   7404         MOV     A,#0x4
   \   000078   12....       LCALL   ?XSTACK_DISP0_8
   \   00007B   E0           MOVX    A,@DPTR
   \   00007C   F4           CPL     A
   \   00007D   7003         JNZ     ??initPage_3
   \   00007F   A3           INC     DPTR
   \   000080   E0           MOVX    A,@DPTR
   \   000081   F4           CPL     A
   \                     ??initPage_3:
   \   000082   6050         JZ      ??initPage_4
   \   000084   E5..         MOV     A,?V0 + 6
   \   000086   2408         ADD     A,#0x8
   \   000088   F5..         MOV     ?V0 + 6,A
   \   00008A   E5..         MOV     A,?V0 + 7
   \   00008C   3400         ADDC    A,#0x0
   \   00008E   F5..         MOV     ?V0 + 7,A
   \   000090   7406         MOV     A,#0x6
   \   000092   12....       LCALL   ?XSTACK_DISP0_8
   \   000095   E0           MOVX    A,@DPTR
   \   000096   2403         ADD     A,#0x3
   \   000098   F5..         MOV     ?V0 + 12,A
   \   00009A   A3           INC     DPTR
   \   00009B   E0           MOVX    A,@DPTR
   \   00009C   3400         ADDC    A,#0x0
   \   00009E   F5..         MOV     ?V0 + 13,A
   \   0000A0   E5..         MOV     A,?V0 + 12
   \   0000A2   54FC         ANL     A,#0xfc
   \   0000A4   F5..         MOV     ?V0 + 0,A
   \   0000A6   E5..         MOV     A,?V0 + 13
   \   0000A8   F5..         MOV     ?V0 + 1,A
   \   0000AA   E5..         MOV     A,?V0 + 6
   \   0000AC   25..         ADD     A,?V0 + 0
   \   0000AE   F8           MOV     R0,A
   \   0000AF   E5..         MOV     A,?V0 + 7
   \   0000B1   35..         ADDC    A,?V0 + 1
   \   0000B3   F9           MOV     R1,A
   \   0000B4   C3           CLR     C
   \   0000B5   E8           MOV     A,R0
   \   0000B6   9401         SUBB    A,#0x1
   \   0000B8   E9           MOV     A,R1
   \   0000B9   9408         SUBB    A,#0x8
   \   0000BB   4048         JC      ??initPage_5
   \   0000BD   EE           MOV     A,R6
   \   0000BE   2408         ADD     A,#0x8
   \   0000C0   F8           MOV     R0,A
   \   0000C1   EF           MOV     A,R7
   \   0000C2   3408         ADDC    A,#0x8
   \   0000C4   F9           MOV     R1,A
   \   0000C5   E8           MOV     A,R0
   \   0000C6   C3           CLR     C
   \   0000C7   95..         SUBB    A,?V0 + 6
   \   0000C9   FE           MOV     R6,A
   \   0000CA   E9           MOV     A,R1
   \   0000CB   95..         SUBB    A,?V0 + 7
   \   0000CD   FF           MOV     R7,A
   \   0000CE   75..00       MOV     ?V0 + 6,#0x0
   \   0000D1   75..08       MOV     ?V0 + 7,#0x8
    460          
    461            pgOff[pg - OSAL_NV_PAGE_BEG] = offset;
   \                     ??initPage_4:
   \   0000D4   E5..         MOV     A,?V0 + 14
   \   0000D6   C3           CLR     C
   \   0000D7   33           RLC     A
   \   0000D8   F8           MOV     R0,A
   \   0000D9   E4           CLR     A
   \   0000DA   33           RLC     A
   \   0000DB   F9           MOV     R1,A
   \   0000DC   74..         MOV     A,#(pgOff + 14) & 0xff
   \   0000DE   28           ADD     A,R0
   \   0000DF   F582         MOV     DPL,A
   \   0000E1   74..         MOV     A,#((pgOff - 242) >> 8) & 0xff
   \   0000E3   39           ADDC    A,R1
   \   0000E4   F583         MOV     DPH,A
   \   0000E6   E5..         MOV     A,?V0 + 6
   \   0000E8   F0           MOVX    @DPTR,A
   \   0000E9   A3           INC     DPTR
   \   0000EA   E5..         MOV     A,?V0 + 7
   \   0000EC   F0           MOVX    @DPTR,A
    462            pgLost[pg - OSAL_NV_PAGE_BEG] = lost;
   \   0000ED   74..         MOV     A,#(pgLost + 14) & 0xff
   \   0000EF   28           ADD     A,R0
   \   0000F0   F582         MOV     DPL,A
   \   0000F2   74..         MOV     A,#((pgLost - 242) >> 8) & 0xff
   \   0000F4   39           ADDC    A,R1
   \   0000F5   F583         MOV     DPH,A
   \   0000F7   EE           MOV     A,R6
   \   0000F8   F0           MOVX    @DPTR,A
   \   0000F9   A3           INC     DPTR
   \   0000FA   EF           MOV     A,R7
   \   0000FB   F0           MOVX    @DPTR,A
    463          
    464            return OSAL_NV_ITEM_NULL;
   \   0000FC   7A00         MOV     R2,#0x0
   \   0000FE   7B00         MOV     R3,#0x0
   \                     ??initPage_6:
   \   000100   7410         MOV     A,#0x10
   \   000102   02....       LJMP    ?Subroutine0 & 0xFFFF
   \                     ??initPage_5:
   \   000105   7404         MOV     A,#0x4
   \   000107   12....       LCALL   ?XSTACK_DISP0_8
   \   00010A   E0           MOVX    A,@DPTR
   \   00010B   F8           MOV     R0,A
   \   00010C   A3           INC     DPTR
   \   00010D   E0           MOVX    A,@DPTR
   \   00010E   F9           MOV     R1,A
   \   00010F   E8           MOV     A,R0
   \   000110   49           ORL     A,R1
   \   000111   7003         JNZ     $+5
   \   000113   02....       LJMP    ??initPage_1 & 0xFFFF
   \   000116   85..82       MOV     DPL,?XSP + 0
   \   000119   85..83       MOV     DPH,?XSP + 1
   \   00011C   E0           MOVX    A,@DPTR
   \   00011D   F8           MOV     R0,A
   \   00011E   A3           INC     DPTR
   \   00011F   E0           MOVX    A,@DPTR
   \   000120   F9           MOV     R1,A
   \   000121   E8           MOV     A,R0
   \   000122   49           ORL     A,R1
   \   000123   6043         JZ      ??initPage_7
   \   000125   7404         MOV     A,#0x4
   \   000127   12....       LCALL   ?XSTACK_DISP0_8
   \   00012A   E0           MOVX    A,@DPTR
   \   00012B   65..         XRL     A,?V0 + 2
   \   00012D   7004         JNZ     ??initPage_8
   \   00012F   A3           INC     DPTR
   \   000130   E0           MOVX    A,@DPTR
   \   000131   65..         XRL     A,?V0 + 3
   \                     ??initPage_8:
   \   000133   6003         JZ      $+5
   \   000135   02....       LJMP    ??initPage_2 & 0xFFFF
   \   000138   740A         MOV     A,#0xa
   \   00013A   12....       LCALL   ?XSTACK_DISP0_8
   \   00013D   E0           MOVX    A,@DPTR
   \   00013E   F8           MOV     R0,A
   \   00013F   A3           INC     DPTR
   \   000140   E0           MOVX    A,@DPTR
   \   000141   F9           MOV     R1,A
   \   000142   E5..         MOV     A,?V0 + 5
   \   000144   700F         JNZ     ??initPage_9
   \   000146   74FF         MOV     A,#-0x1
   \   000148   68           XRL     A,R0
   \   000149   7003         JNZ     ??initPage_10
   \   00014B   74FF         MOV     A,#-0x1
   \   00014D   69           XRL     A,R1
   \                     ??initPage_10:
   \   00014E   6003         JZ      $+5
   \   000150   02....       LJMP    ??initPage_2 & 0xFFFF
   \   000153   800D         SJMP    ??initPage_11
   \                     ??initPage_9:
   \   000155   74FF         MOV     A,#-0x1
   \   000157   68           XRL     A,R0
   \   000158   7003         JNZ     ??initPage_12
   \   00015A   74FF         MOV     A,#-0x1
   \   00015C   69           XRL     A,R1
   \                     ??initPage_12:
   \   00015D   7003         JNZ     $+5
   \   00015F   02....       LJMP    ??initPage_2 & 0xFFFF
   \                     ??initPage_11:
   \   000162   AA..         MOV     R2,?V0 + 6
   \   000164   AB..         MOV     R3,?V0 + 7
   \   000166   8098         SJMP    ??initPage_6
   \                     ??initPage_7:
   \   000168   85....       MOV     ?V0 + 10,?V0 + 6
   \   00016B   85....       MOV     ?V0 + 11,?V0 + 7
   \   00016E   7402         MOV     A,#0x2
   \   000170   12....       LCALL   ?XSTACK_DISP0_8
   \   000173   E4           CLR     A
   \   000174   F0           MOVX    @DPTR,A
   \   000175   A3           INC     DPTR
   \   000176   F0           MOVX    @DPTR,A
   \   000177   7402         MOV     A,#0x2
   \   000179   78..         MOV     R0,#?V0 + 12
   \   00017B   12....       LCALL   ?US_SHR
   \   00017E   85....       MOV     ?V0 + 8,?V0 + 12
   \   000181   85....       MOV     ?V0 + 9,?V0 + 13
   \   000184   E5..         MOV     A,?V0 + 8
   \   000186   45..         ORL     A,?V0 + 9
   \   000188   6074         JZ      ??initPage_13
   \                     ??initPage_14:
   \   00018A   E5..         MOV     A,?V0 + 8
   \   00018C   24FF         ADD     A,#-0x1
   \   00018E   F5..         MOV     ?V0 + 8,A
   \   000190   E5..         MOV     A,?V0 + 9
   \   000192   34FF         ADDC    A,#-0x1
   \   000194   F5..         MOV     ?V0 + 9,A
   \   000196                ; Setup parameters for call to function HalFlashRead
   \   000196   75..04       MOV     ?V0 + 12,#0x4
   \   000199   75..00       MOV     ?V0 + 13,#0x0
   \   00019C   78..         MOV     R0,#?V0 + 12
   \   00019E   12....       LCALL   ?PUSH_XSTACK_I_TWO
   \   0001A1   740E         MOV     A,#0xe
   \   0001A3   12....       LCALL   ?XSTACK_DISP0_8
   \   0001A6   AC82         MOV     R4,DPL
   \   0001A8   AD83         MOV     R5,DPH
   \   0001AA   AA..         MOV     R2,?V0 + 10
   \   0001AC   AB..         MOV     R3,?V0 + 11
   \   0001AE   A9..         MOV     R1,?V0 + 14
   \   0001B0   12....       LCALL   ??HalFlashRead?relay
   \   0001B3   7402         MOV     A,#0x2
   \   0001B5   12....       LCALL   ?DEALLOC_XSTACK8
   \   0001B8   E5..         MOV     A,?V0 + 10
   \   0001BA   2404         ADD     A,#0x4
   \   0001BC   F5..         MOV     ?V0 + 10,A
   \   0001BE   E5..         MOV     A,?V0 + 11
   \   0001C0   3400         ADDC    A,#0x0
   \   0001C2   F5..         MOV     ?V0 + 11,A
   \   0001C4   740C         MOV     A,#0xc
   \   0001C6   12....       LCALL   ?XSTACK_DISP0_8
   \   0001C9   A882         MOV     R0,DPL
   \   0001CB   A983         MOV     R1,DPH
   \                     ??initPage_15:
   \   0001CD   8882         MOV     DPL,R0
   \   0001CF   8983         MOV     DPH,R1
   \   0001D1   E0           MOVX    A,@DPTR
   \   0001D2   FA           MOV     R2,A
   \   0001D3   7402         MOV     A,#0x2
   \   0001D5   12....       LCALL   ?XSTACK_DISP0_8
   \   0001D8   E0           MOVX    A,@DPTR
   \   0001D9   2A           ADD     A,R2
   \   0001DA   F0           MOVX    @DPTR,A
   \   0001DB   A3           INC     DPTR
   \   0001DC   E0           MOVX    A,@DPTR
   \   0001DD   3400         ADDC    A,#0x0
   \   0001DF   F0           MOVX    @DPTR,A
   \   0001E0   8882         MOV     DPL,R0
   \   0001E2   8983         MOV     DPH,R1
   \   0001E4   A3           INC     DPTR
   \   0001E5   A882         MOV     R0,DPL
   \   0001E7   A983         MOV     R1,DPH
   \   0001E9   7410         MOV     A,#0x10
   \   0001EB   12....       LCALL   ?XSTACK_DISP0_8
   \   0001EE   E582         MOV     A,DPL
   \   0001F0   68           XRL     A,R0
   \   0001F1   7003         JNZ     ??initPage_16
   \   0001F3   E583         MOV     A,DPH
   \   0001F5   69           XRL     A,R1
   \                     ??initPage_16:
   \   0001F6   70D5         JNZ     ??initPage_15
   \   0001F8   E5..         MOV     A,?V0 + 8
   \   0001FA   45..         ORL     A,?V0 + 9
   \   0001FC   708C         JNZ     ??initPage_14
   \                     ??initPage_13:
   \   0001FE   7408         MOV     A,#0x8
   \   000200   12....       LCALL   ?XSTACK_DISP0_8
   \   000203   E0           MOVX    A,@DPTR
   \   000204   F8           MOV     R0,A
   \   000205   A3           INC     DPTR
   \   000206   E0           MOVX    A,@DPTR
   \   000207   F9           MOV     R1,A
   \   000208   7402         MOV     A,#0x2
   \   00020A   12....       LCALL   ?XSTACK_DISP0_8
   \   00020D   E0           MOVX    A,@DPTR
   \   00020E   68           XRL     A,R0
   \   00020F   7003         JNZ     ??initPage_17
   \   000211   A3           INC     DPTR
   \   000212   E0           MOVX    A,@DPTR
   \   000213   69           XRL     A,R1
   \                     ??initPage_17:
   \   000214   7052         JNZ     ??initPage_18
   \   000216   740A         MOV     A,#0xa
   \   000218   12....       LCALL   ?XSTACK_DISP0_8
   \   00021B   E0           MOVX    A,@DPTR
   \   00021C   F8           MOV     R0,A
   \   00021D   A3           INC     DPTR
   \   00021E   E0           MOVX    A,@DPTR
   \   00021F   F9           MOV     R1,A
   \   000220   E5..         MOV     A,?V0 + 15
   \   000222   6030         JZ      ??initPage_19
   \   000224   74FF         MOV     A,#-0x1
   \   000226   68           XRL     A,R0
   \   000227   7003         JNZ     ??initPage_20
   \   000229   74FF         MOV     A,#-0x1
   \   00022B   69           XRL     A,R1
   \                     ??initPage_20:
   \   00022C   6003         JZ      $+5
   \   00022E   02....       LJMP    ??initPage_2 & 0xFFFF
   \   000231                ; Setup parameters for call to function findItem
   \   000231   7404         MOV     A,#0x4
   \   000233   12....       LCALL   ?XSTACK_DISP0_8
   \   000236   E0           MOVX    A,@DPTR
   \   000237   FA           MOV     R2,A
   \   000238   A3           INC     DPTR
   \   000239   E0           MOVX    A,@DPTR
   \   00023A   4480         ORL     A,#0x80
   \   00023C   FB           MOV     R3,A
   \   00023D   12....       LCALL   ??findItem?relay
   \   000240   EA           MOV     A,R2
   \   000241   4B           ORL     A,R3
   \   000242   7003         JNZ     $+5
   \   000244   02....       LJMP    ??initPage_2 & 0xFFFF
   \   000247                ; Setup parameters for call to function setItem
   \   000247   7C01         MOV     R4,#0x1
   \   000249   90....       MOV     DPTR,#findPg
   \   00024C   E0           MOVX    A,@DPTR
   \   00024D   F9           MOV     R1,A
   \   00024E   12....       LCALL   ??setItem?relay
   \   000251   02....       LJMP    ??initPage_2 & 0xFFFF
   \                     ??initPage_19:
   \   000254   74FF         MOV     A,#-0x1
   \   000256   68           XRL     A,R0
   \   000257   7003         JNZ     ??initPage_21
   \   000259   74FF         MOV     A,#-0x1
   \   00025B   69           XRL     A,R1
   \                     ??initPage_21:
   \   00025C   7003         JNZ     $+5
   \   00025E   02....       LJMP    ??initPage_2 & 0xFFFF
   \   000261   7AFF         MOV     R2,#-0x1
   \   000263   7BFF         MOV     R3,#-0x1
   \   000265   02....       LJMP    ??initPage_6 & 0xFFFF
   \                     ??initPage_18:
   \   000268                ; Setup parameters for call to function setItem
   \   000268   7C01         MOV     R4,#0x1
   \   00026A   AA..         MOV     R2,?V0 + 6
   \   00026C   AB..         MOV     R3,?V0 + 7
   \   00026E   A9..         MOV     R1,?V0 + 14
   \   000270   12....       LCALL   ??setItem?relay
   \   000273   02....       LJMP    ??initPage_1 & 0xFFFF
    465          }

   \                                 In  segment BANKED_CODE, align 1, keep-with-next
   \                     ?Subroutine0:
   \   000000   12....       LCALL   ?DEALLOC_XSTACK8
   \   000003   7F10         MOV     R7,#0x10
   \   000005   02....       LJMP    ?BANKED_LEAVE_XDATA
    466          
    467          /*********************************************************************
    468           * @fn      erasePage
    469           *
    470           * @brief   Erases a page in Flash.
    471           *
    472           * @param   pg - Valid NV page to erase.
    473           *
    474           * @return  none
    475           */
    476          static void erasePage( uint8 pg )
    477          {
    478            if ( !OSAL_NV_CHECK_BUS_VOLTAGE )
    479            {
    480              failF = TRUE;
    481              return;
    482            }
    483          
    484            HalFlashErase(pg);
    485          
    486            pgOff[pg - OSAL_NV_PAGE_BEG] = OSAL_NV_PAGE_HDR_SIZE;
    487            pgLost[pg - OSAL_NV_PAGE_BEG] = 0;
    488          }
    489          
    490          /*********************************************************************
    491           * @fn      compactPage
    492           *
    493           * @brief   Compacts the page specified.
    494           *
    495           * @param   srcPg - Valid NV page to erase.
    496           *
    497           * @return  none
    498           */

   \                                 In  segment BANKED_CODE, align 1, keep-with-next
    499          static void compactPage( uint8 srcPg )
   \                     compactPage:
    500          {
   \   000000   74EC         MOV     A,#-0x14
   \   000002   12....       LCALL   ?BANKED_ENTER_XDATA
   \   000005                ; Saved register size: 20
   \   000005                ; Auto size: 22
   \   000005   74EA         MOV     A,#-0x16
   \   000007   12....       LCALL   ?ALLOC_XSTACK8
   \   00000A   89..         MOV     ?V0 + 4,R1
    501            uint16 dstOff = pgOff[pgRes-OSAL_NV_PAGE_BEG];
   \   00000C   90....       MOV     DPTR,#pgRes
   \   00000F   E0           MOVX    A,@DPTR
   \   000010   C3           CLR     C
   \   000011   33           RLC     A
   \   000012   F8           MOV     R0,A
   \   000013   E4           CLR     A
   \   000014   33           RLC     A
   \   000015   F9           MOV     R1,A
   \   000016   74..         MOV     A,#(pgOff + 14) & 0xff
   \   000018   28           ADD     A,R0
   \   000019   F582         MOV     DPL,A
   \   00001B   74..         MOV     A,#((pgOff - 242) >> 8) & 0xff
   \   00001D   39           ADDC    A,R1
   \   00001E   F583         MOV     DPH,A
   \   000020   E0           MOVX    A,@DPTR
   \   000021   F5..         MOV     ?V0 + 6,A
   \   000023   A3           INC     DPTR
   \   000024   E0           MOVX    A,@DPTR
   \   000025   F5..         MOV     ?V0 + 7,A
    502            uint16 srcOff = OSAL_NV_ZEROED_ID;
   \   000027   85..82       MOV     DPL,?XSP + 0
   \   00002A   85..83       MOV     DPH,?XSP + 1
   \   00002D   E4           CLR     A
   \   00002E   F0           MOVX    @DPTR,A
   \   00002F   A3           INC     DPTR
   \   000030   F0           MOVX    @DPTR,A
    503            osalNvHdr_t hdr;
    504          
    505            // Mark page as being in process of compaction.
    506            writeWordH( srcPg, OSAL_NV_PG_XFER, (uint8*)(&srcOff) );
   \   000031   85..82       MOV     DPL,?XSP + 0
   \   000034   85..83       MOV     DPH,?XSP + 1
   \   000037   E0           MOVX    A,@DPTR
   \   000038   C0E0         PUSH    A
   \   00003A   7402         MOV     A,#0x2
   \   00003C   12....       LCALL   ?XSTACK_DISP0_8
   \   00003F   D0E0         POP     A
   \   000041   F0           MOVX    @DPTR,A
   \   000042   7401         MOV     A,#0x1
   \   000044   12....       LCALL   ?XSTACK_DISP0_8
   \   000047   E0           MOVX    A,@DPTR
   \   000048   C0E0         PUSH    A
   \   00004A   7403         MOV     A,#0x3
   \   00004C   12....       LCALL   ?XSTACK_DISP0_8
   \   00004F   D0E0         POP     A
   \   000051   F0           MOVX    @DPTR,A
   \   000052   7404         MOV     A,#0x4
   \   000054   12....       LCALL   ?XSTACK_DISP0_8
   \   000057   74FF         MOV     A,#-0x1
   \   000059   F0           MOVX    @DPTR,A
   \   00005A   7405         MOV     A,#0x5
   \   00005C   12....       LCALL   ?XSTACK_DISP0_8
   \   00005F   74FF         MOV     A,#-0x1
   \   000061   F0           MOVX    @DPTR,A
   \   000062                ; Setup parameters for call to function HalAdcCheckVdd
   \   000062   7904         MOV     R1,#0x4
   \   000064   12....       LCALL   ??HalAdcCheckVdd?relay
   \   000067   E9           MOV     A,R1
   \   000068   602C         JZ      ??compactPage_0
   \   00006A                ; Setup parameters for call to function HalFlashWrite
   \   00006A   75..01       MOV     ?V0 + 0,#0x1
   \   00006D   75..00       MOV     ?V0 + 1,#0x0
   \   000070   78..         MOV     R0,#?V0 + 0
   \   000072   12....       LCALL   ?PUSH_XSTACK_I_TWO
   \   000075   7404         MOV     A,#0x4
   \   000077   12....       LCALL   ?XSTACK_DISP0_8
   \   00007A   AC82         MOV     R4,DPL
   \   00007C   AD83         MOV     R5,DPH
   \   00007E   85....       MOV     ?V0 + 0,?V0 + 4
   \   000081   7409         MOV     A,#0x9
   \   000083   78..         MOV     R0,#?V0 + 0
   \   000085   12....       LCALL   ?S_SHL
   \   000088   7A01         MOV     R2,#0x1
   \   00008A   AB..         MOV     R3,?V0 + 1
   \   00008C   12....       LCALL   ??HalFlashWrite?relay
   \   00008F   7402         MOV     A,#0x2
   \   000091   12....       LCALL   ?DEALLOC_XSTACK8
   \   000094   8006         SJMP    ??compactPage_1
   \                     ??compactPage_0:
   \   000096   90....       MOV     DPTR,#failF
   \   000099   7401         MOV     A,#0x1
   \   00009B   F0           MOVX    @DPTR,A
    507          
    508            srcOff = OSAL_NV_PAGE_HDR_SIZE;
   \                     ??compactPage_1:
   \   00009C   85..82       MOV     DPL,?XSP + 0
   \   00009F   85..83       MOV     DPH,?XSP + 1
   \   0000A2   7408         MOV     A,#0x8
   \   0000A4   F0           MOVX    @DPTR,A
   \   0000A5   A3           INC     DPTR
   \   0000A6   E4           CLR     A
   \   0000A7   02....       LJMP    ??compactPage_2 & 0xFFFF
    509          
    510            do
    511            {
    512              uint16 sz;
    513              HalFlashRead(srcPg, srcOff, (uint8 *)(&hdr), OSAL_NV_HDR_SIZE);
    514          
    515              if ( hdr.id == OSAL_NV_ERASED_ID )
    516              {
    517                break;
    518              }
    519          
    520              srcOff += OSAL_NV_HDR_SIZE;
   \                     ??compactPage_3:
   \   0000AA   85..82       MOV     DPL,?XSP + 0
   \   0000AD   85..83       MOV     DPH,?XSP + 1
   \   0000B0   E0           MOVX    A,@DPTR
   \   0000B1   2408         ADD     A,#0x8
   \   0000B3   F0           MOVX    @DPTR,A
   \   0000B4   A3           INC     DPTR
   \   0000B5   E0           MOVX    A,@DPTR
   \   0000B6   3400         ADDC    A,#0x0
   \   0000B8   F0           MOVX    @DPTR,A
    521          
    522              if ( (srcOff + hdr.len) > OSAL_NV_PAGE_FREE )
   \   0000B9   7408         MOV     A,#0x8
   \   0000BB   12....       LCALL   ?XSTACK_DISP0_8
   \   0000BE   E0           MOVX    A,@DPTR
   \   0000BF   FA           MOV     R2,A
   \   0000C0   A3           INC     DPTR
   \   0000C1   E0           MOVX    A,@DPTR
   \   0000C2   FB           MOV     R3,A
   \   0000C3   85..82       MOV     DPL,?XSP + 0
   \   0000C6   85..83       MOV     DPH,?XSP + 1
   \   0000C9   E0           MOVX    A,@DPTR
   \   0000CA   2A           ADD     A,R2
   \   0000CB   F8           MOV     R0,A
   \   0000CC   A3           INC     DPTR
   \   0000CD   E0           MOVX    A,@DPTR
   \   0000CE   3B           ADDC    A,R3
   \   0000CF   F9           MOV     R1,A
   \   0000D0   C3           CLR     C
   \   0000D1   E8           MOV     A,R0
   \   0000D2   9401         SUBB    A,#0x1
   \   0000D4   E9           MOV     A,R1
   \   0000D5   9408         SUBB    A,#0x8
   \   0000D7   4003         JC      $+5
   \   0000D9   02....       LJMP    ??compactPage_4 & 0xFFFF
    523              {
    524                break;
    525              }
    526          
    527              sz = OSAL_NV_DATA_SIZE( hdr.len );
   \   0000DC   EA           MOV     A,R2
   \   0000DD   2403         ADD     A,#0x3
   \   0000DF   F5..         MOV     ?V0 + 10,A
   \   0000E1   EB           MOV     A,R3
   \   0000E2   3400         ADDC    A,#0x0
   \   0000E4   F5..         MOV     ?V0 + 11,A
   \   0000E6   E5..         MOV     A,?V0 + 10
   \   0000E8   54FC         ANL     A,#0xfc
   \   0000EA   F5..         MOV     ?V0 + 8,A
   \   0000EC   E5..         MOV     A,?V0 + 11
   \   0000EE   F5..         MOV     ?V0 + 9,A
    528          
    529              if ( hdr.id != OSAL_NV_ZEROED_ID )
   \   0000F0   7406         MOV     A,#0x6
   \   0000F2   12....       LCALL   ?XSTACK_DISP0_8
   \   0000F5   E0           MOVX    A,@DPTR
   \   0000F6   F8           MOV     R0,A
   \   0000F7   A3           INC     DPTR
   \   0000F8   E0           MOVX    A,@DPTR
   \   0000F9   F9           MOV     R1,A
   \   0000FA   E8           MOV     A,R0
   \   0000FB   49           ORL     A,R1
   \   0000FC   7003         JNZ     $+5
   \   0000FE   02....       LJMP    ??compactPage_5 & 0xFFFF
    530              {
    531                if ( hdr.chk == calcChkF( srcPg, srcOff, hdr.len ) )
   \   000101   85..82       MOV     DPL,?XSP + 0
   \   000104   85..83       MOV     DPH,?XSP + 1
   \   000107   E0           MOVX    A,@DPTR
   \   000108   F5..         MOV     ?V0 + 2,A
   \   00010A   A3           INC     DPTR
   \   00010B   E0           MOVX    A,@DPTR
   \   00010C   F5..         MOV     ?V0 + 3,A
   \   00010E   75..00       MOV     ?V0 + 0,#0x0
   \   000111   7402         MOV     A,#0x2
   \   000113   78..         MOV     R0,#?V0 + 10
   \   000115   12....       LCALL   ?US_SHR
   \   000118   AE..         MOV     R6,?V0 + 10
   \   00011A   AF..         MOV     R7,?V0 + 11
   \   00011C   EE           MOV     A,R6
   \   00011D   4F           ORL     A,R7
   \   00011E   6068         JZ      ??compactPage_6
   \                     ??compactPage_7:
   \   000120   EE           MOV     A,R6
   \   000121   24FF         ADD     A,#-0x1
   \   000123   1E           DEC     R6
   \   000124   EF           MOV     A,R7
   \   000125   34FF         ADDC    A,#-0x1
   \   000127   FF           MOV     R7,A
   \   000128                ; Setup parameters for call to function HalFlashRead
   \   000128   75..04       MOV     ?V0 + 10,#0x4
   \   00012B   75..00       MOV     ?V0 + 11,#0x0
   \   00012E   78..         MOV     R0,#?V0 + 10
   \   000130   12....       LCALL   ?PUSH_XSTACK_I_TWO
   \   000133   7404         MOV     A,#0x4
   \   000135   12....       LCALL   ?XSTACK_DISP0_8
   \   000138   AC82         MOV     R4,DPL
   \   00013A   AD83         MOV     R5,DPH
   \   00013C   AA..         MOV     R2,?V0 + 2
   \   00013E   AB..         MOV     R3,?V0 + 3
   \   000140   A9..         MOV     R1,?V0 + 4
   \   000142   12....       LCALL   ??HalFlashRead?relay
   \   000145   7402         MOV     A,#0x2
   \   000147   12....       LCALL   ?DEALLOC_XSTACK8
   \   00014A   E5..         MOV     A,?V0 + 2
   \   00014C   2404         ADD     A,#0x4
   \   00014E   F5..         MOV     ?V0 + 2,A
   \   000150   E5..         MOV     A,?V0 + 3
   \   000152   3400         ADDC    A,#0x0
   \   000154   F5..         MOV     ?V0 + 3,A
   \   000156   7402         MOV     A,#0x2
   \   000158   12....       LCALL   ?XSTACK_DISP0_8
   \   00015B   A882         MOV     R0,DPL
   \   00015D   A983         MOV     R1,DPH
   \                     ??compactPage_8:
   \   00015F   8882         MOV     DPL,R0
   \   000161   8983         MOV     DPH,R1
   \   000163   E0           MOVX    A,@DPTR
   \   000164   FA           MOV     R2,A
   \   000165   E5..         MOV     A,?V0 + 0
   \   000167   2A           ADD     A,R2
   \   000168   F5..         MOV     ?V0 + 0,A
   \   00016A   E5..         MOV     A,?V0 + 1
   \   00016C   3400         ADDC    A,#0x0
   \   00016E   F5..         MOV     ?V0 + 1,A
   \   000170   A3           INC     DPTR
   \   000171   A882         MOV     R0,DPL
   \   000173   A983         MOV     R1,DPH
   \   000175   7406         MOV     A,#0x6
   \   000177   12....       LCALL   ?XSTACK_DISP0_8
   \   00017A   E582         MOV     A,DPL
   \   00017C   68           XRL     A,R0
   \   00017D   7003         JNZ     ??compactPage_9
   \   00017F   E583         MOV     A,DPH
   \   000181   69           XRL     A,R1
   \                     ??compactPage_9:
   \   000182   70DB         JNZ     ??compactPage_8
   \   000184   EE           MOV     A,R6
   \   000185   4F           ORL     A,R7
   \   000186   7098         JNZ     ??compactPage_7
   \                     ??compactPage_6:
   \   000188   740A         MOV     A,#0xa
   \   00018A   12....       LCALL   ?XSTACK_DISP0_8
   \   00018D   E0           MOVX    A,@DPTR
   \   00018E   65..         XRL     A,?V0 + 0
   \   000190   7004         JNZ     ??compactPage_10
   \   000192   A3           INC     DPTR
   \   000193   E0           MOVX    A,@DPTR
   \   000194   65..         XRL     A,?V0 + 1
   \                     ??compactPage_10:
   \   000196   7072         JNZ     ??compactPage_11
    532                {
    533                  setItem( srcPg, srcOff, eNvXfer );
   \   000198                ; Setup parameters for call to function setItem
   \   000198   7C00         MOV     R4,#0x0
   \   00019A   85..82       MOV     DPL,?XSP + 0
   \   00019D   85..83       MOV     DPH,?XSP + 1
   \   0001A0   E0           MOVX    A,@DPTR
   \   0001A1   FA           MOV     R2,A
   \   0001A2   A3           INC     DPTR
   \   0001A3   E0           MOVX    A,@DPTR
   \   0001A4   FB           MOV     R3,A
   \   0001A5   A9..         MOV     R1,?V0 + 4
   \   0001A7   12....       LCALL   ??setItem?relay
    534                  writeBuf( pgRes, dstOff, OSAL_NV_HDR_SIZE, (byte *)(&hdr) );
   \   0001AA                ; Setup parameters for call to function writeBuf
   \   0001AA   7406         MOV     A,#0x6
   \   0001AC   12....       LCALL   ?XSTACK_DISP0_8
   \   0001AF   8582..       MOV     ?V0 + 0,DPL
   \   0001B2   8583..       MOV     ?V0 + 1,DPH
   \   0001B5   78..         MOV     R0,#?V0 + 0
   \   0001B7   12....       LCALL   ?PUSH_XSTACK_I_TWO
   \   0001BA   7C08         MOV     R4,#0x8
   \   0001BC   7D00         MOV     R5,#0x0
   \   0001BE   AA..         MOV     R2,?V0 + 6
   \   0001C0   AB..         MOV     R3,?V0 + 7
   \   0001C2   90....       MOV     DPTR,#pgRes
   \   0001C5   E0           MOVX    A,@DPTR
   \   0001C6   F9           MOV     R1,A
   \   0001C7   12....       LCALL   ??writeBuf?relay
   \   0001CA   7402         MOV     A,#0x2
   \   0001CC   12....       LCALL   ?DEALLOC_XSTACK8
    535                  dstOff += OSAL_NV_HDR_SIZE;
   \   0001CF   E5..         MOV     A,?V0 + 6
   \   0001D1   2408         ADD     A,#0x8
   \   0001D3   F5..         MOV     ?V0 + 6,A
   \   0001D5   E5..         MOV     A,?V0 + 7
   \   0001D7   3400         ADDC    A,#0x0
   \   0001D9   F5..         MOV     ?V0 + 7,A
    536                  xferBuf( srcPg, srcOff, pgRes, dstOff, sz );
   \   0001DB                ; Setup parameters for call to function xferBuf
   \   0001DB   78..         MOV     R0,#?V0 + 8
   \   0001DD   12....       LCALL   ?PUSH_XSTACK_I_TWO
   \   0001E0   78..         MOV     R0,#?V0 + 6
   \   0001E2   12....       LCALL   ?PUSH_XSTACK_I_TWO
   \   0001E5   90....       MOV     DPTR,#pgRes
   \   0001E8   E0           MOVX    A,@DPTR
   \   0001E9   FC           MOV     R4,A
   \   0001EA   7404         MOV     A,#0x4
   \   0001EC   12....       LCALL   ?XSTACK_DISP0_8
   \   0001EF   E0           MOVX    A,@DPTR
   \   0001F0   FA           MOV     R2,A
   \   0001F1   A3           INC     DPTR
   \   0001F2   E0           MOVX    A,@DPTR
   \   0001F3   FB           MOV     R3,A
   \   0001F4   A9..         MOV     R1,?V0 + 4
   \   0001F6   12....       LCALL   ??xferBuf?relay
   \   0001F9   7404         MOV     A,#0x4
   \   0001FB   12....       LCALL   ?DEALLOC_XSTACK8
    537                  dstOff += sz;
   \   0001FE   E5..         MOV     A,?V0 + 6
   \   000200   25..         ADD     A,?V0 + 8
   \   000202   F5..         MOV     ?V0 + 6,A
   \   000204   E5..         MOV     A,?V0 + 7
   \   000206   35..         ADDC    A,?V0 + 9
   \   000208   F5..         MOV     ?V0 + 7,A
    538                }
    539          
    540                setItem( srcPg, srcOff, eNvZero );  // Mark old location as invalid.
   \                     ??compactPage_11:
   \   00020A                ; Setup parameters for call to function setItem
   \   00020A   7C01         MOV     R4,#0x1
   \   00020C   85..82       MOV     DPL,?XSP + 0
   \   00020F   85..83       MOV     DPH,?XSP + 1
   \   000212   E0           MOVX    A,@DPTR
   \   000213   FA           MOV     R2,A
   \   000214   A3           INC     DPTR
   \   000215   E0           MOVX    A,@DPTR
   \   000216   FB           MOV     R3,A
   \   000217   A9..         MOV     R1,?V0 + 4
   \   000219   12....       LCALL   ??setItem?relay
    541              }
    542          
    543              srcOff += sz;
   \                     ??compactPage_5:
   \   00021C   85..82       MOV     DPL,?XSP + 0
   \   00021F   85..83       MOV     DPH,?XSP + 1
   \   000222   E0           MOVX    A,@DPTR
   \   000223   25..         ADD     A,?V0 + 8
   \   000225   F0           MOVX    @DPTR,A
   \   000226   A3           INC     DPTR
   \   000227   E0           MOVX    A,@DPTR
   \   000228   35..         ADDC    A,?V0 + 9
   \                     ??compactPage_2:
   \   00022A   F0           MOVX    @DPTR,A
    544          
    545            } while ( TRUE );
   \   00022B                ; Setup parameters for call to function HalFlashRead
   \   00022B   75..08       MOV     ?V0 + 0,#0x8
   \   00022E   75..00       MOV     ?V0 + 1,#0x0
   \   000231   78..         MOV     R0,#?V0 + 0
   \   000233   12....       LCALL   ?PUSH_XSTACK_I_TWO
   \   000236   7408         MOV     A,#0x8
   \   000238   12....       LCALL   ?XSTACK_DISP0_8
   \   00023B   AC82         MOV     R4,DPL
   \   00023D   AD83         MOV     R5,DPH
   \   00023F   7402         MOV     A,#0x2
   \   000241   12....       LCALL   ?XSTACK_DISP0_8
   \   000244   E0           MOVX    A,@DPTR
   \   000245   FA           MOV     R2,A
   \   000246   A3           INC     DPTR
   \   000247   E0           MOVX    A,@DPTR
   \   000248   FB           MOV     R3,A
   \   000249   A9..         MOV     R1,?V0 + 4
   \   00024B   12....       LCALL   ??HalFlashRead?relay
   \   00024E   7402         MOV     A,#0x2
   \   000250   12....       LCALL   ?DEALLOC_XSTACK8
   \   000253   7406         MOV     A,#0x6
   \   000255   12....       LCALL   ?XSTACK_DISP0_8
   \   000258   E0           MOVX    A,@DPTR
   \   000259   F4           CPL     A
   \   00025A   7003         JNZ     ??compactPage_12
   \   00025C   A3           INC     DPTR
   \   00025D   E0           MOVX    A,@DPTR
   \   00025E   F4           CPL     A
   \                     ??compactPage_12:
   \   00025F   6003         JZ      $+5
   \   000261   02....       LJMP    ??compactPage_3 & 0xFFFF
    546          
    547            pgOff[pgRes-OSAL_NV_PAGE_BEG] = dstOff;
   \                     ??compactPage_4:
   \   000264   90....       MOV     DPTR,#pgRes
   \   000267   E0           MOVX    A,@DPTR
   \   000268   C3           CLR     C
   \   000269   33           RLC     A
   \   00026A   F8           MOV     R0,A
   \   00026B   E4           CLR     A
   \   00026C   33           RLC     A
   \   00026D   F9           MOV     R1,A
   \   00026E   74..         MOV     A,#(pgOff + 14) & 0xff
   \   000270   28           ADD     A,R0
   \   000271   F582         MOV     DPL,A
   \   000273   74..         MOV     A,#((pgOff - 242) >> 8) & 0xff
   \   000275   39           ADDC    A,R1
   \   000276   F583         MOV     DPH,A
   \   000278   E5..         MOV     A,?V0 + 6
   \   00027A   F0           MOVX    @DPTR,A
   \   00027B   A3           INC     DPTR
   \   00027C   E5..         MOV     A,?V0 + 7
   \   00027E   F0           MOVX    @DPTR,A
    548          
    549            /* In order to recover from a page compaction that is interrupted,
    550             * the logic in osal_nv_init() depends upon the following order:
    551             * 1. Compacted page is erased.
    552             * 2. State of the target of compaction is changed ePgActive to ePgInUse.
    553             */
    554            erasePage( srcPg );
   \   00027F                ; Setup parameters for call to function HalAdcCheckVdd
   \   00027F   7904         MOV     R1,#0x4
   \   000281   12....       LCALL   ??HalAdcCheckVdd?relay
   \   000284   E9           MOV     A,R1
   \   000285   7007         JNZ     ??compactPage_13
   \   000287   90....       MOV     DPTR,#failF
   \   00028A   7401         MOV     A,#0x1
   \   00028C   802A         SJMP    ??compactPage_14
   \                     ??compactPage_13:
   \   00028E                ; Setup parameters for call to function HalFlashErase
   \   00028E   A9..         MOV     R1,?V0 + 4
   \   000290   12....       LCALL   ??HalFlashErase?relay
   \   000293   E5..         MOV     A,?V0 + 4
   \   000295   C3           CLR     C
   \   000296   33           RLC     A
   \   000297   F8           MOV     R0,A
   \   000298   E4           CLR     A
   \   000299   33           RLC     A
   \   00029A   F9           MOV     R1,A
   \   00029B   74..         MOV     A,#(pgOff + 14) & 0xff
   \   00029D   28           ADD     A,R0
   \   00029E   F582         MOV     DPL,A
   \   0002A0   74..         MOV     A,#((pgOff - 242) >> 8) & 0xff
   \   0002A2   39           ADDC    A,R1
   \   0002A3   F583         MOV     DPH,A
   \   0002A5   7408         MOV     A,#0x8
   \   0002A7   F0           MOVX    @DPTR,A
   \   0002A8   A3           INC     DPTR
   \   0002A9   E4           CLR     A
   \   0002AA   F0           MOVX    @DPTR,A
   \   0002AB   74..         MOV     A,#(pgLost + 14) & 0xff
   \   0002AD   28           ADD     A,R0
   \   0002AE   F582         MOV     DPL,A
   \   0002B0   74..         MOV     A,#((pgLost - 242) >> 8) & 0xff
   \   0002B2   39           ADDC    A,R1
   \   0002B3   F583         MOV     DPH,A
   \   0002B5   E4           CLR     A
   \   0002B6   F0           MOVX    @DPTR,A
   \   0002B7   A3           INC     DPTR
   \                     ??compactPage_14:
   \   0002B8   F0           MOVX    @DPTR,A
    555          
    556            // Mark the reserve page as being in use.
    557            setPageUse( pgRes, TRUE );
   \   0002B9   90....       MOV     DPTR,#pgRes
   \   0002BC   E0           MOVX    A,@DPTR
   \   0002BD   F5..         MOV     ?V0 + 0,A
   \   0002BF   740E         MOV     A,#0xe
   \   0002C1   12....       LCALL   ?XSTACK_DISP0_8
   \   0002C4   E4           CLR     A
   \   0002C5   F0           MOVX    @DPTR,A
   \   0002C6   A3           INC     DPTR
   \   0002C7   F0           MOVX    @DPTR,A
   \   0002C8   7410         MOV     A,#0x10
   \   0002CA   12....       LCALL   ?XSTACK_DISP0_8
   \   0002CD   E4           CLR     A
   \   0002CE   F0           MOVX    @DPTR,A
   \   0002CF   A3           INC     DPTR
   \   0002D0   F0           MOVX    @DPTR,A
   \   0002D1                ; Setup parameters for call to function HalAdcCheckVdd
   \   0002D1   7904         MOV     R1,#0x4
   \   0002D3   12....       LCALL   ??HalAdcCheckVdd?relay
   \   0002D6   E9           MOV     A,R1
   \   0002D7   6028         JZ      ??compactPage_15
   \   0002D9                ; Setup parameters for call to function HalFlashWrite
   \   0002D9   75..01       MOV     ?V0 + 2,#0x1
   \   0002DC   75..00       MOV     ?V0 + 3,#0x0
   \   0002DF   78..         MOV     R0,#?V0 + 2
   \   0002E1   12....       LCALL   ?PUSH_XSTACK_I_TWO
   \   0002E4   7410         MOV     A,#0x10
   \   0002E6   12....       LCALL   ?XSTACK_DISP0_8
   \   0002E9   AC82         MOV     R4,DPL
   \   0002EB   AD83         MOV     R5,DPH
   \   0002ED   7409         MOV     A,#0x9
   \   0002EF   78..         MOV     R0,#?V0 + 0
   \   0002F1   12....       LCALL   ?S_SHL
   \   0002F4   FA           MOV     R2,A
   \   0002F5   AB..         MOV     R3,?V0 + 1
   \   0002F7   12....       LCALL   ??HalFlashWrite?relay
   \   0002FA   7402         MOV     A,#0x2
   \   0002FC   12....       LCALL   ?DEALLOC_XSTACK8
   \   0002FF   8006         SJMP    ??compactPage_16
   \                     ??compactPage_15:
   \   000301   90....       MOV     DPTR,#failF
   \   000304   7401         MOV     A,#0x1
   \   000306   F0           MOVX    @DPTR,A
    558          
    559            // Set the reserve page to be the newly erased page.
    560            pgRes = srcPg;
   \                     ??compactPage_16:
   \   000307   E5..         MOV     A,?V0 + 4
   \   000309   90....       MOV     DPTR,#pgRes
   \   00030C   F0           MOVX    @DPTR,A
    561          }
   \   00030D   7416         MOV     A,#0x16
   \   00030F                REQUIRE ?Subroutine1
   \   00030F                ; // Fall through to label ?Subroutine1

   \                                 In  segment BANKED_CODE, align 1, keep-with-next
   \                     ?Subroutine1:
   \   000000   12....       LCALL   ?DEALLOC_XSTACK8
   \   000003   7F0C         MOV     R7,#0xc
   \   000005   02....       LJMP    ?BANKED_LEAVE_XDATA
    562          
    563          /*********************************************************************
    564           * @fn      findItem
    565           *
    566           * @brief   Find an item Id in NV and return the page and offset to its data.
    567           *
    568           * @param   id - Valid NV item Id.
    569           *
    570           * @return  Offset of data corresponding to item Id, if found;
    571           *          otherwise OSAL_NV_ITEM_NULL.
    572           *
    573           *          The page containing the item, if found;
    574           *          otherwise no valid assignment made - left equal to item Id.
    575           *
    576           */

   \                                 In  segment BANKED_CODE, align 1, keep-with-next
    577          static uint16 findItem( uint16 id )
   \                     findItem:
    578          {
   \   000000   74F4         MOV     A,#-0xc
   \   000002   12....       LCALL   ?BANKED_ENTER_XDATA
   \   000005                ; Saved register size: 12
   \   000005                ; Auto size: 0
   \   000005   EA           MOV     A,R2
   \   000006   FE           MOV     R6,A
   \   000007   EB           MOV     A,R3
   \   000008   8003         SJMP    ??findItem_0
    579            uint16 off;
    580            uint8 pg;
    581          
    582            for ( pg = OSAL_NV_PAGE_BEG; pg <= OSAL_NV_PAGE_END; pg++ )
    583            {
    584              if ( (off = initPage( pg, id, FALSE )) != OSAL_NV_ITEM_NULL )
    585              {
    586                findPg = pg;
    587                return off;
    588              }
    589            }
    590          
    591            // Now attempt to find the item as the "old" item of a failed/interrupted NV write.
    592            if ( (id & OSAL_NV_SOURCE_ID) == 0 )
    593            {
    594              return findItem( id | OSAL_NV_SOURCE_ID );
   \                     ??findItem_1:
   \   00000A   7480         MOV     A,#-0x80
   \   00000C   4F           ORL     A,R7
   \                     ??findItem_0:
   \   00000D   FF           MOV     R7,A
    595            }
   \   00000E   75..79       MOV     ?V0 + 0,#0x79
   \                     ??findItem_2:
   \   000011                ; Setup parameters for call to function initPage
   \   000011   7C00         MOV     R4,#0x0
   \   000013   EE           MOV     A,R6
   \   000014   FA           MOV     R2,A
   \   000015   EF           MOV     A,R7
   \   000016   FB           MOV     R3,A
   \   000017   A9..         MOV     R1,?V0 + 0
   \   000019   12....       LCALL   ??initPage?relay
   \   00001C   8B..         MOV     ?V0 + 3,R3
   \   00001E   A9..         MOV     R1,?V0 + 3
   \   000020   EA           MOV     A,R2
   \   000021   49           ORL     A,R1
   \   000022   6008         JZ      ??findItem_3
   \   000024   E5..         MOV     A,?V0 + 0
   \   000026   90....       MOV     DPTR,#findPg
   \   000029   F0           MOVX    @DPTR,A
   \   00002A   8015         SJMP    ??findItem_4
   \                     ??findItem_3:
   \   00002C   05..         INC     ?V0 + 0
   \   00002E   E5..         MOV     A,?V0 + 0
   \   000030   C3           CLR     C
   \   000031   947F         SUBB    A,#0x7f
   \   000033   40DC         JC      ??findItem_2
   \   000035   EF           MOV     A,R7
   \   000036   5480         ANL     A,#0x80
   \   000038   60D0         JZ      ??findItem_1
    596            else
    597            {
    598              findPg = OSAL_NV_PAGE_NULL;
   \   00003A   90....       MOV     DPTR,#findPg
   \   00003D   E4           CLR     A
   \   00003E   F0           MOVX    @DPTR,A
    599              return OSAL_NV_ITEM_NULL;
   \   00003F   FA           MOV     R2,A
   \   000040   FB           MOV     R3,A
    600            }
   \                     ??findItem_4:
   \   000041                REQUIRE ?Subroutine2
   \   000041                ; // Fall through to label ?Subroutine2
    601          }

   \                                 In  segment BANKED_CODE, align 1, keep-with-next
   \                     ?Subroutine2:
   \   000000   7F04         MOV     R7,#0x4
   \   000002   02....       LJMP    ?BANKED_LEAVE_XDATA
    602          
    603          /*********************************************************************
    604           * @fn      initItem
    605           *
    606           * @brief   An NV item is created and initialized with the data passed to the function, if any.
    607           *
    608           * @param   id  - Valid NV item Id.
    609           * @param   len - Item data length.
    610           * @param  *buf - Pointer to item initalization data. Set to NULL if none.
    611           *
    612           * @return  TRUE if item write and read back checksums ok; FALSE otherwise.
    613           */

   \                                 In  segment BANKED_CODE, align 1, keep-with-next
    614          static uint8 initItem( uint8 flag, uint16 id, uint16 len, void *buf )
   \                     initItem:
    615          {
   \   000000   74EF         MOV     A,#-0x11
   \   000002   12....       LCALL   ?BANKED_ENTER_XDATA
   \   000005                ; Saved register size: 17
   \   000005                ; Auto size: 0
   \   000005   E9           MOV     A,R1
   \   000006   FE           MOV     R6,A
   \   000007   7411         MOV     A,#0x11
   \   000009   12....       LCALL   ?XSTACK_DISP0_8
   \   00000C   E0           MOVX    A,@DPTR
   \   00000D   F5..         MOV     ?V0 + 0,A
   \   00000F   A3           INC     DPTR
   \   000010   E0           MOVX    A,@DPTR
   \   000011   F5..         MOV     ?V0 + 1,A
    616            uint16 sz = OSAL_NV_ITEM_SIZE( len );
   \   000013   EC           MOV     A,R4
   \   000014   2403         ADD     A,#0x3
   \   000016   F8           MOV     R0,A
   \   000017   ED           MOV     A,R5
   \   000018   3400         ADDC    A,#0x0
   \   00001A   F9           MOV     R1,A
   \   00001B   E8           MOV     A,R0
   \   00001C   54FC         ANL     A,#0xfc
   \   00001E   2408         ADD     A,#0x8
   \   000020   F5..         MOV     ?V0 + 4,A
   \   000022   E9           MOV     A,R1
   \   000023   3400         ADDC    A,#0x0
   \   000025   F5..         MOV     ?V0 + 5,A
    617            uint8 rtrn = FALSE;
   \   000027   75..00       MOV     ?V0 + 3,#0x0
    618            uint8 cnt = OSAL_NV_PAGES_USED;
   \   00002A   75..06       MOV     ?V0 + 8,#0x6
    619            uint8 pg = pgRes+1;  // Set to 1 after the reserve page to even wear across all available pages.
   \   00002D   90....       MOV     DPTR,#pgRes
   \   000030   E0           MOVX    A,@DPTR
   \   000031   04           INC     A
   \   000032   FF           MOV     R7,A
    620            uint8 idx = 0;
    621          
    622            do {
    623              if (pg >= OSAL_NV_PAGE_BEG+OSAL_NV_PAGES_USED)
   \                     ??initItem_0:
   \   000033   EF           MOV     A,R7
   \   000034   C3           CLR     C
   \   000035   947F         SUBB    A,#0x7f
   \   000037   4002         JC      ??initItem_1
    624              {
    625                pg = OSAL_NV_PAGE_BEG;
   \   000039   7F79         MOV     R7,#0x79
    626              }
    627              if ( pg != pgRes )
   \                     ??initItem_1:
   \   00003B   90....       MOV     DPTR,#pgRes
   \   00003E   E0           MOVX    A,@DPTR
   \   00003F   6F           XRL     A,R7
   \   000040   6045         JZ      ??initItem_2
    628              {
    629                idx = pg - OSAL_NV_PAGE_BEG;
   \   000042   7487         MOV     A,#-0x79
   \   000044   2F           ADD     A,R7
   \   000045   F5..         MOV     ?V0 + 2,A
    630                if ( (pgOff[idx] - pgLost[idx] + sz) <= OSAL_NV_PAGE_FREE )
   \   000047   C3           CLR     C
   \   000048   33           RLC     A
   \   000049   F8           MOV     R0,A
   \   00004A   E4           CLR     A
   \   00004B   33           RLC     A
   \   00004C   F9           MOV     R1,A
   \   00004D   74..         MOV     A,#pgOff & 0xff
   \   00004F   28           ADD     A,R0
   \   000050   F582         MOV     DPL,A
   \   000052   74..         MOV     A,#(pgOff >> 8) & 0xff
   \   000054   39           ADDC    A,R1
   \   000055   F583         MOV     DPH,A
   \   000057   E0           MOVX    A,@DPTR
   \   000058   F5..         MOV     ?V0 + 6,A
   \   00005A   A3           INC     DPTR
   \   00005B   E0           MOVX    A,@DPTR
   \   00005C   F5..         MOV     ?V0 + 7,A
   \   00005E   74..         MOV     A,#pgLost & 0xff
   \   000060   28           ADD     A,R0
   \   000061   F582         MOV     DPL,A
   \   000063   74..         MOV     A,#(pgLost >> 8) & 0xff
   \   000065   39           ADDC    A,R1
   \   000066   F583         MOV     DPH,A
   \   000068   E0           MOVX    A,@DPTR
   \   000069   F8           MOV     R0,A
   \   00006A   A3           INC     DPTR
   \   00006B   E0           MOVX    A,@DPTR
   \   00006C   F9           MOV     R1,A
   \   00006D   E5..         MOV     A,?V0 + 6
   \   00006F   C3           CLR     C
   \   000070   98           SUBB    A,R0
   \   000071   F8           MOV     R0,A
   \   000072   E5..         MOV     A,?V0 + 7
   \   000074   99           SUBB    A,R1
   \   000075   F9           MOV     R1,A
   \   000076   E8           MOV     A,R0
   \   000077   25..         ADD     A,?V0 + 4
   \   000079   F8           MOV     R0,A
   \   00007A   E9           MOV     A,R1
   \   00007B   35..         ADDC    A,?V0 + 5
   \   00007D   F9           MOV     R1,A
   \   00007E   C3           CLR     C
   \   00007F   E8           MOV     A,R0
   \   000080   9401         SUBB    A,#0x1
   \   000082   E9           MOV     A,R1
   \   000083   9408         SUBB    A,#0x8
   \   000085   4009         JC      ??initItem_3
    631                {
    632                  break;
    633                }
    634              }
    635              pg++;
   \                     ??initItem_2:
   \   000087   0F           INC     R7
    636            } while (--cnt);
   \   000088   15..         DEC     ?V0 + 8
   \   00008A   E5..         MOV     A,?V0 + 8
   \   00008C   70A5         JNZ     ??initItem_0
   \   00008E   8052         SJMP    ??initItem_4
    637          
    638            if (cnt)
   \                     ??initItem_3:
   \   000090   E5..         MOV     A,?V0 + 8
   \   000092   604E         JZ      ??initItem_4
    639            {
    640              // Item fits if an old page is compacted.
    641              if ( (pgOff[idx] + sz) > OSAL_NV_PAGE_FREE )
   \   000094   E5..         MOV     A,?V0 + 6
   \   000096   25..         ADD     A,?V0 + 4
   \   000098   F8           MOV     R0,A
   \   000099   E5..         MOV     A,?V0 + 7
   \   00009B   35..         ADDC    A,?V0 + 5
   \   00009D   F9           MOV     R1,A
   \   00009E   C3           CLR     C
   \   00009F   E8           MOV     A,R0
   \   0000A0   9401         SUBB    A,#0x1
   \   0000A2   E9           MOV     A,R1
   \   0000A3   9408         SUBB    A,#0x8
   \   0000A5   4005         JC      ??initItem_5
    642              {
    643                pg = pgRes;
   \   0000A7   90....       MOV     DPTR,#pgRes
   \   0000AA   E0           MOVX    A,@DPTR
   \   0000AB   FF           MOV     R7,A
    644              }
    645          
    646              // New item is the first one written to the reserved page, then the old page is compacted.
    647              rtrn = writeItem( pg, id, len, buf, flag );
   \                     ??initItem_5:
   \   0000AC                ; Setup parameters for call to function writeItem
   \   0000AC   EE           MOV     A,R6
   \   0000AD   F5..         MOV     ?V0 + 3,A
   \   0000AF   78..         MOV     R0,#?V0 + 3
   \   0000B1   12....       LCALL   ?PUSH_XSTACK_I_ONE
   \   0000B4   78..         MOV     R0,#?V0 + 0
   \   0000B6   12....       LCALL   ?PUSH_XSTACK_I_TWO
   \   0000B9   EF           MOV     A,R7
   \   0000BA   F9           MOV     R1,A
   \   0000BB   12....       LCALL   ??writeItem?relay
   \   0000BE   7403         MOV     A,#0x3
   \   0000C0   12....       LCALL   ?DEALLOC_XSTACK8
   \   0000C3   E9           MOV     A,R1
   \   0000C4   F5..         MOV     ?V0 + 3,A
    648          
    649              if ( pg == pgRes )
   \   0000C6   90....       MOV     DPTR,#pgRes
   \   0000C9   E0           MOVX    A,@DPTR
   \   0000CA   6F           XRL     A,R7
   \   0000CB   7015         JNZ     ??initItem_4
    650              {
    651                if ( flag )
   \   0000CD   7479         MOV     A,#0x79
   \   0000CF   25..         ADD     A,?V0 + 2
   \   0000D1   F9           MOV     R1,A
   \   0000D2   EE           MOV     A,R6
   \   0000D3   6005         JZ      ??initItem_6
    652                {
    653                  compactPage( OSAL_NV_PAGE_BEG+idx );
   \   0000D5                ; Setup parameters for call to function compactPage
   \   0000D5   12....       LCALL   ??compactPage?relay
   \   0000D8   8008         SJMP    ??initItem_4
    654                }
    655                else
    656                {
    657                  *(uint8 *)buf = OSAL_NV_PAGE_BEG+idx;
   \                     ??initItem_6:
   \   0000DA   E9           MOV     A,R1
   \   0000DB   85..82       MOV     DPL,?V0 + 0
   \   0000DE   85..83       MOV     DPH,?V0 + 1
   \   0000E1   F0           MOVX    @DPTR,A
    658                }
    659              }
    660            }
    661          
    662            return rtrn;
   \                     ??initItem_4:
   \   0000E2   A9..         MOV     R1,?V0 + 3
   \   0000E4   7F09         MOV     R7,#0x9
   \   0000E6   02....       LJMP    ?BANKED_LEAVE_XDATA
    663          }
    664          
    665          /*********************************************************************
    666           * @fn      setItem
    667           *
    668           * @brief   Set an item Id or status to mark its state.
    669           *
    670           * @param   pg - Valid NV page.
    671           * @param   offset - Valid offset into the page of the item data - the header
    672           *                   offset is calculated from this.
    673           * @param   stat - Valid enum value for the item status.
    674           *
    675           * @return  none
    676           */

   \                                 In  segment BANKED_CODE, align 1, keep-with-next
    677          static void setItem( uint8 pg, uint16 offset, eNvHdrEnum stat )
   \                     setItem:
    678          {
   \   000000   74F2         MOV     A,#-0xe
   \   000002   12....       LCALL   ?BANKED_ENTER_XDATA
   \   000005                ; Saved register size: 14
   \   000005                ; Auto size: 8
   \   000005   74F8         MOV     A,#-0x8
   \   000007   12....       LCALL   ?ALLOC_XSTACK8
   \   00000A   89..         MOV     ?V0 + 1,R1
   \   00000C   8C..         MOV     ?V0 + 0,R4
    679            osalNvHdr_t hdr;
    680          
    681            offset -= OSAL_NV_HDR_SIZE;
   \   00000E   EA           MOV     A,R2
   \   00000F   24F8         ADD     A,#-0x8
   \   000011   F5..         MOV     ?V0 + 2,A
   \   000013   EB           MOV     A,R3
   \   000014   34FF         ADDC    A,#-0x1
   \   000016   F5..         MOV     ?V0 + 3,A
    682            HalFlashRead(pg, offset, (uint8 *)(&hdr), OSAL_NV_HDR_SIZE);
   \   000018                ; Setup parameters for call to function HalFlashRead
   \   000018   75..08       MOV     ?V0 + 4,#0x8
   \   00001B   75..00       MOV     ?V0 + 5,#0x0
   \   00001E   78..         MOV     R0,#?V0 + 4
   \   000020   12....       LCALL   ?PUSH_XSTACK_I_TWO
   \   000023   7402         MOV     A,#0x2
   \   000025   12....       LCALL   ?XSTACK_DISP0_8
   \   000028   AC82         MOV     R4,DPL
   \   00002A   AD83         MOV     R5,DPH
   \   00002C   AA..         MOV     R2,?V0 + 2
   \   00002E   AB..         MOV     R3,?V0 + 3
   \   000030   12....       LCALL   ??HalFlashRead?relay
   \   000033   7402         MOV     A,#0x2
   \   000035   12....       LCALL   ?DEALLOC_XSTACK8
    683          
    684            if ( stat == eNvXfer )
   \   000038   E5..         MOV     A,?V0 + 0
   \   00003A   705D         JNZ     ??setItem_0
    685            {
    686              hdr.stat = OSAL_NV_ACTIVE;
   \   00003C   7406         MOV     A,#0x6
   \   00003E   12....       LCALL   ?XSTACK_DISP0_8
   \   000041   E4           CLR     A
   \   000042   F0           MOVX    @DPTR,A
   \   000043   A3           INC     DPTR
   \   000044   F0           MOVX    @DPTR,A
    687              writeWord( pg, offset+OSAL_NV_HDR_CHK, (uint8*)(&(hdr.chk)) );
   \   000045                ; Setup parameters for call to function HalAdcCheckVdd
   \   000045   7904         MOV     R1,#0x4
   \   000047   12....       LCALL   ??HalAdcCheckVdd?relay
   \   00004A   E9           MOV     A,R1
   \   00004B   6045         JZ      ??setItem_1
   \   00004D                ; Setup parameters for call to function HalFlashWrite
   \   00004D   75..01       MOV     ?V0 + 4,#0x1
   \   000050   78..         MOV     R0,#?V0 + 4
   \   000052   12....       LCALL   ?PUSH_XSTACK_I_TWO
   \   000055   7406         MOV     A,#0x6
   \   000057   12....       LCALL   ?XSTACK_DISP0_8
   \   00005A   AC82         MOV     R4,DPL
   \   00005C   AD83         MOV     R5,DPH
   \   00005E   E5..         MOV     A,?V0 + 2
   \   000060   2404         ADD     A,#0x4
   \   000062   F5..         MOV     ?V0 + 4,A
   \   000064   E5..         MOV     A,?V0 + 3
   \   000066   3400         ADDC    A,#0x0
   \   000068   F5..         MOV     ?V0 + 5,A
   \   00006A   7402         MOV     A,#0x2
   \   00006C   78..         MOV     R0,#?V0 + 4
   \   00006E   12....       LCALL   ?US_SHR
   \   000071   85....       MOV     ?V0 + 2,?V0 + 1
   \   000074   F5..         MOV     ?V0 + 3,A
   \   000076   7409         MOV     A,#0x9
   \   000078   78..         MOV     R0,#?V0 + 2
   \   00007A   12....       LCALL   ?S_SHL
   \   00007D   E5..         MOV     A,?V0 + 4
   \   00007F   2400         ADD     A,#0x0
   \   000081   FA           MOV     R2,A
   \   000082   E5..         MOV     A,?V0 + 5
   \   000084   35..         ADDC    A,?V0 + 3
   \   000086   FB           MOV     R3,A
   \   000087   12....       LCALL   ??HalFlashWrite?relay
   \   00008A   7402         MOV     A,#0x2
   \   00008C   12....       LCALL   ?DEALLOC_XSTACK8
   \   00008F   02....       LJMP    ??setItem_2 & 0xFFFF
   \                     ??setItem_1:
   \   000092   90....       MOV     DPTR,#failF
   \   000095   7401         MOV     A,#0x1
   \   000097   807E         SJMP    ??setItem_3
    688          }
    689            else // if ( stat == eNvZero )
    690            {
    691              uint16 sz = ((hdr.len + (OSAL_NV_WORD_SIZE-1)) / OSAL_NV_WORD_SIZE) * OSAL_NV_WORD_SIZE +
    692                                                                                    OSAL_NV_HDR_SIZE;
   \                     ??setItem_0:
   \   000099   7402         MOV     A,#0x2
   \   00009B   12....       LCALL   ?XSTACK_DISP0_8
   \   00009E   E0           MOVX    A,@DPTR
   \   00009F   2403         ADD     A,#0x3
   \   0000A1   F8           MOV     R0,A
   \   0000A2   A3           INC     DPTR
   \   0000A3   E0           MOVX    A,@DPTR
   \   0000A4   3400         ADDC    A,#0x0
   \   0000A6   F9           MOV     R1,A
   \   0000A7   E8           MOV     A,R0
   \   0000A8   54FC         ANL     A,#0xfc
   \   0000AA   2408         ADD     A,#0x8
   \   0000AC   FE           MOV     R6,A
   \   0000AD   E9           MOV     A,R1
   \   0000AE   3400         ADDC    A,#0x0
   \   0000B0   FF           MOV     R7,A
    693              hdr.id = 0;
   \   0000B1   85..82       MOV     DPL,?XSP + 0
   \   0000B4   85..83       MOV     DPH,?XSP + 1
   \   0000B7   E4           CLR     A
   \   0000B8   F0           MOVX    @DPTR,A
   \   0000B9   A3           INC     DPTR
   \   0000BA   F0           MOVX    @DPTR,A
    694              writeWord( pg, offset, (uint8 *)(&hdr) );
   \   0000BB                ; Setup parameters for call to function HalAdcCheckVdd
   \   0000BB   7904         MOV     R1,#0x4
   \   0000BD   12....       LCALL   ??HalAdcCheckVdd?relay
   \   0000C0   E9           MOV     A,R1
   \   0000C1   6036         JZ      ??setItem_4
   \   0000C3                ; Setup parameters for call to function HalFlashWrite
   \   0000C3   75..01       MOV     ?V0 + 4,#0x1
   \   0000C6   78..         MOV     R0,#?V0 + 4
   \   0000C8   12....       LCALL   ?PUSH_XSTACK_I_TWO
   \   0000CB   7402         MOV     A,#0x2
   \   0000CD   12....       LCALL   ?XSTACK_DISP0_8
   \   0000D0   AC82         MOV     R4,DPL
   \   0000D2   AD83         MOV     R5,DPH
   \   0000D4   7402         MOV     A,#0x2
   \   0000D6   78..         MOV     R0,#?V0 + 2
   \   0000D8   12....       LCALL   ?US_SHR
   \   0000DB   85....       MOV     ?V0 + 4,?V0 + 1
   \   0000DE   7409         MOV     A,#0x9
   \   0000E0   78..         MOV     R0,#?V0 + 4
   \   0000E2   12....       LCALL   ?S_SHL
   \   0000E5   E5..         MOV     A,?V0 + 2
   \   0000E7   2400         ADD     A,#0x0
   \   0000E9   FA           MOV     R2,A
   \   0000EA   E5..         MOV     A,?V0 + 3
   \   0000EC   35..         ADDC    A,?V0 + 5
   \   0000EE   FB           MOV     R3,A
   \   0000EF   12....       LCALL   ??HalFlashWrite?relay
   \   0000F2   7402         MOV     A,#0x2
   \   0000F4   12....       LCALL   ?DEALLOC_XSTACK8
   \   0000F7   8006         SJMP    ??setItem_5
   \                     ??setItem_4:
   \   0000F9   90....       MOV     DPTR,#failF
   \   0000FC   7401         MOV     A,#0x1
   \   0000FE   F0           MOVX    @DPTR,A
    695              pgLost[pg-OSAL_NV_PAGE_BEG] += sz;
   \                     ??setItem_5:
   \   0000FF   E5..         MOV     A,?V0 + 1
   \   000101   C3           CLR     C
   \   000102   33           RLC     A
   \   000103   F8           MOV     R0,A
   \   000104   E4           CLR     A
   \   000105   33           RLC     A
   \   000106   F9           MOV     R1,A
   \   000107   74..         MOV     A,#(pgLost + 14) & 0xff
   \   000109   28           ADD     A,R0
   \   00010A   F582         MOV     DPL,A
   \   00010C   74..         MOV     A,#((pgLost - 242) >> 8) & 0xff
   \   00010E   39           ADDC    A,R1
   \   00010F   F583         MOV     DPH,A
   \   000111   E0           MOVX    A,@DPTR
   \   000112   2E           ADD     A,R6
   \   000113   F0           MOVX    @DPTR,A
   \   000114   A3           INC     DPTR
   \   000115   E0           MOVX    A,@DPTR
   \   000116   3F           ADDC    A,R7
   \                     ??setItem_3:
   \   000117   F0           MOVX    @DPTR,A
    696            }
    697          }
   \                     ??setItem_2:
   \   000118   7408         MOV     A,#0x8
   \   00011A   12....       LCALL   ?DEALLOC_XSTACK8
   \   00011D   7F06         MOV     R7,#0x6
   \   00011F   02....       LJMP    ?BANKED_LEAVE_XDATA
    698          
    699          /*********************************************************************
    700           * @fn      calcChkB
    701           *
    702           * @brief   Calculates the data checksum over the 'buf' parameter.
    703           *
    704           * @param   pg - A valid NV Flash page.
    705           * @param   offset - A valid offset into the page.
    706           * @param   len - Byte count of the data to be checksummed.
    707           *
    708           * @return  Calculated checksum of the data bytes.
    709           */
    710          static uint16 calcChkB( uint16 len, uint8 *buf )
    711          {
    712            uint8 fill = len % OSAL_NV_WORD_SIZE;
    713            uint16 chk;
    714          
    715            if ( !buf )
    716            {
    717              chk = len * OSAL_NV_ERASED;
    718            }
    719            else
    720            {
    721              chk = 0;
    722              while ( len-- )
    723              {
    724                chk += *buf++;
    725              }
    726            }
    727          
    728            // calcChkF() will calculate over OSAL_NV_WORD_SIZE alignment.
    729            if ( fill )
    730            {
    731              chk += (OSAL_NV_WORD_SIZE - fill) * OSAL_NV_ERASED;
    732            }
    733          
    734            return chk;
    735          }
    736          
    737          /*********************************************************************
    738           * @fn      calcChkF
    739           *
    740           * @brief   Calculates the data checksum by reading the data bytes from NV.
    741           *
    742           * @param   pg - A valid NV Flash page.
    743           * @param   offset - A valid offset into the page.
    744           * @param   len - Byte count of the data to be checksummed.
    745           *
    746           * @return  Calculated checksum of the data bytes.
    747           */
    748          static uint16 calcChkF( byte pg, uint16 offset, uint16 len )
    749          {
    750            uint16 chk = 0;
    751          
    752            len = (len + (OSAL_NV_WORD_SIZE-1)) / OSAL_NV_WORD_SIZE;
    753          
    754            while ( len-- )
    755            {
    756              uint8 cnt, tmp[OSAL_NV_WORD_SIZE];
    757          
    758              HalFlashRead(pg, offset, tmp, OSAL_NV_WORD_SIZE);
    759              offset += OSAL_NV_WORD_SIZE;
    760          
    761              for ( cnt = 0; cnt < OSAL_NV_WORD_SIZE; cnt++ )
    762              {
    763                chk += tmp[cnt];
    764              }
    765            }
    766          
    767            return chk;
    768          }
    769          
    770          /*********************************************************************
    771           * @fn      writeWord
    772           *
    773           * @brief   Writes a Flash-WORD to NV.
    774           *
    775           * @param   pg - A valid NV Flash page.
    776           * @param   offset - A valid offset into the page.
    777           * @param   buf - Pointer to source buffer.
    778           *
    779           * @return  none
    780           */
    781          static void writeWord( uint8 pg, uint16 offset, uint8 *buf )
    782          {
    783            offset = (offset >> 2) + ((uint16)pg << 9);
    784          
    785            if ( OSAL_NV_CHECK_BUS_VOLTAGE )
    786            {
    787              HalFlashWrite(offset, buf, 1);
    788            }
    789            else
    790            {
    791              failF = TRUE;
    792            }
    793          }
    794          
    795          /*********************************************************************
    796           * @fn      writeWordM
    797           *
    798           * @brief   Writes multiple Flash-WORDs to NV.
    799           *
    800           * @param   pg - A valid NV Flash page.
    801           * @param   offset - A valid offset into the page.
    802           * @param   buf - Pointer to source buffer.
    803           * @param   cnt - Number of 4-byte blocks to write.
    804           *
    805           * @return  none
    806           */
    807          static void writeWordM( uint8 pg, uint16 offset, uint8 *buf, uint16 cnt )
    808          {
    809            offset = (offset >> 2) + ((uint16)pg << 9);
    810          
    811            if ( OSAL_NV_CHECK_BUS_VOLTAGE )
    812            {
    813              HalFlashWrite(offset, buf, cnt);
    814            }
    815            else
    816            {
    817              failF = TRUE;
    818            }
    819          }
    820          
    821          /*********************************************************************
    822           * @fn      writeWordH
    823           *
    824           * @brief   Writes the 1st half of a Flash-WORD to NV (filling 2nd half with 0xffff).
    825           *
    826           * @param   pg - A valid NV Flash page.
    827           * @param   offset - A valid offset into the page.
    828           * @param   buf - Pointer to source buffer.
    829           *
    830           * @return  none
    831           */
    832          static void writeWordH( uint8 pg, uint16 offset, uint8 *buf )
    833          {
    834            uint8 tmp[4];
    835          
    836            tmp[0] = buf[0];
    837            tmp[1] = buf[1];
    838            tmp[2] = OSAL_NV_ERASED;
    839            tmp[3] = OSAL_NV_ERASED;
    840          
    841            writeWord( pg, offset, tmp );
    842          }
    843          
    844          /*********************************************************************
    845           * @fn      writeBuf
    846           *
    847           * @brief   Writes a data buffer to NV.
    848           *
    849           * @param   dstPg - A valid NV Flash page.
    850           * @param   offset - A valid offset into the page.
    851           * @param   len  - Byte count of the data to write.
    852           * @param   buf  - The data to write.
    853           *
    854           * @return  TRUE if data buf checksum matches read back checksum, else FALSE.
    855           */

   \                                 In  segment BANKED_CODE, align 1, keep-with-next
    856          static void writeBuf( uint8 dstPg, uint16 dstOff, uint16 len, uint8 *buf )
   \                     writeBuf:
    857          {
   \   000000   74EE         MOV     A,#-0x12
   \   000002   12....       LCALL   ?BANKED_ENTER_XDATA
   \   000005                ; Saved register size: 18
   \   000005                ; Auto size: 4
   \   000005   74FC         MOV     A,#-0x4
   \   000007   12....       LCALL   ?ALLOC_XSTACK8
   \   00000A   E9           MOV     A,R1
   \   00000B   FF           MOV     R7,A
   \   00000C   8A..         MOV     ?V0 + 2,R2
   \   00000E   8B..         MOV     ?V0 + 3,R3
   \   000010   8C..         MOV     ?V0 + 4,R4
   \   000012   8D..         MOV     ?V0 + 5,R5
   \   000014   7416         MOV     A,#0x16
   \   000016   12....       LCALL   ?XSTACK_DISP0_8
   \   000019   E0           MOVX    A,@DPTR
   \   00001A   F5..         MOV     ?V0 + 0,A
   \   00001C   A3           INC     DPTR
   \   00001D   E0           MOVX    A,@DPTR
   \   00001E   F5..         MOV     ?V0 + 1,A
    858            uint8 rem = dstOff % OSAL_NV_WORD_SIZE;
   \   000020   EA           MOV     A,R2
   \   000021   5403         ANL     A,#0x3
   \   000023   FE           MOV     R6,A
    859            uint8 tmp[OSAL_NV_WORD_SIZE];
    860          
    861            if ( rem )
   \   000024   7003         JNZ     $+5
   \   000026   02....       LJMP    ??writeBuf_0 & 0xFFFF
    862            {
    863              dstOff = (dstOff / OSAL_NV_WORD_SIZE) * OSAL_NV_WORD_SIZE;
   \   000029   74FC         MOV     A,#-0x4
   \   00002B   55..         ANL     A,?V0 + 2
   \   00002D   F5..         MOV     ?V0 + 2,A
    864              HalFlashRead(dstPg, dstOff, tmp, OSAL_NV_WORD_SIZE);
   \   00002F                ; Setup parameters for call to function HalFlashRead
   \   00002F   75..04       MOV     ?V0 + 6,#0x4
   \   000032   75..00       MOV     ?V0 + 7,#0x0
   \   000035   78..         MOV     R0,#?V0 + 6
   \   000037   12....       LCALL   ?PUSH_XSTACK_I_TWO
   \   00003A   7402         MOV     A,#0x2
   \   00003C   12....       LCALL   ?XSTACK_DISP0_8
   \   00003F   AC82         MOV     R4,DPL
   \   000041   AD83         MOV     R5,DPH
   \   000043   AA..         MOV     R2,?V0 + 2
   \   000045   12....       LCALL   ??HalFlashRead?relay
   \   000048   7402         MOV     A,#0x2
   \   00004A   12....       LCALL   ?DEALLOC_XSTACK8
   \   00004D   8E..         MOV     ?V0 + 6,R6
   \   00004F   85..82       MOV     DPL,?XSP + 0
   \   000052   85..83       MOV     DPH,?XSP + 1
   \   000055   E582         MOV     A,DPL
   \   000057   25..         ADD     A,?V0 + 6
   \   000059   F8           MOV     R0,A
   \   00005A   E583         MOV     A,DPH
   \   00005C   3400         ADDC    A,#0x0
   \   00005E   F9           MOV     R1,A
   \                     ??writeBuf_1:
   \   00005F   E5..         MOV     A,?V0 + 4
   \   000061   45..         ORL     A,?V0 + 5
   \   000063   6035         JZ      ??writeBuf_2
    865          
    866              while ( (rem < OSAL_NV_WORD_SIZE) && len )
    867              {
    868                tmp[rem++] = *buf++;
   \   000065   85..82       MOV     DPL,?V0 + 0
   \   000068   85..83       MOV     DPH,?V0 + 1
   \   00006B   E0           MOVX    A,@DPTR
   \   00006C   8882         MOV     DPL,R0
   \   00006E   8983         MOV     DPH,R1
   \   000070   F0           MOVX    @DPTR,A
   \   000071   85..82       MOV     DPL,?V0 + 0
   \   000074   85..83       MOV     DPH,?V0 + 1
   \   000077   A3           INC     DPTR
   \   000078   8582..       MOV     ?V0 + 0,DPL
   \   00007B   8583..       MOV     ?V0 + 1,DPH
   \   00007E   0E           INC     R6
    869                len--;
   \   00007F   E5..         MOV     A,?V0 + 4
   \   000081   24FF         ADD     A,#-0x1
   \   000083   F5..         MOV     ?V0 + 4,A
   \   000085   E5..         MOV     A,?V0 + 5
   \   000087   34FF         ADDC    A,#-0x1
   \   000089   F5..         MOV     ?V0 + 5,A
   \   00008B   8882         MOV     DPL,R0
   \   00008D   8983         MOV     DPH,R1
   \   00008F   A3           INC     DPTR
   \   000090   A882         MOV     R0,DPL
   \   000092   A983         MOV     R1,DPH
    870              }
   \   000094   EE           MOV     A,R6
   \   000095   C3           CLR     C
   \   000096   9404         SUBB    A,#0x4
   \   000098   40C5         JC      ??writeBuf_1
    871          
    872              writeWord( dstPg, dstOff, tmp );
   \                     ??writeBuf_2:
   \   00009A                ; Setup parameters for call to function HalAdcCheckVdd
   \   00009A   7904         MOV     R1,#0x4
   \   00009C   12....       LCALL   ??HalAdcCheckVdd?relay
   \   00009F   E9           MOV     A,R1
   \   0000A0   603D         JZ      ??writeBuf_3
   \   0000A2                ; Setup parameters for call to function HalFlashWrite
   \   0000A2   75..01       MOV     ?V0 + 6,#0x1
   \   0000A5   78..         MOV     R0,#?V0 + 6
   \   0000A7   12....       LCALL   ?PUSH_XSTACK_I_TWO
   \   0000AA   7402         MOV     A,#0x2
   \   0000AC   12....       LCALL   ?XSTACK_DISP0_8
   \   0000AF   AC82         MOV     R4,DPL
   \   0000B1   AD83         MOV     R5,DPH
   \   0000B3   85....       MOV     ?V0 + 6,?V0 + 2
   \   0000B6   85....       MOV     ?V0 + 7,?V0 + 3
   \   0000B9   7402         MOV     A,#0x2
   \   0000BB   78..         MOV     R0,#?V0 + 6
   \   0000BD   12....       LCALL   ?US_SHR
   \   0000C0   8F..         MOV     ?V0 + 8,R7
   \   0000C2   F5..         MOV     ?V0 + 9,A
   \   0000C4   7409         MOV     A,#0x9
   \   0000C6   78..         MOV     R0,#?V0 + 8
   \   0000C8   12....       LCALL   ?S_SHL
   \   0000CB   E5..         MOV     A,?V0 + 6
   \   0000CD   2400         ADD     A,#0x0
   \   0000CF   FA           MOV     R2,A
   \   0000D0   E5..         MOV     A,?V0 + 7
   \   0000D2   35..         ADDC    A,?V0 + 9
   \   0000D4   FB           MOV     R3,A
   \   0000D5   12....       LCALL   ??HalFlashWrite?relay
   \   0000D8   7402         MOV     A,#0x2
   \   0000DA   12....       LCALL   ?DEALLOC_XSTACK8
   \   0000DD   8006         SJMP    ??writeBuf_4
   \                     ??writeBuf_3:
   \   0000DF   90....       MOV     DPTR,#failF
   \   0000E2   7401         MOV     A,#0x1
   \   0000E4   F0           MOVX    @DPTR,A
    873              dstOff += OSAL_NV_WORD_SIZE;
   \                     ??writeBuf_4:
   \   0000E5   E5..         MOV     A,?V0 + 2
   \   0000E7   2404         ADD     A,#0x4
   \   0000E9   F5..         MOV     ?V0 + 2,A
   \   0000EB   E5..         MOV     A,?V0 + 3
   \   0000ED   3400         ADDC    A,#0x0
   \   0000EF   F5..         MOV     ?V0 + 3,A
    874            }
    875          
    876            rem = len % OSAL_NV_WORD_SIZE;
   \                     ??writeBuf_0:
   \   0000F1   E5..         MOV     A,?V0 + 4
   \   0000F3   5403         ANL     A,#0x3
   \   0000F5   FE           MOV     R6,A
    877            len /= OSAL_NV_WORD_SIZE;
   \   0000F6   85....       MOV     ?V0 + 6,?V0 + 4
   \   0000F9   85....       MOV     ?V0 + 7,?V0 + 5
   \   0000FC   7402         MOV     A,#0x2
   \   0000FE   78..         MOV     R0,#?V0 + 6
   \   000100   12....       LCALL   ?US_SHR
   \   000103   85....       MOV     ?V0 + 4,?V0 + 6
   \   000106   85....       MOV     ?V0 + 5,?V0 + 7
    878          
    879            if ( len )
   \   000109   E5..         MOV     A,?V0 + 4
   \   00010B   45..         ORL     A,?V0 + 5
   \   00010D   6062         JZ      ??writeBuf_5
    880            {
    881              writeWordM( dstPg, dstOff, buf, len );
   \   00010F                ; Setup parameters for call to function HalAdcCheckVdd
   \   00010F   7904         MOV     R1,#0x4
   \   000111   12....       LCALL   ??HalAdcCheckVdd?relay
   \   000114   E9           MOV     A,R1
   \   000115   6035         JZ      ??writeBuf_6
   \   000117                ; Setup parameters for call to function HalFlashWrite
   \   000117   78..         MOV     R0,#?V0 + 4
   \   000119   12....       LCALL   ?PUSH_XSTACK_I_TWO
   \   00011C   AC..         MOV     R4,?V0 + 0
   \   00011E   AD..         MOV     R5,?V0 + 1
   \   000120   85....       MOV     ?V0 + 6,?V0 + 2
   \   000123   85....       MOV     ?V0 + 7,?V0 + 3
   \   000126   7402         MOV     A,#0x2
   \   000128   78..         MOV     R0,#?V0 + 6
   \   00012A   12....       LCALL   ?US_SHR
   \   00012D   8F..         MOV     ?V0 + 8,R7
   \   00012F   F5..         MOV     ?V0 + 9,A
   \   000131   7409         MOV     A,#0x9
   \   000133   78..         MOV     R0,#?V0 + 8
   \   000135   12....       LCALL   ?S_SHL
   \   000138   E5..         MOV     A,?V0 + 6
   \   00013A   2400         ADD     A,#0x0
   \   00013C   FA           MOV     R2,A
   \   00013D   E5..         MOV     A,?V0 + 7
   \   00013F   35..         ADDC    A,?V0 + 9
   \   000141   FB           MOV     R3,A
   \   000142   12....       LCALL   ??HalFlashWrite?relay
   \   000145   7402         MOV     A,#0x2
   \   000147   12....       LCALL   ?DEALLOC_XSTACK8
   \   00014A   8006         SJMP    ??writeBuf_7
   \                     ??writeBuf_6:
   \   00014C   90....       MOV     DPTR,#failF
   \   00014F   7401         MOV     A,#0x1
   \   000151   F0           MOVX    @DPTR,A
    882              dstOff += OSAL_NV_WORD_SIZE * len;
   \                     ??writeBuf_7:
   \   000152   7402         MOV     A,#0x2
   \   000154   78..         MOV     R0,#?V0 + 4
   \   000156   12....       LCALL   ?S_SHL
   \   000159   A8..         MOV     R0,?V0 + 4
   \   00015B   A9..         MOV     R1,?V0 + 5
   \   00015D   E5..         MOV     A,?V0 + 2
   \   00015F   28           ADD     A,R0
   \   000160   F5..         MOV     ?V0 + 2,A
   \   000162   E5..         MOV     A,?V0 + 3
   \   000164   39           ADDC    A,R1
   \   000165   F5..         MOV     ?V0 + 3,A
    883              buf += OSAL_NV_WORD_SIZE * len;
   \   000167   E5..         MOV     A,?V0 + 0
   \   000169   28           ADD     A,R0
   \   00016A   F5..         MOV     ?V0 + 0,A
   \   00016C   E5..         MOV     A,?V0 + 1
   \   00016E   39           ADDC    A,R1
   \   00016F   F5..         MOV     ?V0 + 1,A
    884            }
    885          
    886            if ( rem )
   \                     ??writeBuf_5:
   \   000171   EE           MOV     A,R6
   \   000172   7003         JNZ     $+5
   \   000174   02....       LJMP    ??writeBuf_8 & 0xFFFF
    887            {
    888              uint8 idx = 0;
    889              HalFlashRead(dstPg, dstOff, tmp, OSAL_NV_WORD_SIZE);
   \   000177                ; Setup parameters for call to function HalFlashRead
   \   000177   75..04       MOV     ?V0 + 4,#0x4
   \   00017A   75..00       MOV     ?V0 + 5,#0x0
   \   00017D   78..         MOV     R0,#?V0 + 4
   \   00017F   12....       LCALL   ?PUSH_XSTACK_I_TWO
   \   000182   7402         MOV     A,#0x2
   \   000184   12....       LCALL   ?XSTACK_DISP0_8
   \   000187   AC82         MOV     R4,DPL
   \   000189   AD83         MOV     R5,DPH
   \   00018B   AA..         MOV     R2,?V0 + 2
   \   00018D   AB..         MOV     R3,?V0 + 3
   \   00018F   EF           MOV     A,R7
   \   000190   F9           MOV     R1,A
   \   000191   12....       LCALL   ??HalFlashRead?relay
   \   000194   7402         MOV     A,#0x2
   \   000196   12....       LCALL   ?DEALLOC_XSTACK8
   \   000199   85..82       MOV     DPL,?XSP + 0
   \   00019C   85..83       MOV     DPH,?XSP + 1
   \   00019F   A882         MOV     R0,DPL
   \   0001A1   A983         MOV     R1,DPH
    890              while ( rem-- )
    891              {
    892                tmp[idx++] = *buf++;
   \                     ??writeBuf_9:
   \   0001A3   85..82       MOV     DPL,?V0 + 0
   \   0001A6   85..83       MOV     DPH,?V0 + 1
   \   0001A9   E0           MOVX    A,@DPTR
   \   0001AA   8882         MOV     DPL,R0
   \   0001AC   8983         MOV     DPH,R1
   \   0001AE   F0           MOVX    @DPTR,A
   \   0001AF   85..82       MOV     DPL,?V0 + 0
   \   0001B2   85..83       MOV     DPH,?V0 + 1
   \   0001B5   A3           INC     DPTR
   \   0001B6   8582..       MOV     ?V0 + 0,DPL
   \   0001B9   8583..       MOV     ?V0 + 1,DPH
   \   0001BC   8882         MOV     DPL,R0
   \   0001BE   8983         MOV     DPH,R1
   \   0001C0   A3           INC     DPTR
   \   0001C1   A882         MOV     R0,DPL
   \   0001C3   A983         MOV     R1,DPH
    893              }
   \   0001C5   1E           DEC     R6
   \   0001C6   EE           MOV     A,R6
   \   0001C7   70DA         JNZ     ??writeBuf_9
    894              writeWord( dstPg, dstOff, tmp );
   \   0001C9                ; Setup parameters for call to function HalAdcCheckVdd
   \   0001C9   7904         MOV     R1,#0x4
   \   0001CB   12....       LCALL   ??HalAdcCheckVdd?relay
   \   0001CE   E9           MOV     A,R1
   \   0001CF   6038         JZ      ??writeBuf_10
   \   0001D1                ; Setup parameters for call to function HalFlashWrite
   \   0001D1   75..01       MOV     ?V0 + 0,#0x1
   \   0001D4   75..00       MOV     ?V0 + 1,#0x0
   \   0001D7   78..         MOV     R0,#?V0 + 0
   \   0001D9   12....       LCALL   ?PUSH_XSTACK_I_TWO
   \   0001DC   7402         MOV     A,#0x2
   \   0001DE   12....       LCALL   ?XSTACK_DISP0_8
   \   0001E1   AC82         MOV     R4,DPL
   \   0001E3   AD83         MOV     R5,DPH
   \   0001E5   7402         MOV     A,#0x2
   \   0001E7   78..         MOV     R0,#?V0 + 2
   \   0001E9   12....       LCALL   ?US_SHR
   \   0001EC   8F..         MOV     ?V0 + 0,R7
   \   0001EE   7409         MOV     A,#0x9
   \   0001F0   78..         MOV     R0,#?V0 + 0
   \   0001F2   12....       LCALL   ?S_SHL
   \   0001F5   E5..         MOV     A,?V0 + 2
   \   0001F7   2400         ADD     A,#0x0
   \   0001F9   FA           MOV     R2,A
   \   0001FA   E5..         MOV     A,?V0 + 3
   \   0001FC   35..         ADDC    A,?V0 + 1
   \   0001FE   FB           MOV     R3,A
   \   0001FF   12....       LCALL   ??HalFlashWrite?relay
   \   000202   7402         MOV     A,#0x2
   \   000204   12....       LCALL   ?DEALLOC_XSTACK8
   \   000207   8006         SJMP    ??writeBuf_8
   \                     ??writeBuf_10:
   \   000209   90....       MOV     DPTR,#failF
   \   00020C   7401         MOV     A,#0x1
   \   00020E   F0           MOVX    @DPTR,A
    895            }
    896          }
   \                     ??writeBuf_8:
   \   00020F   7404         MOV     A,#0x4
   \   000211   12....       LCALL   ?DEALLOC_XSTACK8
   \   000214                REQUIRE ?Subroutine3
   \   000214                ; // Fall through to label ?Subroutine3

   \                                 In  segment BANKED_CODE, align 1, keep-with-next
   \                     ?Subroutine3:
   \   000000   7F0A         MOV     R7,#0xa
   \   000002   02....       LJMP    ?BANKED_LEAVE_XDATA
    897          
    898          /*********************************************************************
    899           * @fn      xferBuf
    900           *
    901           * @brief   Xfers an NV buffer from one location to another, enforcing OSAL_NV_WORD_SIZE writes.
    902           *
    903           * @return  none
    904           */

   \                                 In  segment BANKED_CODE, align 1, keep-with-next
    905          static void xferBuf( uint8 srcPg, uint16 srcOff, uint8 dstPg, uint16 dstOff, uint16 len )
   \                     xferBuf:
    906          {
   \   000000   74EC         MOV     A,#-0x14
   \   000002   12....       LCALL   ?BANKED_ENTER_XDATA
   \   000005                ; Saved register size: 20
   \   000005                ; Auto size: 4
   \   000005   74FC         MOV     A,#-0x4
   \   000007   12....       LCALL   ?ALLOC_XSTACK8
   \   00000A   89..         MOV     ?V0 + 8,R1
   \   00000C   8A..         MOV     ?V0 + 4,R2
   \   00000E   8B..         MOV     ?V0 + 5,R3
   \   000010   8C..         MOV     ?V0 + 3,R4
   \   000012   7418         MOV     A,#0x18
   \   000014   12....       LCALL   ?XSTACK_DISP0_8
   \   000017   E0           MOVX    A,@DPTR
   \   000018   FE           MOV     R6,A
   \   000019   A3           INC     DPTR
   \   00001A   E0           MOVX    A,@DPTR
   \   00001B   FF           MOV     R7,A
   \   00001C   741A         MOV     A,#0x1a
   \   00001E   12....       LCALL   ?XSTACK_DISP0_8
   \   000021   E0           MOVX    A,@DPTR
   \   000022   F5..         MOV     ?V0 + 0,A
   \   000024   A3           INC     DPTR
   \   000025   E0           MOVX    A,@DPTR
   \   000026   F5..         MOV     ?V0 + 1,A
    907            uint8 rem = dstOff % OSAL_NV_WORD_SIZE;
   \   000028   EE           MOV     A,R6
   \   000029   5403         ANL     A,#0x3
   \   00002B   F5..         MOV     ?V0 + 2,A
    908            uint8 tmp[OSAL_NV_WORD_SIZE];
    909          
    910            if ( rem )
   \   00002D   7003         JNZ     $+5
   \   00002F   02....       LJMP    ??xferBuf_0 & 0xFFFF
    911            {
    912              dstOff -= rem;
   \   000032   F5..         MOV     ?V0 + 6,A
   \   000034   C3           CLR     C
   \   000035   EE           MOV     A,R6
   \   000036   95..         SUBB    A,?V0 + 6
   \   000038   FE           MOV     R6,A
   \   000039   EF           MOV     A,R7
   \   00003A   9400         SUBB    A,#0x0
   \   00003C   FF           MOV     R7,A
    913              HalFlashRead(dstPg, dstOff, tmp, OSAL_NV_WORD_SIZE);
   \   00003D                ; Setup parameters for call to function HalFlashRead
   \   00003D   75..04       MOV     ?V0 + 6,#0x4
   \   000040   75..00       MOV     ?V0 + 7,#0x0
   \   000043   78..         MOV     R0,#?V0 + 6
   \   000045   12....       LCALL   ?PUSH_XSTACK_I_TWO
   \   000048   7402         MOV     A,#0x2
   \   00004A   12....       LCALL   ?XSTACK_DISP0_8
   \   00004D   AC82         MOV     R4,DPL
   \   00004F   AD83         MOV     R5,DPH
   \   000051   EE           MOV     A,R6
   \   000052   FA           MOV     R2,A
   \   000053   EF           MOV     A,R7
   \   000054   FB           MOV     R3,A
   \   000055   A9..         MOV     R1,?V0 + 3
   \   000057   12....       LCALL   ??HalFlashRead?relay
   \   00005A   7402         MOV     A,#0x2
   \   00005C   12....       LCALL   ?DEALLOC_XSTACK8
   \   00005F   85....       MOV     ?V0 + 6,?V0 + 2
   \   000062   85..82       MOV     DPL,?XSP + 0
   \   000065   85..83       MOV     DPH,?XSP + 1
   \   000068   E582         MOV     A,DPL
   \   00006A   25..         ADD     A,?V0 + 6
   \   00006C   F5..         MOV     ?V0 + 6,A
   \   00006E   E583         MOV     A,DPH
   \   000070   3400         ADDC    A,#0x0
   \   000072   F5..         MOV     ?V0 + 7,A
   \                     ??xferBuf_1:
   \   000074   E5..         MOV     A,?V0 + 0
   \   000076   45..         ORL     A,?V0 + 1
   \   000078   604B         JZ      ??xferBuf_2
    914          
    915              while ( (rem < OSAL_NV_WORD_SIZE) && len )
    916              {
    917                HalFlashRead(srcPg, srcOff, tmp+rem, 1);
   \   00007A                ; Setup parameters for call to function HalFlashRead
   \   00007A   75..01       MOV     ?V0 + 10,#0x1
   \   00007D   75..00       MOV     ?V0 + 11,#0x0
   \   000080   78..         MOV     R0,#?V0 + 10
   \   000082   12....       LCALL   ?PUSH_XSTACK_I_TWO
   \   000085   AC..         MOV     R4,?V0 + 6
   \   000087   AD..         MOV     R5,?V0 + 7
   \   000089   AA..         MOV     R2,?V0 + 4
   \   00008B   AB..         MOV     R3,?V0 + 5
   \   00008D   A9..         MOV     R1,?V0 + 8
   \   00008F   12....       LCALL   ??HalFlashRead?relay
   \   000092   7402         MOV     A,#0x2
   \   000094   12....       LCALL   ?DEALLOC_XSTACK8
    918                srcOff++;
   \   000097   E5..         MOV     A,?V0 + 4
   \   000099   2401         ADD     A,#0x1
   \   00009B   F5..         MOV     ?V0 + 4,A
   \   00009D   E5..         MOV     A,?V0 + 5
   \   00009F   3400         ADDC    A,#0x0
   \   0000A1   F5..         MOV     ?V0 + 5,A
    919                rem++;
   \   0000A3   05..         INC     ?V0 + 2
    920                len--;
   \   0000A5   E5..         MOV     A,?V0 + 0
   \   0000A7   24FF         ADD     A,#-0x1
   \   0000A9   F5..         MOV     ?V0 + 0,A
   \   0000AB   E5..         MOV     A,?V0 + 1
   \   0000AD   34FF         ADDC    A,#-0x1
   \   0000AF   F5..         MOV     ?V0 + 1,A
   \   0000B1   85..82       MOV     DPL,?V0 + 6
   \   0000B4   85..83       MOV     DPH,?V0 + 7
   \   0000B7   A3           INC     DPTR
   \   0000B8   8582..       MOV     ?V0 + 6,DPL
   \   0000BB   8583..       MOV     ?V0 + 7,DPH
    921              }
   \   0000BE   E5..         MOV     A,?V0 + 2
   \   0000C0   C3           CLR     C
   \   0000C1   9404         SUBB    A,#0x4
   \   0000C3   40AF         JC      ??xferBuf_1
    922          
    923              writeWord( dstPg, dstOff, tmp );
   \                     ??xferBuf_2:
   \   0000C5                ; Setup parameters for call to function HalAdcCheckVdd
   \   0000C5   7904         MOV     R1,#0x4
   \   0000C7   12....       LCALL   ??HalAdcCheckVdd?relay
   \   0000CA   E9           MOV     A,R1
   \   0000CB   6042         JZ      ??xferBuf_3
   \   0000CD                ; Setup parameters for call to function HalFlashWrite
   \   0000CD   75..01       MOV     ?V0 + 6,#0x1
   \   0000D0   75..00       MOV     ?V0 + 7,#0x0
   \   0000D3   78..         MOV     R0,#?V0 + 6
   \   0000D5   12....       LCALL   ?PUSH_XSTACK_I_TWO
   \   0000D8   7402         MOV     A,#0x2
   \   0000DA   12....       LCALL   ?XSTACK_DISP0_8
   \   0000DD   AC82         MOV     R4,DPL
   \   0000DF   AD83         MOV     R5,DPH
   \   0000E1   8E..         MOV     ?V0 + 6,R6
   \   0000E3   8F..         MOV     ?V0 + 7,R7
   \   0000E5   7402         MOV     A,#0x2
   \   0000E7   78..         MOV     R0,#?V0 + 6
   \   0000E9   12....       LCALL   ?US_SHR
   \   0000EC   85....       MOV     ?V0 + 2,?V0 + 3
   \   0000EF   85....       MOV     ?V0 + 10,?V0 + 2
   \   0000F2   F5..         MOV     ?V0 + 11,A
   \   0000F4   7409         MOV     A,#0x9
   \   0000F6   78..         MOV     R0,#?V0 + 10
   \   0000F8   12....       LCALL   ?S_SHL
   \   0000FB   E5..         MOV     A,?V0 + 6
   \   0000FD   2400         ADD     A,#0x0
   \   0000FF   FA           MOV     R2,A
   \   000100   E5..         MOV     A,?V0 + 7
   \   000102   35..         ADDC    A,?V0 + 11
   \   000104   FB           MOV     R3,A
   \   000105   12....       LCALL   ??HalFlashWrite?relay
   \   000108   7402         MOV     A,#0x2
   \   00010A   12....       LCALL   ?DEALLOC_XSTACK8
   \   00010D   8006         SJMP    ??xferBuf_4
   \                     ??xferBuf_3:
   \   00010F   90....       MOV     DPTR,#failF
   \   000112   7401         MOV     A,#0x1
   \   000114   F0           MOVX    @DPTR,A
    924              dstOff += OSAL_NV_WORD_SIZE;
   \                     ??xferBuf_4:
   \   000115   EE           MOV     A,R6
   \   000116   2404         ADD     A,#0x4
   \   000118   FE           MOV     R6,A
   \   000119   EF           MOV     A,R7
   \   00011A   3400         ADDC    A,#0x0
   \   00011C   FF           MOV     R7,A
    925            }
    926          
    927            rem = len % OSAL_NV_WORD_SIZE;
   \                     ??xferBuf_0:
   \   00011D   E5..         MOV     A,?V0 + 0
   \   00011F   5403         ANL     A,#0x3
   \   000121   F5..         MOV     ?V0 + 2,A
    928            len /= OSAL_NV_WORD_SIZE;
   \   000123   85....       MOV     ?V0 + 6,?V0 + 0
   \   000126   85....       MOV     ?V0 + 7,?V0 + 1
   \   000129   7402         MOV     A,#0x2
   \   00012B   78..         MOV     R0,#?V0 + 6
   \   00012D   12....       LCALL   ?US_SHR
   \   000130   85....       MOV     ?V0 + 0,?V0 + 6
   \   000133   85....       MOV     ?V0 + 1,?V0 + 7
   \   000136   E5..         MOV     A,?V0 + 0
   \   000138   45..         ORL     A,?V0 + 1
   \   00013A   7003         JNZ     $+5
   \   00013C   02....       LJMP    ??xferBuf_5 & 0xFFFF
   \   00013F   85....       MOV     ?V0 + 10,?V0 + 3
   \   000142   75..00       MOV     ?V0 + 11,#0x0
   \   000145   7409         MOV     A,#0x9
   \   000147   78..         MOV     R0,#?V0 + 10
   \   000149   12....       LCALL   ?S_SHL
   \   00014C   85....       MOV     ?V0 + 7,?V0 + 11
   \                     ??xferBuf_6:
   \   00014F   E5..         MOV     A,?V0 + 0
   \   000151   24FF         ADD     A,#-0x1
   \   000153   F5..         MOV     ?V0 + 0,A
   \   000155   E5..         MOV     A,?V0 + 1
   \   000157   34FF         ADDC    A,#-0x1
   \   000159   F5..         MOV     ?V0 + 1,A
    929          
    930            while ( len-- )
    931            {
    932              HalFlashRead(srcPg, srcOff, tmp, OSAL_NV_WORD_SIZE);
   \   00015B                ; Setup parameters for call to function HalFlashRead
   \   00015B   75..04       MOV     ?V0 + 10,#0x4
   \   00015E   75..00       MOV     ?V0 + 11,#0x0
   \   000161   78..         MOV     R0,#?V0 + 10
   \   000163   12....       LCALL   ?PUSH_XSTACK_I_TWO
   \   000166   7402         MOV     A,#0x2
   \   000168   12....       LCALL   ?XSTACK_DISP0_8
   \   00016B   AC82         MOV     R4,DPL
   \   00016D   AD83         MOV     R5,DPH
   \   00016F   AA..         MOV     R2,?V0 + 4
   \   000171   AB..         MOV     R3,?V0 + 5
   \   000173   A9..         MOV     R1,?V0 + 8
   \   000175   12....       LCALL   ??HalFlashRead?relay
   \   000178   7402         MOV     A,#0x2
   \   00017A   12....       LCALL   ?DEALLOC_XSTACK8
    933              srcOff += OSAL_NV_WORD_SIZE;
   \   00017D   E5..         MOV     A,?V0 + 4
   \   00017F   2404         ADD     A,#0x4
   \   000181   F5..         MOV     ?V0 + 4,A
   \   000183   E5..         MOV     A,?V0 + 5
   \   000185   3400         ADDC    A,#0x0
   \   000187   F5..         MOV     ?V0 + 5,A
    934              writeWord( dstPg, dstOff, tmp );
   \   000189                ; Setup parameters for call to function HalAdcCheckVdd
   \   000189   7904         MOV     R1,#0x4
   \   00018B   12....       LCALL   ??HalAdcCheckVdd?relay
   \   00018E   E9           MOV     A,R1
   \   00018F   6030         JZ      ??xferBuf_7
   \   000191                ; Setup parameters for call to function HalFlashWrite
   \   000191   75..01       MOV     ?V0 + 10,#0x1
   \   000194   78..         MOV     R0,#?V0 + 10
   \   000196   12....       LCALL   ?PUSH_XSTACK_I_TWO
   \   000199   7402         MOV     A,#0x2
   \   00019B   12....       LCALL   ?XSTACK_DISP0_8
   \   00019E   AC82         MOV     R4,DPL
   \   0001A0   AD83         MOV     R5,DPH
   \   0001A2   8E..         MOV     ?V0 + 10,R6
   \   0001A4   8F..         MOV     ?V0 + 11,R7
   \   0001A6   7402         MOV     A,#0x2
   \   0001A8   78..         MOV     R0,#?V0 + 10
   \   0001AA   12....       LCALL   ?US_SHR
   \   0001AD   E5..         MOV     A,?V0 + 10
   \   0001AF   2400         ADD     A,#0x0
   \   0001B1   FA           MOV     R2,A
   \   0001B2   E5..         MOV     A,?V0 + 11
   \   0001B4   35..         ADDC    A,?V0 + 7
   \   0001B6   FB           MOV     R3,A
   \   0001B7   12....       LCALL   ??HalFlashWrite?relay
   \   0001BA   7402         MOV     A,#0x2
   \   0001BC   12....       LCALL   ?DEALLOC_XSTACK8
   \   0001BF   8006         SJMP    ??xferBuf_8
   \                     ??xferBuf_7:
   \   0001C1   90....       MOV     DPTR,#failF
   \   0001C4   7401         MOV     A,#0x1
   \   0001C6   F0           MOVX    @DPTR,A
    935              dstOff += OSAL_NV_WORD_SIZE;
   \                     ??xferBuf_8:
   \   0001C7   EE           MOV     A,R6
   \   0001C8   2404         ADD     A,#0x4
   \   0001CA   FE           MOV     R6,A
   \   0001CB   EF           MOV     A,R7
   \   0001CC   3400         ADDC    A,#0x0
   \   0001CE   FF           MOV     R7,A
   \   0001CF   E5..         MOV     A,?V0 + 0
   \   0001D1   45..         ORL     A,?V0 + 1
   \   0001D3   6003         JZ      $+5
   \   0001D5   02....       LJMP    ??xferBuf_6 & 0xFFFF
    936            }
    937          
    938            if ( rem )
   \                     ??xferBuf_5:
   \   0001D8   E5..         MOV     A,?V0 + 2
   \   0001DA   7003         JNZ     $+5
   \   0001DC   02....       LJMP    ??xferBuf_9 & 0xFFFF
    939            {
    940              uint8 idx = 0;
    941              HalFlashRead(dstPg, dstOff, tmp, OSAL_NV_WORD_SIZE);
   \   0001DF                ; Setup parameters for call to function HalFlashRead
   \   0001DF   75..04       MOV     ?V0 + 0,#0x4
   \   0001E2   75..00       MOV     ?V0 + 1,#0x0
   \   0001E5   78..         MOV     R0,#?V0 + 0
   \   0001E7   12....       LCALL   ?PUSH_XSTACK_I_TWO
   \   0001EA   7402         MOV     A,#0x2
   \   0001EC   12....       LCALL   ?XSTACK_DISP0_8
   \   0001EF   AC82         MOV     R4,DPL
   \   0001F1   AD83         MOV     R5,DPH
   \   0001F3   EE           MOV     A,R6
   \   0001F4   FA           MOV     R2,A
   \   0001F5   EF           MOV     A,R7
   \   0001F6   FB           MOV     R3,A
   \   0001F7   A9..         MOV     R1,?V0 + 3
   \   0001F9   12....       LCALL   ??HalFlashRead?relay
   \   0001FC   7402         MOV     A,#0x2
   \   0001FE   12....       LCALL   ?DEALLOC_XSTACK8
   \   000201   85..82       MOV     DPL,?XSP + 0
   \   000204   85..83       MOV     DPH,?XSP + 1
   \   000207   8582..       MOV     ?V0 + 0,DPL
   \   00020A   8583..       MOV     ?V0 + 1,DPH
    942              while ( rem-- )
    943              {
    944                HalFlashRead(srcPg, srcOff, tmp+idx, 1);
   \                     ??xferBuf_10:
   \   00020D                ; Setup parameters for call to function HalFlashRead
   \   00020D   75..01       MOV     ?V0 + 6,#0x1
   \   000210   75..00       MOV     ?V0 + 7,#0x0
   \   000213   78..         MOV     R0,#?V0 + 6
   \   000215   12....       LCALL   ?PUSH_XSTACK_I_TWO
   \   000218   AC..         MOV     R4,?V0 + 0
   \   00021A   AD..         MOV     R5,?V0 + 1
   \   00021C   AA..         MOV     R2,?V0 + 4
   \   00021E   AB..         MOV     R3,?V0 + 5
   \   000220   A9..         MOV     R1,?V0 + 8
   \   000222   12....       LCALL   ??HalFlashRead?relay
   \   000225   7402         MOV     A,#0x2
   \   000227   12....       LCALL   ?DEALLOC_XSTACK8
    945                srcOff++;
   \   00022A   E5..         MOV     A,?V0 + 4
   \   00022C   2401         ADD     A,#0x1
   \   00022E   F5..         MOV     ?V0 + 4,A
   \   000230   E5..         MOV     A,?V0 + 5
   \   000232   3400         ADDC    A,#0x0
   \   000234   F5..         MOV     ?V0 + 5,A
    946                idx++;
   \   000236   85..82       MOV     DPL,?V0 + 0
   \   000239   85..83       MOV     DPH,?V0 + 1
   \   00023C   A3           INC     DPTR
   \   00023D   8582..       MOV     ?V0 + 0,DPL
   \   000240   8583..       MOV     ?V0 + 1,DPH
    947              }
   \   000243   15..         DEC     ?V0 + 2
   \   000245   E5..         MOV     A,?V0 + 2
   \   000247   70C4         JNZ     ??xferBuf_10
    948              writeWord( dstPg, dstOff, tmp );
   \   000249                ; Setup parameters for call to function HalAdcCheckVdd
   \   000249   7904         MOV     R1,#0x4
   \   00024B   12....       LCALL   ??HalAdcCheckVdd?relay
   \   00024E   E9           MOV     A,R1
   \   00024F   6042         JZ      ??xferBuf_11
   \   000251                ; Setup parameters for call to function HalFlashWrite
   \   000251   75..01       MOV     ?V0 + 0,#0x1
   \   000254   75..00       MOV     ?V0 + 1,#0x0
   \   000257   78..         MOV     R0,#?V0 + 0
   \   000259   12....       LCALL   ?PUSH_XSTACK_I_TWO
   \   00025C   7402         MOV     A,#0x2
   \   00025E   12....       LCALL   ?XSTACK_DISP0_8
   \   000261   AC82         MOV     R4,DPL
   \   000263   AD83         MOV     R5,DPH
   \   000265   8E..         MOV     ?V0 + 0,R6
   \   000267   8F..         MOV     ?V0 + 1,R7
   \   000269   7402         MOV     A,#0x2
   \   00026B   78..         MOV     R0,#?V0 + 0
   \   00026D   12....       LCALL   ?US_SHR
   \   000270   85....       MOV     ?V0 + 2,?V0 + 3
   \   000273   85....       MOV     ?V0 + 4,?V0 + 2
   \   000276   F5..         MOV     ?V0 + 5,A
   \   000278   7409         MOV     A,#0x9
   \   00027A   78..         MOV     R0,#?V0 + 4
   \   00027C   12....       LCALL   ?S_SHL
   \   00027F   E5..         MOV     A,?V0 + 0
   \   000281   2400         ADD     A,#0x0
   \   000283   FA           MOV     R2,A
   \   000284   E5..         MOV     A,?V0 + 1
   \   000286   35..         ADDC    A,?V0 + 5
   \   000288   FB           MOV     R3,A
   \   000289   12....       LCALL   ??HalFlashWrite?relay
   \   00028C   7402         MOV     A,#0x2
   \   00028E   12....       LCALL   ?DEALLOC_XSTACK8
   \   000291   8006         SJMP    ??xferBuf_9
   \                     ??xferBuf_11:
   \   000293   90....       MOV     DPTR,#failF
   \   000296   7401         MOV     A,#0x1
   \   000298   F0           MOVX    @DPTR,A
    949            }
    950          }
   \                     ??xferBuf_9:
   \   000299   7404         MOV     A,#0x4
   \   00029B   02....       LJMP    ?Subroutine1 & 0xFFFF
    951          
    952          /*********************************************************************
    953           * @fn      writeItem
    954           *
    955           * @brief   Writes an item header/data combo to the specified NV page.
    956           *
    957           * @param   pg - Valid NV Flash page.
    958           * @param   id - Valid NV item Id.
    959           * @param   len  - Byte count of the data to write.
    960           * @param   buf  - The data to write. If NULL, no data/checksum write.
    961           * @param   flag - TRUE if the checksum should be written, FALSE otherwise.
    962           *
    963           * @return  TRUE if header/data to write matches header/data read back, else FALSE.
    964           */

   \                                 In  segment BANKED_CODE, align 1, keep-with-next
    965          static uint8 writeItem( uint8 pg, uint16 id, uint16 len, void *buf, uint8 flag )
   \                     writeItem:
    966          {
   \   000000   74E8         MOV     A,#-0x18
   \   000002   12....       LCALL   ?BANKED_ENTER_XDATA
   \   000005                ; Saved register size: 24
   \   000005                ; Auto size: 22
   \   000005   74EA         MOV     A,#-0x16
   \   000007   12....       LCALL   ?ALLOC_XSTACK8
   \   00000A   89..         MOV     ?V0 + 2,R1
   \   00000C   8A..         MOV     ?V0 + 12,R2
   \   00000E   8B..         MOV     ?V0 + 13,R3
   \   000010   8C..         MOV     ?V0 + 0,R4
   \   000012   8D..         MOV     ?V0 + 1,R5
   \   000014   742E         MOV     A,#0x2e
   \   000016   12....       LCALL   ?XSTACK_DISP0_8
   \   000019   E0           MOVX    A,@DPTR
   \   00001A   F5..         MOV     ?V0 + 6,A
   \   00001C   A3           INC     DPTR
   \   00001D   E0           MOVX    A,@DPTR
   \   00001E   F5..         MOV     ?V0 + 7,A
   \   000020   7430         MOV     A,#0x30
   \   000022   12....       LCALL   ?XSTACK_DISP0_8
   \   000025   E0           MOVX    A,@DPTR
   \   000026   F5..         MOV     ?V0 + 4,A
    967            uint16 offset = pgOff[pg-OSAL_NV_PAGE_BEG];
   \   000028   E9           MOV     A,R1
   \   000029   C3           CLR     C
   \   00002A   33           RLC     A
   \   00002B   F8           MOV     R0,A
   \   00002C   E4           CLR     A
   \   00002D   33           RLC     A
   \   00002E   F9           MOV     R1,A
   \   00002F   74..         MOV     A,#(pgOff + 14) & 0xff
   \   000031   28           ADD     A,R0
   \   000032   F5..         MOV     ?V0 + 14,A
   \   000034   74..         MOV     A,#((pgOff - 242) >> 8) & 0xff
   \   000036   39           ADDC    A,R1
   \   000037   F5..         MOV     ?V0 + 15,A
   \   000039   85..82       MOV     DPL,?V0 + 14
   \   00003C   F583         MOV     DPH,A
   \   00003E   E0           MOVX    A,@DPTR
   \   00003F   FE           MOV     R6,A
   \   000040   A3           INC     DPTR
   \   000041   E0           MOVX    A,@DPTR
   \   000042   FF           MOV     R7,A
    968            uint8 rtrn = FALSE;
   \   000043   75..00       MOV     ?V0 + 3,#0x0
    969            osalNvHdr_t hdr;
    970          
    971            if ( pg == pgRes )
   \   000046   90....       MOV     DPTR,#pgRes
   \   000049   E0           MOVX    A,@DPTR
   \   00004A   65..         XRL     A,?V0 + 2
   \   00004C   704C         JNZ     ??writeItem_0
    972            {
    973              /* Mark reserve page as being active, in process of receiving items.
    974               * Invoking function must effect a page compaction.
    975               */
    976              setPageUse( pg, FALSE );
   \   00004E   740E         MOV     A,#0xe
   \   000050   12....       LCALL   ?XSTACK_DISP0_8
   \   000053   E4           CLR     A
   \   000054   F0           MOVX    @DPTR,A
   \   000055   A3           INC     DPTR
   \   000056   F0           MOVX    @DPTR,A
   \   000057   7410         MOV     A,#0x10
   \   000059   12....       LCALL   ?XSTACK_DISP0_8
   \   00005C   74FF         MOV     A,#-0x1
   \   00005E   F0           MOVX    @DPTR,A
   \   00005F   A3           INC     DPTR
   \   000060   F0           MOVX    @DPTR,A
   \   000061                ; Setup parameters for call to function HalAdcCheckVdd
   \   000061   7904         MOV     R1,#0x4
   \   000063   12....       LCALL   ??HalAdcCheckVdd?relay
   \   000066   E9           MOV     A,R1
   \   000067   602B         JZ      ??writeItem_1
   \   000069                ; Setup parameters for call to function HalFlashWrite
   \   000069   75..01       MOV     ?V0 + 8,#0x1
   \   00006C   75..00       MOV     ?V0 + 9,#0x0
   \   00006F   78..         MOV     R0,#?V0 + 8
   \   000071   12....       LCALL   ?PUSH_XSTACK_I_TWO
   \   000074   7410         MOV     A,#0x10
   \   000076   12....       LCALL   ?XSTACK_DISP0_8
   \   000079   AC82         MOV     R4,DPL
   \   00007B   AD83         MOV     R5,DPH
   \   00007D   85....       MOV     ?V0 + 8,?V0 + 2
   \   000080   7409         MOV     A,#0x9
   \   000082   78..         MOV     R0,#?V0 + 8
   \   000084   12....       LCALL   ?S_SHL
   \   000087   FA           MOV     R2,A
   \   000088   AB..         MOV     R3,?V0 + 9
   \   00008A   12....       LCALL   ??HalFlashWrite?relay
   \   00008D   7402         MOV     A,#0x2
   \   00008F   12....       LCALL   ?DEALLOC_XSTACK8
   \   000092   8006         SJMP    ??writeItem_0
   \                     ??writeItem_1:
   \   000094   90....       MOV     DPTR,#failF
   \   000097   7401         MOV     A,#0x1
   \   000099   F0           MOVX    @DPTR,A
    977            }
    978          
    979            hdr.id = id;
   \                     ??writeItem_0:
   \   00009A   7406         MOV     A,#0x6
   \   00009C   12....       LCALL   ?XSTACK_DISP0_8
   \   00009F   E5..         MOV     A,?V0 + 12
   \   0000A1   F0           MOVX    @DPTR,A
   \   0000A2   A3           INC     DPTR
   \   0000A3   E5..         MOV     A,?V0 + 13
   \   0000A5   F0           MOVX    @DPTR,A
    980            hdr.len = len;
   \   0000A6   7408         MOV     A,#0x8
   \   0000A8   12....       LCALL   ?XSTACK_DISP0_8
   \   0000AB   E5..         MOV     A,?V0 + 0
   \   0000AD   F0           MOVX    @DPTR,A
   \   0000AE   A3           INC     DPTR
   \   0000AF   E5..         MOV     A,?V0 + 1
   \   0000B1   F0           MOVX    @DPTR,A
    981          
    982            writeWord( pg, offset, (uint8 *)&hdr );
   \   0000B2                ; Setup parameters for call to function HalAdcCheckVdd
   \   0000B2   7904         MOV     R1,#0x4
   \   0000B4   12....       LCALL   ??HalAdcCheckVdd?relay
   \   0000B7   E9           MOV     A,R1
   \   0000B8   603F         JZ      ??writeItem_2
   \   0000BA                ; Setup parameters for call to function HalFlashWrite
   \   0000BA   75..01       MOV     ?V0 + 8,#0x1
   \   0000BD   75..00       MOV     ?V0 + 9,#0x0
   \   0000C0   78..         MOV     R0,#?V0 + 8
   \   0000C2   12....       LCALL   ?PUSH_XSTACK_I_TWO
   \   0000C5   7408         MOV     A,#0x8
   \   0000C7   12....       LCALL   ?XSTACK_DISP0_8
   \   0000CA   AC82         MOV     R4,DPL
   \   0000CC   AD83         MOV     R5,DPH
   \   0000CE   8E..         MOV     ?V0 + 8,R6
   \   0000D0   8F..         MOV     ?V0 + 9,R7
   \   0000D2   7402         MOV     A,#0x2
   \   0000D4   78..         MOV     R0,#?V0 + 8
   \   0000D6   12....       LCALL   ?US_SHR
   \   0000D9   85....       MOV     ?V0 + 10,?V0 + 2
   \   0000DC   F5..         MOV     ?V0 + 11,A
   \   0000DE   7409         MOV     A,#0x9
   \   0000E0   78..         MOV     R0,#?V0 + 10
   \   0000E2   12....       LCALL   ?S_SHL
   \   0000E5   E5..         MOV     A,?V0 + 8
   \   0000E7   2400         ADD     A,#0x0
   \   0000E9   FA           MOV     R2,A
   \   0000EA   E5..         MOV     A,?V0 + 9
   \   0000EC   35..         ADDC    A,?V0 + 11
   \   0000EE   FB           MOV     R3,A
   \   0000EF   12....       LCALL   ??HalFlashWrite?relay
   \   0000F2   7402         MOV     A,#0x2
   \   0000F4   12....       LCALL   ?DEALLOC_XSTACK8
   \   0000F7   8006         SJMP    ??writeItem_3
   \                     ??writeItem_2:
   \   0000F9   90....       MOV     DPTR,#failF
   \   0000FC   7401         MOV     A,#0x1
   \   0000FE   F0           MOVX    @DPTR,A
    983            HalFlashRead(pg, offset, (uint8 *)(&hdr), OSAL_NV_HDR_SIZE);
   \                     ??writeItem_3:
   \   0000FF                ; Setup parameters for call to function HalFlashRead
   \   0000FF   75..08       MOV     ?V0 + 8,#0x8
   \   000102   75..00       MOV     ?V0 + 9,#0x0
   \   000105   78..         MOV     R0,#?V0 + 8
   \   000107   12....       LCALL   ?PUSH_XSTACK_I_TWO
   \   00010A   7408         MOV     A,#0x8
   \   00010C   12....       LCALL   ?XSTACK_DISP0_8
   \   00010F   AC82         MOV     R4,DPL
   \   000111   AD83         MOV     R5,DPH
   \   000113   EE           MOV     A,R6
   \   000114   FA           MOV     R2,A
   \   000115   EF           MOV     A,R7
   \   000116   FB           MOV     R3,A
   \   000117   A9..         MOV     R1,?V0 + 2
   \   000119   12....       LCALL   ??HalFlashRead?relay
   \   00011C   7402         MOV     A,#0x2
   \   00011E   12....       LCALL   ?DEALLOC_XSTACK8
    984          
    985            if ( (hdr.id == id) && (hdr.len == len) )
   \   000121   7406         MOV     A,#0x6
   \   000123   12....       LCALL   ?XSTACK_DISP0_8
   \   000126   E0           MOVX    A,@DPTR
   \   000127   65..         XRL     A,?V0 + 12
   \   000129   7004         JNZ     ??writeItem_4
   \   00012B   A3           INC     DPTR
   \   00012C   E0           MOVX    A,@DPTR
   \   00012D   65..         XRL     A,?V0 + 13
   \                     ??writeItem_4:
   \   00012F   6003         JZ      $+5
   \   000131   02....       LJMP    ??writeItem_5 & 0xFFFF
   \   000134   7408         MOV     A,#0x8
   \   000136   12....       LCALL   ?XSTACK_DISP0_8
   \   000139   E0           MOVX    A,@DPTR
   \   00013A   65..         XRL     A,?V0 + 0
   \   00013C   7004         JNZ     ??writeItem_6
   \   00013E   A3           INC     DPTR
   \   00013F   E0           MOVX    A,@DPTR
   \   000140   65..         XRL     A,?V0 + 1
   \                     ??writeItem_6:
   \   000142   6003         JZ      $+5
   \   000144   02....       LJMP    ??writeItem_5 & 0xFFFF
    986            {
    987              if ( flag )
   \   000147   E5..         MOV     A,?V0 + 4
   \   000149   7003         JNZ     $+5
   \   00014B   02....       LJMP    ??writeItem_7 & 0xFFFF
    988              {
    989                uint16 chk = calcChkB( len, buf );
   \   00014E   85..82       MOV     DPL,?V0 + 6
   \   000151   85..83       MOV     DPH,?V0 + 7
   \   000154   A8..         MOV     R0,?V0 + 0
   \   000156   A9..         MOV     R1,?V0 + 1
   \   000158   E8           MOV     A,R0
   \   000159   5403         ANL     A,#0x3
   \   00015B   F5..         MOV     ?V0 + 4,A
   \   00015D   E582         MOV     A,DPL
   \   00015F   4583         ORL     A,DPH
   \   000161   7015         JNZ     ??writeItem_8
   \   000163   E8           MOV     A,R0
   \   000164   75F0FF       MOV     B,#-0x1
   \   000167   A4           MUL     AB
   \   000168   F8           MOV     R0,A
   \   000169   AAF0         MOV     R2,B
   \   00016B   75F0FF       MOV     B,#-0x1
   \   00016E   E9           MOV     A,R1
   \   00016F   A4           MUL     AB
   \   000170   2A           ADD     A,R2
   \   000171   F9           MOV     R1,A
   \   000172   E8           MOV     A,R0
   \   000173   FA           MOV     R2,A
   \   000174   E9           MOV     A,R1
   \   000175   FB           MOV     R3,A
   \   000176   801E         SJMP    ??writeItem_9
   \                     ??writeItem_8:
   \   000178   7A00         MOV     R2,#0x0
   \   00017A   7B00         MOV     R3,#0x0
   \   00017C   E8           MOV     A,R0
   \   00017D   49           ORL     A,R1
   \   00017E   6016         JZ      ??writeItem_9
   \                     ??writeItem_10:
   \   000180   E0           MOVX    A,@DPTR
   \   000181   FC           MOV     R4,A
   \   000182   EA           MOV     A,R2
   \   000183   2C           ADD     A,R4
   \   000184   FA           MOV     R2,A
   \   000185   EB           MOV     A,R3
   \   000186   3400         ADDC    A,#0x0
   \   000188   FB           MOV     R3,A
   \   000189   A3           INC     DPTR
   \   00018A   E8           MOV     A,R0
   \   00018B   24FF         ADD     A,#-0x1
   \   00018D   18           DEC     R0
   \   00018E   E9           MOV     A,R1
   \   00018F   34FF         ADDC    A,#-0x1
   \   000191   F9           MOV     R1,A
   \   000192   E8           MOV     A,R0
   \   000193   49           ORL     A,R1
   \   000194   70EA         JNZ     ??writeItem_10
   \                     ??writeItem_9:
   \   000196   E5..         MOV     A,?V0 + 4
   \   000198   601E         JZ      ??writeItem_11
   \   00019A   7404         MOV     A,#0x4
   \   00019C   C3           CLR     C
   \   00019D   95..         SUBB    A,?V0 + 4
   \   00019F   F8           MOV     R0,A
   \   0001A0   95E0         SUBB    A,0xE0 /* A   */
   \   0001A2   F9           MOV     R1,A
   \   0001A3   E8           MOV     A,R0
   \   0001A4   75F0FF       MOV     B,#-0x1
   \   0001A7   A4           MUL     AB
   \   0001A8   F8           MOV     R0,A
   \   0001A9   ACF0         MOV     R4,B
   \   0001AB   75F0FF       MOV     B,#-0x1
   \   0001AE   E9           MOV     A,R1
   \   0001AF   A4           MUL     AB
   \   0001B0   2C           ADD     A,R4
   \   0001B1   F9           MOV     R1,A
   \   0001B2   EA           MOV     A,R2
   \   0001B3   28           ADD     A,R0
   \   0001B4   FA           MOV     R2,A
   \   0001B5   EB           MOV     A,R3
   \   0001B6   39           ADDC    A,R1
   \   0001B7   FB           MOV     R3,A
   \                     ??writeItem_11:
   \   0001B8   7404         MOV     A,#0x4
   \   0001BA   12....       LCALL   ?XSTACK_DISP0_8
   \   0001BD   EA           MOV     A,R2
   \   0001BE   F0           MOVX    @DPTR,A
   \   0001BF   A3           INC     DPTR
   \   0001C0   EB           MOV     A,R3
   \   0001C1   F0           MOVX    @DPTR,A
    990          
    991                offset += OSAL_NV_HDR_SIZE;
   \   0001C2   EE           MOV     A,R6
   \   0001C3   2408         ADD     A,#0x8
   \   0001C5   FE           MOV     R6,A
   \   0001C6   EF           MOV     A,R7
   \   0001C7   3400         ADDC    A,#0x0
   \   0001C9   FF           MOV     R7,A
    992                if ( buf != NULL )
   \   0001CA   E5..         MOV     A,?V0 + 6
   \   0001CC   45..         ORL     A,?V0 + 7
   \   0001CE   6017         JZ      ??writeItem_12
    993                {
    994                  writeBuf( pg, offset, len, buf );
   \   0001D0                ; Setup parameters for call to function writeBuf
   \   0001D0   78..         MOV     R0,#?V0 + 6
   \   0001D2   12....       LCALL   ?PUSH_XSTACK_I_TWO
   \   0001D5   AC..         MOV     R4,?V0 + 0
   \   0001D7   AD..         MOV     R5,?V0 + 1
   \   0001D9   EE           MOV     A,R6
   \   0001DA   FA           MOV     R2,A
   \   0001DB   EF           MOV     A,R7
   \   0001DC   FB           MOV     R3,A
   \   0001DD   A9..         MOV     R1,?V0 + 2
   \   0001DF   12....       LCALL   ??writeBuf?relay
   \   0001E2   7402         MOV     A,#0x2
   \   0001E4   12....       LCALL   ?DEALLOC_XSTACK8
    995                }
    996          
    997                if ( chk == calcChkF( pg, offset, len ) )
   \                     ??writeItem_12:
   \   0001E7   8E..         MOV     ?V0 + 4,R6
   \   0001E9   8F..         MOV     ?V0 + 5,R7
   \   0001EB   75..00       MOV     ?V0 + 6,#0x0
   \   0001EE   75..00       MOV     ?V0 + 7,#0x0
   \   0001F1   E5..         MOV     A,?V0 + 0
   \   0001F3   2403         ADD     A,#0x3
   \   0001F5   F5..         MOV     ?V0 + 8,A
   \   0001F7   E5..         MOV     A,?V0 + 1
   \   0001F9   3400         ADDC    A,#0x0
   \   0001FB   F5..         MOV     ?V0 + 9,A
   \   0001FD   7402         MOV     A,#0x2
   \   0001FF   78..         MOV     R0,#?V0 + 8
   \   000201   12....       LCALL   ?US_SHR
   \   000204   85....       MOV     ?V0 + 0,?V0 + 8
   \   000207   85....       MOV     ?V0 + 1,?V0 + 9
   \   00020A   E5..         MOV     A,?V0 + 0
   \   00020C   45..         ORL     A,?V0 + 1
   \   00020E   606F         JZ      ??writeItem_13
   \                     ??writeItem_14:
   \   000210   E5..         MOV     A,?V0 + 0
   \   000212   24FF         ADD     A,#-0x1
   \   000214   F5..         MOV     ?V0 + 0,A
   \   000216   E5..         MOV     A,?V0 + 1
   \   000218   34FF         ADDC    A,#-0x1
   \   00021A   F5..         MOV     ?V0 + 1,A
   \   00021C                ; Setup parameters for call to function HalFlashRead
   \   00021C   75..04       MOV     ?V0 + 8,#0x4
   \   00021F   75..00       MOV     ?V0 + 9,#0x0
   \   000222   78..         MOV     R0,#?V0 + 8
   \   000224   12....       LCALL   ?PUSH_XSTACK_I_TWO
   \   000227   7402         MOV     A,#0x2
   \   000229   12....       LCALL   ?XSTACK_DISP0_8
   \   00022C   AC82         MOV     R4,DPL
   \   00022E   AD83         MOV     R5,DPH
   \   000230   AA..         MOV     R2,?V0 + 4
   \   000232   AB..         MOV     R3,?V0 + 5
   \   000234   A9..         MOV     R1,?V0 + 2
   \   000236   12....       LCALL   ??HalFlashRead?relay
   \   000239   7402         MOV     A,#0x2
   \   00023B   12....       LCALL   ?DEALLOC_XSTACK8
   \   00023E   E5..         MOV     A,?V0 + 4
   \   000240   2404         ADD     A,#0x4
   \   000242   F5..         MOV     ?V0 + 4,A
   \   000244   E5..         MOV     A,?V0 + 5
   \   000246   3400         ADDC    A,#0x0
   \   000248   F5..         MOV     ?V0 + 5,A
   \   00024A   85..82       MOV     DPL,?XSP + 0
   \   00024D   85..83       MOV     DPH,?XSP + 1
   \   000250   A882         MOV     R0,DPL
   \   000252   A983         MOV     R1,DPH
   \                     ??writeItem_15:
   \   000254   8882         MOV     DPL,R0
   \   000256   8983         MOV     DPH,R1
   \   000258   E0           MOVX    A,@DPTR
   \   000259   FA           MOV     R2,A
   \   00025A   E5..         MOV     A,?V0 + 6
   \   00025C   2A           ADD     A,R2
   \   00025D   F5..         MOV     ?V0 + 6,A
   \   00025F   E5..         MOV     A,?V0 + 7
   \   000261   3400         ADDC    A,#0x0
   \   000263   F5..         MOV     ?V0 + 7,A
   \   000265   A3           INC     DPTR
   \   000266   A882         MOV     R0,DPL
   \   000268   A983         MOV     R1,DPH
   \   00026A   7404         MOV     A,#0x4
   \   00026C   12....       LCALL   ?XSTACK_DISP0_8
   \   00026F   E582         MOV     A,DPL
   \   000271   68           XRL     A,R0
   \   000272   7003         JNZ     ??writeItem_16
   \   000274   E583         MOV     A,DPH
   \   000276   69           XRL     A,R1
   \                     ??writeItem_16:
   \   000277   70DB         JNZ     ??writeItem_15
   \   000279   E5..         MOV     A,?V0 + 0
   \   00027B   45..         ORL     A,?V0 + 1
   \   00027D   7091         JNZ     ??writeItem_14
   \                     ??writeItem_13:
   \   00027F   7404         MOV     A,#0x4
   \   000281   12....       LCALL   ?XSTACK_DISP0_8
   \   000284   E0           MOVX    A,@DPTR
   \   000285   65..         XRL     A,?V0 + 6
   \   000287   7004         JNZ     ??writeItem_17
   \   000289   A3           INC     DPTR
   \   00028A   E0           MOVX    A,@DPTR
   \   00028B   65..         XRL     A,?V0 + 7
   \                     ??writeItem_17:
   \   00028D   6003         JZ      $+5
   \   00028F   02....       LJMP    ??writeItem_5 & 0xFFFF
    998                {
    999                  writeWordH(pg, (offset-OSAL_NV_WORD_SIZE), (uint8 *)&chk);
   \   000292   7404         MOV     A,#0x4
   \   000294   12....       LCALL   ?XSTACK_DISP0_8
   \   000297   E0           MOVX    A,@DPTR
   \   000298   85..82       MOV     DPL,?XSP + 0
   \   00029B   85..83       MOV     DPH,?XSP + 1
   \   00029E   F0           MOVX    @DPTR,A
   \   00029F   7405         MOV     A,#0x5
   \   0002A1   12....       LCALL   ?XSTACK_DISP0_8
   \   0002A4   E0           MOVX    A,@DPTR
   \   0002A5   C0E0         PUSH    A
   \   0002A7   7401         MOV     A,#0x1
   \   0002A9   12....       LCALL   ?XSTACK_DISP0_8
   \   0002AC   D0E0         POP     A
   \   0002AE   F0           MOVX    @DPTR,A
   \   0002AF   7402         MOV     A,#0x2
   \   0002B1   12....       LCALL   ?XSTACK_DISP0_8
   \   0002B4   74FF         MOV     A,#-0x1
   \   0002B6   F0           MOVX    @DPTR,A
   \   0002B7   7403         MOV     A,#0x3
   \   0002B9   12....       LCALL   ?XSTACK_DISP0_8
   \   0002BC   74FF         MOV     A,#-0x1
   \   0002BE   F0           MOVX    @DPTR,A
   \   0002BF                ; Setup parameters for call to function HalAdcCheckVdd
   \   0002BF   7904         MOV     R1,#0x4
   \   0002C1   12....       LCALL   ??HalAdcCheckVdd?relay
   \   0002C4   E9           MOV     A,R1
   \   0002C5   6043         JZ      ??writeItem_18
   \   0002C7                ; Setup parameters for call to function HalFlashWrite
   \   0002C7   75..01       MOV     ?V0 + 0,#0x1
   \   0002CA   75..00       MOV     ?V0 + 1,#0x0
   \   0002CD   78..         MOV     R0,#?V0 + 0
   \   0002CF   12....       LCALL   ?PUSH_XSTACK_I_TWO
   \   0002D2   7402         MOV     A,#0x2
   \   0002D4   12....       LCALL   ?XSTACK_DISP0_8
   \   0002D7   AC82         MOV     R4,DPL
   \   0002D9   AD83         MOV     R5,DPH
   \   0002DB   EE           MOV     A,R6
   \   0002DC   24FC         ADD     A,#-0x4
   \   0002DE   F5..         MOV     ?V0 + 4,A
   \   0002E0   EF           MOV     A,R7
   \   0002E1   34FF         ADDC    A,#-0x1
   \   0002E3   F5..         MOV     ?V0 + 5,A
   \   0002E5   7402         MOV     A,#0x2
   \   0002E7   78..         MOV     R0,#?V0 + 4
   \   0002E9   12....       LCALL   ?US_SHR
   \   0002EC   85....       MOV     ?V0 + 0,?V0 + 2
   \   0002EF   7409         MOV     A,#0x9
   \   0002F1   78..         MOV     R0,#?V0 + 0
   \   0002F3   12....       LCALL   ?S_SHL
   \   0002F6   E5..         MOV     A,?V0 + 4
   \   0002F8   2400         ADD     A,#0x0
   \   0002FA   FA           MOV     R2,A
   \   0002FB   E5..         MOV     A,?V0 + 5
   \   0002FD   35..         ADDC    A,?V0 + 1
   \   0002FF   FB           MOV     R3,A
   \   000300   12....       LCALL   ??HalFlashWrite?relay
   \   000303   7402         MOV     A,#0x2
   \   000305   12....       LCALL   ?DEALLOC_XSTACK8
   \   000308   8006         SJMP    ??writeItem_19
   \                     ??writeItem_18:
   \   00030A   90....       MOV     DPTR,#failF
   \   00030D   7401         MOV     A,#0x1
   \   00030F   F0           MOVX    @DPTR,A
   1000                  HalFlashRead(pg, (offset-OSAL_NV_HDR_SIZE), (uint8 *)(&hdr), OSAL_NV_HDR_SIZE);
   \                     ??writeItem_19:
   \   000310                ; Setup parameters for call to function HalFlashRead
   \   000310   75..08       MOV     ?V0 + 0,#0x8
   \   000313   75..00       MOV     ?V0 + 1,#0x0
   \   000316   78..         MOV     R0,#?V0 + 0
   \   000318   12....       LCALL   ?PUSH_XSTACK_I_TWO
   \   00031B   7408         MOV     A,#0x8
   \   00031D   12....       LCALL   ?XSTACK_DISP0_8
   \   000320   AC82         MOV     R4,DPL
   \   000322   AD83         MOV     R5,DPH
   \   000324   EE           MOV     A,R6
   \   000325   24F8         ADD     A,#-0x8
   \   000327   FA           MOV     R2,A
   \   000328   EF           MOV     A,R7
   \   000329   34FF         ADDC    A,#-0x1
   \   00032B   FB           MOV     R3,A
   \   00032C   A9..         MOV     R1,?V0 + 2
   \   00032E   12....       LCALL   ??HalFlashRead?relay
   \   000331   7402         MOV     A,#0x2
   \   000333   12....       LCALL   ?DEALLOC_XSTACK8
   1001          
   1002                  if ( chk == hdr.chk )
   \   000336   7404         MOV     A,#0x4
   \   000338   12....       LCALL   ?XSTACK_DISP0_8
   \   00033B   E0           MOVX    A,@DPTR
   \   00033C   F8           MOV     R0,A
   \   00033D   A3           INC     DPTR
   \   00033E   E0           MOVX    A,@DPTR
   \   00033F   F9           MOV     R1,A
   \   000340   740A         MOV     A,#0xa
   \   000342   12....       LCALL   ?XSTACK_DISP0_8
   \   000345   E0           MOVX    A,@DPTR
   \   000346   68           XRL     A,R0
   \   000347   7003         JNZ     ??writeItem_20
   \   000349   A3           INC     DPTR
   \   00034A   E0           MOVX    A,@DPTR
   \   00034B   69           XRL     A,R1
   \                     ??writeItem_20:
   \   00034C   7003         JNZ     ??writeItem_5
   1003                  {
   1004                    rtrn = pg;
   \                     ??writeItem_7:
   \   00034E   85....       MOV     ?V0 + 3,?V0 + 2
   1005                  }
   1006                }
   1007              }
   1008              else
   1009              {
   1010                rtrn = pg;
   1011              }
   1012            }
   1013          
   1014            len = OSAL_NV_ITEM_SIZE( hdr.len );
   1015            pgOff[pg-OSAL_NV_PAGE_BEG] += len;
   \                     ??writeItem_5:
   \   000351   7408         MOV     A,#0x8
   \   000353   12....       LCALL   ?XSTACK_DISP0_8
   \   000356   E0           MOVX    A,@DPTR
   \   000357   2403         ADD     A,#0x3
   \   000359   F8           MOV     R0,A
   \   00035A   A3           INC     DPTR
   \   00035B   E0           MOVX    A,@DPTR
   \   00035C   3400         ADDC    A,#0x0
   \   00035E   F9           MOV     R1,A
   \   00035F   E8           MOV     A,R0
   \   000360   54FC         ANL     A,#0xfc
   \   000362   2408         ADD     A,#0x8
   \   000364   F8           MOV     R0,A
   \   000365   E9           MOV     A,R1
   \   000366   3400         ADDC    A,#0x0
   \   000368   F9           MOV     R1,A
   \   000369   85..82       MOV     DPL,?V0 + 14
   \   00036C   85..83       MOV     DPH,?V0 + 15
   \   00036F   E0           MOVX    A,@DPTR
   \   000370   28           ADD     A,R0
   \   000371   F0           MOVX    @DPTR,A
   \   000372   A3           INC     DPTR
   \   000373   E0           MOVX    A,@DPTR
   \   000374   39           ADDC    A,R1
   \   000375   F0           MOVX    @DPTR,A
   1016          
   1017            return rtrn;
   \   000376   A9..         MOV     R1,?V0 + 3
   \   000378   7416         MOV     A,#0x16
   \   00037A   02....       LJMP    ?Subroutine0 & 0xFFFF
   1018          }
   1019          
   1020          /*********************************************************************
   1021           * @fn      osal_nv_init
   1022           *
   1023           * @brief   Initialize NV service.
   1024           *
   1025           * @param   p - Not used.
   1026           *
   1027           * @return  none
   1028           */

   \                                 In  segment BANKED_CODE, align 1, keep-with-next
   1029          void osal_nv_init( void *p )
   \                     osal_nv_init:
   1030          {
   \   000000   C082         PUSH    DPL
   \   000002   C083         PUSH    DPH
   \   000004                ; Saved register size: 2
   \   000004                ; Auto size: 0
   1031            (void)p;  // Suppress Lint warning.
   1032            (void)initNV();  // Always returns TRUE after pages have been erased.
   \   000004                ; Setup parameters for call to function initNV
   \   000004   12....       LCALL   ??initNV?relay
   1033          }
   \   000007   D083         POP     DPH
   \   000009   D082         POP     DPL
   \   00000B   02....       LJMP    ?BRET
   1034          
   1035          /*********************************************************************
   1036           * @fn      osal_nv_item_init
   1037           *
   1038           * @brief   If the NV item does not already exist, it is created and
   1039           *          initialized with the data passed to the function, if any.
   1040           *          This function must be called before calling osal_nv_read() or
   1041           *          osal_nv_write().
   1042           *
   1043           * @param   id  - Valid NV item Id.
   1044           * @param   len - Item length.
   1045           * @param  *buf - Pointer to item initalization data. Set to NULL if none.
   1046           *
   1047           * @return  NV_ITEM_UNINIT - Id did not exist and was created successfully.
   1048           *          ZSUCCESS       - Id already existed, no action taken.
   1049           *          NV_OPER_FAILED - Failure to find or create Id.
   1050           */

   \                                 In  segment BANKED_CODE, align 1, keep-with-next
   1051          uint8 osal_nv_item_init( uint16 id, uint16 len, void *buf )
   \                     osal_nv_item_init:
   1052          {
   \   000000   74EE         MOV     A,#-0x12
   \   000002   12....       LCALL   ?BANKED_ENTER_XDATA
   \   000005                ; Saved register size: 18
   \   000005                ; Auto size: 0
   \   000005   EA           MOV     A,R2
   \   000006   FE           MOV     R6,A
   \   000007   EB           MOV     A,R3
   \   000008   FF           MOV     R7,A
   \   000009   8C..         MOV     ?V0 + 0,R4
   \   00000B   8D..         MOV     ?V0 + 1,R5
   \   00000D   7412         MOV     A,#0x12
   \   00000F   12....       LCALL   ?XSTACK_DISP0_8
   \   000012   E0           MOVX    A,@DPTR
   \   000013   F5..         MOV     ?V0 + 4,A
   \   000015   A3           INC     DPTR
   \   000016   E0           MOVX    A,@DPTR
   \   000017   F5..         MOV     ?V0 + 5,A
   1053            /* Global fail flag for fail due to low bus voltage has less impact on code
   1054             * size than passing back a return value all the way from the lowest level.
   1055             */
   1056            failF = FALSE;
   \   000019   90....       MOV     DPTR,#failF
   \   00001C   E4           CLR     A
   \   00001D   F0           MOVX    @DPTR,A
   1057          
   1058            if ( (findItem( id ) != OSAL_NV_ITEM_NULL) )
   \   00001E   8E..         MOV     ?V0 + 2,R6
   \   000020   8F..         MOV     ?V0 + 3,R7
   \   000022   8006         SJMP    ??osal_nv_item_init_0
   \                     ??osal_nv_item_init_1:
   \   000024   7480         MOV     A,#-0x80
   \   000026   45..         ORL     A,?V0 + 3
   \   000028   F5..         MOV     ?V0 + 3,A
   \                     ??osal_nv_item_init_0:
   \   00002A   75..79       MOV     ?V0 + 6,#0x79
   \                     ??osal_nv_item_init_2:
   \   00002D                ; Setup parameters for call to function initPage
   \   00002D   7C00         MOV     R4,#0x0
   \   00002F   AA..         MOV     R2,?V0 + 2
   \   000031   AB..         MOV     R3,?V0 + 3
   \   000033   A9..         MOV     R1,?V0 + 6
   \   000035   12....       LCALL   ??initPage?relay
   \   000038   8B..         MOV     ?V0 + 9,R3
   \   00003A   EA           MOV     A,R2
   \   00003B   45..         ORL     A,?V0 + 9
   \   00003D   600A         JZ      ??osal_nv_item_init_3
   \   00003F   E5..         MOV     A,?V0 + 6
   \   000041   90....       MOV     DPTR,#findPg
   \   000044   F0           MOVX    @DPTR,A
   1059            {
   1060              return ZSUCCESS;
   \   000045   7900         MOV     R1,#0x0
   \   000047   803F         SJMP    ??osal_nv_item_init_4
   1061            }
   \                     ??osal_nv_item_init_3:
   \   000049   05..         INC     ?V0 + 6
   \   00004B   E5..         MOV     A,?V0 + 6
   \   00004D   C3           CLR     C
   \   00004E   947F         SUBB    A,#0x7f
   \   000050   40DB         JC      ??osal_nv_item_init_2
   \   000052   E5..         MOV     A,?V0 + 3
   \   000054   5480         ANL     A,#0x80
   \   000056   60CC         JZ      ??osal_nv_item_init_1
   \   000058   90....       MOV     DPTR,#findPg
   \   00005B   E4           CLR     A
   \   00005C   F0           MOVX    @DPTR,A
   1062            else if ( initItem( TRUE, id, len, buf ) )
   \   00005D                ; Setup parameters for call to function initItem
   \   00005D   78..         MOV     R0,#?V0 + 4
   \   00005F   12....       LCALL   ?PUSH_XSTACK_I_TWO
   \   000062   AC..         MOV     R4,?V0 + 0
   \   000064   AD..         MOV     R5,?V0 + 1
   \   000066   EE           MOV     A,R6
   \   000067   FA           MOV     R2,A
   \   000068   EF           MOV     A,R7
   \   000069   FB           MOV     R3,A
   \   00006A   7901         MOV     R1,#0x1
   \   00006C   12....       LCALL   ??initItem?relay
   \   00006F   7402         MOV     A,#0x2
   \   000071   12....       LCALL   ?DEALLOC_XSTACK8
   \   000074   E9           MOV     A,R1
   \   000075   600F         JZ      ??osal_nv_item_init_5
   1063            {
   1064              if ( failF )
   \   000077   90....       MOV     DPTR,#failF
   \   00007A   E0           MOVX    A,@DPTR
   \   00007B   6005         JZ      ??osal_nv_item_init_6
   1065              {
   1066                (void)initNV();  // See comment at the declaration of failF.
   \   00007D                ; Setup parameters for call to function initNV
   \   00007D   12....       LCALL   ??initNV?relay
   1067                return NV_OPER_FAILED;
   \   000080   8004         SJMP    ??osal_nv_item_init_5
   1068              }
   1069              else
   1070              {
   1071                return NV_ITEM_UNINIT;
   \                     ??osal_nv_item_init_6:
   \   000082   7909         MOV     R1,#0x9
   \   000084   8002         SJMP    ??osal_nv_item_init_4
   1072              }
   1073            }
   1074            else
   1075            {
   1076              return NV_OPER_FAILED;
   \                     ??osal_nv_item_init_5:
   \   000086   790A         MOV     R1,#0xa
   1077            }
   \                     ??osal_nv_item_init_4:
   \   000088   02....       LJMP    ?Subroutine3 & 0xFFFF
   1078          }
   1079          
   1080          /*********************************************************************
   1081           * @fn      osal_nv_item_len
   1082           *
   1083           * @brief   Get the data length of the item stored in NV memory.
   1084           *
   1085           * @param   id  - Valid NV item Id.
   1086           *
   1087           * @return  Item length, if found; zero otherwise.
   1088           */

   \                                 In  segment BANKED_CODE, align 1, keep-with-next
   1089          uint16 osal_nv_item_len( uint16 id )
   \                     osal_nv_item_len:
   1090          {
   \   000000   74F4         MOV     A,#-0xc
   \   000002   12....       LCALL   ?BANKED_ENTER_XDATA
   \   000005                ; Saved register size: 12
   \   000005                ; Auto size: 8
   \   000005   74F8         MOV     A,#-0x8
   \   000007   12....       LCALL   ?ALLOC_XSTACK8
   1091            uint16 offset = findItem( id );
   \   00000A   EA           MOV     A,R2
   \   00000B   FE           MOV     R6,A
   \   00000C   EB           MOV     A,R3
   \   00000D   8003         SJMP    ??osal_nv_item_len_0
   \                     ??osal_nv_item_len_1:
   \   00000F   7480         MOV     A,#-0x80
   \   000011   4F           ORL     A,R7
   \                     ??osal_nv_item_len_0:
   \   000012   FF           MOV     R7,A
   \   000013   75..79       MOV     ?V0 + 0,#0x79
   \                     ??osal_nv_item_len_2:
   \   000016                ; Setup parameters for call to function initPage
   \   000016   7C00         MOV     R4,#0x0
   \   000018   EE           MOV     A,R6
   \   000019   FA           MOV     R2,A
   \   00001A   EF           MOV     A,R7
   \   00001B   FB           MOV     R3,A
   \   00001C   A9..         MOV     R1,?V0 + 0
   \   00001E   12....       LCALL   ??initPage?relay
   \   000021   8B..         MOV     ?V0 + 3,R3
   \   000023   A9..         MOV     R1,?V0 + 3
   \   000025   EA           MOV     A,R2
   \   000026   49           ORL     A,R1
   \   000027   603A         JZ      ??osal_nv_item_len_3
   \   000029   E5..         MOV     A,?V0 + 0
   \   00002B   90....       MOV     DPTR,#findPg
   \   00002E   F0           MOVX    @DPTR,A
   1092          
   1093            if ( offset == OSAL_NV_ITEM_NULL )
   1094            {
   1095              return 0;
   1096            }
   1097            else
   1098            {
   1099              osalNvHdr_t hdr;
   1100              HalFlashRead(findPg, (offset - OSAL_NV_HDR_SIZE), (uint8 *)(&hdr), OSAL_NV_HDR_SIZE);
   \   00002F                ; Setup parameters for call to function HalFlashRead
   \   00002F   75..08       MOV     ?V0 + 0,#0x8
   \   000032   75..00       MOV     ?V0 + 1,#0x0
   \   000035   78..         MOV     R0,#?V0 + 0
   \   000037   12....       LCALL   ?PUSH_XSTACK_I_TWO
   \   00003A   7402         MOV     A,#0x2
   \   00003C   12....       LCALL   ?XSTACK_DISP0_8
   \   00003F   AC82         MOV     R4,DPL
   \   000041   AD83         MOV     R5,DPH
   \   000043   EA           MOV     A,R2
   \   000044   24F8         ADD     A,#-0x8
   \   000046   FA           MOV     R2,A
   \   000047   EB           MOV     A,R3
   \   000048   34FF         ADDC    A,#-0x1
   \   00004A   FB           MOV     R3,A
   \   00004B   90....       MOV     DPTR,#findPg
   \   00004E   E0           MOVX    A,@DPTR
   \   00004F   F9           MOV     R1,A
   \   000050   12....       LCALL   ??HalFlashRead?relay
   \   000053   7402         MOV     A,#0x2
   \   000055   12....       LCALL   ?DEALLOC_XSTACK8
   1101              return hdr.len;
   \   000058   7402         MOV     A,#0x2
   \   00005A   12....       LCALL   ?XSTACK_DISP0_8
   \   00005D   E0           MOVX    A,@DPTR
   \   00005E   FA           MOV     R2,A
   \   00005F   A3           INC     DPTR
   \   000060   E0           MOVX    A,@DPTR
   \   000061   8014         SJMP    ??osal_nv_item_len_4
   1102            }
   \                     ??osal_nv_item_len_3:
   \   000063   05..         INC     ?V0 + 0
   \   000065   E5..         MOV     A,?V0 + 0
   \   000067   C3           CLR     C
   \   000068   947F         SUBB    A,#0x7f
   \   00006A   40AA         JC      ??osal_nv_item_len_2
   \   00006C   EF           MOV     A,R7
   \   00006D   5480         ANL     A,#0x80
   \   00006F   609E         JZ      ??osal_nv_item_len_1
   \   000071   90....       MOV     DPTR,#findPg
   \   000074   E4           CLR     A
   \   000075   F0           MOVX    @DPTR,A
   \   000076   FA           MOV     R2,A
   \                     ??osal_nv_item_len_4:
   \   000077   FB           MOV     R3,A
   \   000078   7408         MOV     A,#0x8
   \   00007A   12....       LCALL   ?DEALLOC_XSTACK8
   \   00007D   02....       LJMP    ?Subroutine2 & 0xFFFF
   1103          }
   1104          
   1105          /*********************************************************************
   1106           * @fn      osal_nv_write
   1107           *
   1108           * @brief   Write a data item to NV. Function can write an entire item to NV or
   1109           *          an element of an item by indexing into the item with an offset.
   1110           *
   1111           * @param   id  - Valid NV item Id.
   1112           * @param   ndx - Index offset into item
   1113           * @param   len - Length of data to write.
   1114           * @param  *buf - Data to write.
   1115           *
   1116           * @return  ZSUCCESS if successful, NV_ITEM_UNINIT if item did not
   1117           *          exist in NV and offset is non-zero, NV_OPER_FAILED if failure.
   1118           */

   \                                 In  segment BANKED_CODE, align 1, keep-with-next
   1119          uint8 osal_nv_write( uint16 id, uint16 ndx, uint16 len, void *buf )
   \                     osal_nv_write:
   1120          {
   \   000000   74E8         MOV     A,#-0x18
   \   000002   12....       LCALL   ?BANKED_ENTER_XDATA
   \   000005                ; Saved register size: 24
   \   000005                ; Auto size: 15
   \   000005   74F1         MOV     A,#-0xf
   \   000007   12....       LCALL   ?ALLOC_XSTACK8
   \   00000A   8A..         MOV     ?V0 + 10,R2
   \   00000C   8B..         MOV     ?V0 + 11,R3
   \   00000E   8C..         MOV     ?V0 + 0,R4
   \   000010   8D..         MOV     ?V0 + 1,R5
   \   000012   7427         MOV     A,#0x27
   \   000014   12....       LCALL   ?XSTACK_DISP0_8
   \   000017   E0           MOVX    A,@DPTR
   \   000018   F5..         MOV     ?V0 + 8,A
   \   00001A   A3           INC     DPTR
   \   00001B   E0           MOVX    A,@DPTR
   \   00001C   F5..         MOV     ?V0 + 9,A
   1121            uint8 rtrn = ZSUCCESS;
   \   00001E   75..00       MOV     ?V0 + 6,#0x0
   1122          
   1123            /* Global fail flag for fail due to low bus voltage has less impact on code
   1124             * size than passing back a return value all the way from the lowest level.
   1125             */
   1126            failF = FALSE;
   \   000021   90....       MOV     DPTR,#failF
   \   000024   E4           CLR     A
   \   000025   F0           MOVX    @DPTR,A
   1127          
   1128            if ( len != 0 )
   \   000026   E5..         MOV     A,?V0 + 8
   \   000028   45..         ORL     A,?V0 + 9
   \   00002A   7003         JNZ     $+5
   \   00002C   02....       LJMP    ??osal_nv_write_0 & 0xFFFF
   1129            {
   1130              osalNvHdr_t hdr;
   1131              uint16 origOff, srcOff;
   1132              uint16 cnt;
   1133              uint8 *ptr;
   1134          
   1135              origOff = srcOff = findItem( id );
   \   00002F   AF..         MOV     R7,?V0 + 11
   \   000031   8004         SJMP    ??osal_nv_write_1
   \                     ??osal_nv_write_2:
   \   000033   7480         MOV     A,#-0x80
   \   000035   4F           ORL     A,R7
   \   000036   FF           MOV     R7,A
   \                     ??osal_nv_write_1:
   \   000037   75..79       MOV     ?V0 + 2,#0x79
   \                     ??osal_nv_write_3:
   \   00003A                ; Setup parameters for call to function initPage
   \   00003A   7C00         MOV     R4,#0x0
   \   00003C   AA..         MOV     R2,?V0 + 10
   \   00003E   EF           MOV     A,R7
   \   00003F   FB           MOV     R3,A
   \   000040   A9..         MOV     R1,?V0 + 2
   \   000042   12....       LCALL   ??initPage?relay
   \   000045   8B..         MOV     ?V0 + 5,R3
   \   000047   A9..         MOV     R1,?V0 + 5
   \   000049   EA           MOV     A,R2
   \   00004A   49           ORL     A,R1
   \   00004B   600B         JZ      ??osal_nv_write_4
   \   00004D   E5..         MOV     A,?V0 + 2
   \   00004F   90....       MOV     DPTR,#findPg
   \   000052   F0           MOVX    @DPTR,A
   \   000053   EA           MOV     A,R2
   \   000054   FE           MOV     R6,A
   \   000055   EB           MOV     A,R3
   \   000056   8014         SJMP    ??osal_nv_write_5
   \                     ??osal_nv_write_4:
   \   000058   05..         INC     ?V0 + 2
   \   00005A   E5..         MOV     A,?V0 + 2
   \   00005C   C3           CLR     C
   \   00005D   947F         SUBB    A,#0x7f
   \   00005F   40D9         JC      ??osal_nv_write_3
   \   000061   EF           MOV     A,R7
   \   000062   5480         ANL     A,#0x80
   \   000064   60CD         JZ      ??osal_nv_write_2
   \   000066   90....       MOV     DPTR,#findPg
   \   000069   E4           CLR     A
   \   00006A   F0           MOVX    @DPTR,A
   \   00006B   FE           MOV     R6,A
   \                     ??osal_nv_write_5:
   \   00006C   FF           MOV     R7,A
   \   00006D   8E..         MOV     ?V0 + 14,R6
   \   00006F   8F..         MOV     ?V0 + 15,R7
   1136              if ( srcOff == OSAL_NV_ITEM_NULL )
   \   000071   EE           MOV     A,R6
   \   000072   4F           ORL     A,R7
   \   000073   7005         JNZ     ??osal_nv_write_6
   1137              {
   1138                return NV_ITEM_UNINIT;
   \   000075   7909         MOV     R1,#0x9
   \   000077   02....       LJMP    ??osal_nv_write_7 & 0xFFFF
   1139              }
   1140          
   1141              HalFlashRead(findPg, (srcOff - OSAL_NV_HDR_SIZE), (uint8 *)(&hdr), OSAL_NV_HDR_SIZE);
   \                     ??osal_nv_write_6:
   \   00007A                ; Setup parameters for call to function HalFlashRead
   \   00007A   75..08       MOV     ?V0 + 2,#0x8
   \   00007D   75..00       MOV     ?V0 + 3,#0x0
   \   000080   78..         MOV     R0,#?V0 + 2
   \   000082   12....       LCALL   ?PUSH_XSTACK_I_TWO
   \   000085   7409         MOV     A,#0x9
   \   000087   12....       LCALL   ?XSTACK_DISP0_8
   \   00008A   AC82         MOV     R4,DPL
   \   00008C   AD83         MOV     R5,DPH
   \   00008E   EE           MOV     A,R6
   \   00008F   24F8         ADD     A,#-0x8
   \   000091   FA           MOV     R2,A
   \   000092   EF           MOV     A,R7
   \   000093   34FF         ADDC    A,#-0x1
   \   000095   FB           MOV     R3,A
   \   000096   90....       MOV     DPTR,#findPg
   \   000099   E0           MOVX    A,@DPTR
   \   00009A   F9           MOV     R1,A
   \   00009B   12....       LCALL   ??HalFlashRead?relay
   \   00009E   7402         MOV     A,#0x2
   \   0000A0   12....       LCALL   ?DEALLOC_XSTACK8
   1142              if ( hdr.len < (ndx + len) )
   \   0000A3   7409         MOV     A,#0x9
   \   0000A5   12....       LCALL   ?XSTACK_DISP0_8
   \   0000A8   E5..         MOV     A,?V0 + 0
   \   0000AA   25..         ADD     A,?V0 + 8
   \   0000AC   F8           MOV     R0,A
   \   0000AD   E5..         MOV     A,?V0 + 1
   \   0000AF   35..         ADDC    A,?V0 + 9
   \   0000B1   F9           MOV     R1,A
   \   0000B2   C3           CLR     C
   \   0000B3   E0           MOVX    A,@DPTR
   \   0000B4   98           SUBB    A,R0
   \   0000B5   A3           INC     DPTR
   \   0000B6   E0           MOVX    A,@DPTR
   \   0000B7   99           SUBB    A,R1
   \   0000B8   5005         JNC     ??osal_nv_write_8
   1143              {
   1144                return NV_OPER_FAILED;
   \   0000BA   790A         MOV     R1,#0xa
   \   0000BC   02....       LJMP    ??osal_nv_write_7 & 0xFFFF
   1145              }
   1146          
   1147              srcOff += ndx;
   \                     ??osal_nv_write_8:
   \   0000BF   EE           MOV     A,R6
   \   0000C0   25..         ADD     A,?V0 + 0
   \   0000C2   FE           MOV     R6,A
   \   0000C3   EF           MOV     A,R7
   \   0000C4   35..         ADDC    A,?V0 + 1
   \   0000C6   FF           MOV     R7,A
   1148              ptr = buf;
   \   0000C7   7429         MOV     A,#0x29
   \   0000C9   12....       LCALL   ?XSTACK_DISP0_8
   \   0000CC   E0           MOVX    A,@DPTR
   \   0000CD   F5..         MOV     ?V0 + 2,A
   \   0000CF   A3           INC     DPTR
   \   0000D0   E0           MOVX    A,@DPTR
   \   0000D1   F5..         MOV     ?V0 + 3,A
   1149              cnt = len;
   \   0000D3   85....       MOV     ?V0 + 4,?V0 + 8
   \   0000D6   85....       MOV     ?V0 + 5,?V0 + 9
   1150              while ( cnt )
   1151              {
   1152                uint8 tmp;
   1153                HalFlashRead(findPg, srcOff++, &tmp, 1);
   \                     ??osal_nv_write_9:
   \   0000D9                ; Setup parameters for call to function HalFlashRead
   \   0000D9   75..01       MOV     ?V0 + 12,#0x1
   \   0000DC   75..00       MOV     ?V0 + 13,#0x0
   \   0000DF   78..         MOV     R0,#?V0 + 12
   \   0000E1   12....       LCALL   ?PUSH_XSTACK_I_TWO
   \   0000E4   7402         MOV     A,#0x2
   \   0000E6   12....       LCALL   ?XSTACK_DISP0_8
   \   0000E9   AC82         MOV     R4,DPL
   \   0000EB   AD83         MOV     R5,DPH
   \   0000ED   EE           MOV     A,R6
   \   0000EE   FA           MOV     R2,A
   \   0000EF   EF           MOV     A,R7
   \   0000F0   FB           MOV     R3,A
   \   0000F1   90....       MOV     DPTR,#findPg
   \   0000F4   E0           MOVX    A,@DPTR
   \   0000F5   F9           MOV     R1,A
   \   0000F6   12....       LCALL   ??HalFlashRead?relay
   \   0000F9   7402         MOV     A,#0x2
   \   0000FB   12....       LCALL   ?DEALLOC_XSTACK8
   \   0000FE   EE           MOV     A,R6
   \   0000FF   2401         ADD     A,#0x1
   \   000101   0E           INC     R6
   \   000102   EF           MOV     A,R7
   \   000103   3400         ADDC    A,#0x0
   \   000105   FF           MOV     R7,A
   1154                if ( tmp != *ptr++ )
   \   000106   85..82       MOV     DPL,?XSP + 0
   \   000109   85..83       MOV     DPH,?XSP + 1
   \   00010C   E0           MOVX    A,@DPTR
   \   00010D   F8           MOV     R0,A
   \   00010E   85..82       MOV     DPL,?V0 + 2
   \   000111   85..83       MOV     DPH,?V0 + 3
   \   000114   E0           MOVX    A,@DPTR
   \   000115   68           XRL     A,R0
   \   000116   701C         JNZ     ??osal_nv_write_10
   \   000118   A3           INC     DPTR
   \   000119   8582..       MOV     ?V0 + 2,DPL
   \   00011C   8583..       MOV     ?V0 + 3,DPH
   1155                {
   1156                  break;
   1157                }
   1158                cnt--;
   1159              }
   \   00011F   E5..         MOV     A,?V0 + 4
   \   000121   24FF         ADD     A,#-0x1
   \   000123   F5..         MOV     ?V0 + 4,A
   \   000125   E5..         MOV     A,?V0 + 5
   \   000127   34FF         ADDC    A,#-0x1
   \   000129   F5..         MOV     ?V0 + 5,A
   \   00012B   E5..         MOV     A,?V0 + 4
   \   00012D   45..         ORL     A,?V0 + 5
   \   00012F   70A8         JNZ     ??osal_nv_write_9
   \   000131   02....       LJMP    ??osal_nv_write_11 & 0xFFFF
   1160          
   1161              if ( cnt != 0 )  // If the buffer to write is different in one or more bytes.
   1162              {
   1163                uint8 comPg, dstPg = initItem( FALSE, id, hdr.len, &comPg );
   \                     ??osal_nv_write_10:
   \   000134                ; Setup parameters for call to function initItem
   \   000134   85..82       MOV     DPL,?XSP + 0
   \   000137   85..83       MOV     DPH,?XSP + 1
   \   00013A   8582..       MOV     ?V0 + 2,DPL
   \   00013D   8583..       MOV     ?V0 + 3,DPH
   \   000140   78..         MOV     R0,#?V0 + 2
   \   000142   12....       LCALL   ?PUSH_XSTACK_I_TWO
   \   000145   740B         MOV     A,#0xb
   \   000147   12....       LCALL   ?XSTACK_DISP0_8
   \   00014A   E0           MOVX    A,@DPTR
   \   00014B   FC           MOV     R4,A
   \   00014C   A3           INC     DPTR
   \   00014D   E0           MOVX    A,@DPTR
   \   00014E   FD           MOV     R5,A
   \   00014F   AA..         MOV     R2,?V0 + 10
   \   000151   AB..         MOV     R3,?V0 + 11
   \   000153   7900         MOV     R1,#0x0
   \   000155   12....       LCALL   ??initItem?relay
   \   000158   7402         MOV     A,#0x2
   \   00015A   12....       LCALL   ?DEALLOC_XSTACK8
   \   00015D   E9           MOV     A,R1
   \   00015E   F5..         MOV     ?V0 + 2,A
   1164          
   1165                if ( dstPg != OSAL_NV_PAGE_NULL )
   \   000160   7003         JNZ     $+5
   \   000162   02....       LJMP    ??osal_nv_write_12 & 0xFFFF
   1166                {
   1167                  uint16 tmp = OSAL_NV_DATA_SIZE( hdr.len );
   \   000165   7409         MOV     A,#0x9
   \   000167   12....       LCALL   ?XSTACK_DISP0_8
   \   00016A   E0           MOVX    A,@DPTR
   \   00016B   2403         ADD     A,#0x3
   \   00016D   F8           MOV     R0,A
   \   00016E   A3           INC     DPTR
   \   00016F   E0           MOVX    A,@DPTR
   \   000170   3400         ADDC    A,#0x0
   \   000172   F9           MOV     R1,A
   \   000173   E8           MOV     A,R0
   \   000174   54FC         ANL     A,#0xfc
   \   000176   F8           MOV     R0,A
   \   000177   7401         MOV     A,#0x1
   \   000179   12....       LCALL   ?XSTACK_DISP0_8
   \   00017C   E8           MOV     A,R0
   \   00017D   F0           MOVX    @DPTR,A
   \   00017E   A3           INC     DPTR
   \   00017F   E9           MOV     A,R1
   \   000180   F0           MOVX    @DPTR,A
   1168                  uint16 dstOff = pgOff[dstPg-OSAL_NV_PAGE_BEG] - tmp;
   \   000181   E5..         MOV     A,?V0 + 2
   \   000183   C3           CLR     C
   \   000184   33           RLC     A
   \   000185   F8           MOV     R0,A
   \   000186   E4           CLR     A
   \   000187   33           RLC     A
   \   000188   F9           MOV     R1,A
   \   000189   74..         MOV     A,#(pgOff + 14) & 0xff
   \   00018B   28           ADD     A,R0
   \   00018C   F5..         MOV     ?V0 + 4,A
   \   00018E   74..         MOV     A,#((pgOff - 242) >> 8) & 0xff
   \   000190   39           ADDC    A,R1
   \   000191   F5..         MOV     ?V0 + 5,A
   \   000193   85..82       MOV     DPL,?V0 + 4
   \   000196   F583         MOV     DPH,A
   \   000198   C082         PUSH    DPL
   \   00019A   C083         PUSH    DPH
   \   00019C   7401         MOV     A,#0x1
   \   00019E   12....       LCALL   ?XSTACK_DISP0_8
   \   0001A1   E0           MOVX    A,@DPTR
   \   0001A2   F8           MOV     R0,A
   \   0001A3   A3           INC     DPTR
   \   0001A4   E0           MOVX    A,@DPTR
   \   0001A5   F9           MOV     R1,A
   \   0001A6   D083         POP     DPH
   \   0001A8   D082         POP     DPL
   \   0001AA   E0           MOVX    A,@DPTR
   \   0001AB   C3           CLR     C
   \   0001AC   98           SUBB    A,R0
   \   0001AD   FE           MOV     R6,A
   \   0001AE   A3           INC     DPTR
   \   0001AF   E0           MOVX    A,@DPTR
   \   0001B0   99           SUBB    A,R1
   \   0001B1   FF           MOV     R7,A
   1169                  uint8 srcPg = findPg;
   \   0001B2   90....       MOV     DPTR,#findPg
   \   0001B5   E0           MOVX    A,@DPTR
   \   0001B6   F5..         MOV     ?V0 + 3,A
   1170                  srcOff = origOff;
   1171          
   1172                  setItem( srcPg, srcOff, eNvXfer );
   \   0001B8                ; Setup parameters for call to function setItem
   \   0001B8   7C00         MOV     R4,#0x0
   \   0001BA   AA..         MOV     R2,?V0 + 14
   \   0001BC   AB..         MOV     R3,?V0 + 15
   \   0001BE   F9           MOV     R1,A
   \   0001BF   12....       LCALL   ??setItem?relay
   1173          
   1174                  xferBuf( srcPg, srcOff, dstPg, dstOff, ndx );
   \   0001C2                ; Setup parameters for call to function xferBuf
   \   0001C2   78..         MOV     R0,#?V0 + 0
   \   0001C4   12....       LCALL   ?PUSH_XSTACK_I_TWO
   \   0001C7   8E..         MOV     ?V0 + 10,R6
   \   0001C9   8F..         MOV     ?V0 + 11,R7
   \   0001CB   78..         MOV     R0,#?V0 + 10
   \   0001CD   12....       LCALL   ?PUSH_XSTACK_I_TWO
   \   0001D0   AC..         MOV     R4,?V0 + 2
   \   0001D2   AA..         MOV     R2,?V0 + 14
   \   0001D4   AB..         MOV     R3,?V0 + 15
   \   0001D6   A9..         MOV     R1,?V0 + 3
   \   0001D8   12....       LCALL   ??xferBuf?relay
   \   0001DB   7404         MOV     A,#0x4
   \   0001DD   12....       LCALL   ?DEALLOC_XSTACK8
   1175                  srcOff += ndx;
   1176                  dstOff += ndx;
   \   0001E0   EE           MOV     A,R6
   \   0001E1   25..         ADD     A,?V0 + 0
   \   0001E3   FE           MOV     R6,A
   \   0001E4   EF           MOV     A,R7
   \   0001E5   35..         ADDC    A,?V0 + 1
   \   0001E7   FF           MOV     R7,A
   1177          
   1178                  writeBuf( dstPg, dstOff, len, buf );
   \   0001E8                ; Setup parameters for call to function writeBuf
   \   0001E8   7429         MOV     A,#0x29
   \   0001EA   12....       LCALL   ?XSTACK_DISP0_8
   \   0001ED   12....       LCALL   ?PUSH_XSTACK8_X_TWO
   \   0001F0   AC..         MOV     R4,?V0 + 8
   \   0001F2   AD..         MOV     R5,?V0 + 9
   \   0001F4   EE           MOV     A,R6
   \   0001F5   FA           MOV     R2,A
   \   0001F6   EF           MOV     A,R7
   \   0001F7   FB           MOV     R3,A
   \   0001F8   A9..         MOV     R1,?V0 + 2
   \   0001FA   12....       LCALL   ??writeBuf?relay
   \   0001FD   7402         MOV     A,#0x2
   \   0001FF   12....       LCALL   ?DEALLOC_XSTACK8
   1179                  srcOff += len;
   1180                  dstOff += len;
   1181          
   1182                  xferBuf( srcPg, srcOff, dstPg, dstOff, (hdr.len-ndx-len) );
   \   000202                ; Setup parameters for call to function xferBuf
   \   000202   7409         MOV     A,#0x9
   \   000204   12....       LCALL   ?XSTACK_DISP0_8
   \   000207   E0           MOVX    A,@DPTR
   \   000208   C3           CLR     C
   \   000209   95..         SUBB    A,?V0 + 0
   \   00020B   F8           MOV     R0,A
   \   00020C   A3           INC     DPTR
   \   00020D   E0           MOVX    A,@DPTR
   \   00020E   95..         SUBB    A,?V0 + 1
   \   000210   F9           MOV     R1,A
   \   000211   E8           MOV     A,R0
   \   000212   C3           CLR     C
   \   000213   95..         SUBB    A,?V0 + 8
   \   000215   F5..         MOV     ?V0 + 10,A
   \   000217   E9           MOV     A,R1
   \   000218   95..         SUBB    A,?V0 + 9
   \   00021A   F5..         MOV     ?V0 + 11,A
   \   00021C   78..         MOV     R0,#?V0 + 10
   \   00021E   12....       LCALL   ?PUSH_XSTACK_I_TWO
   \   000221   EE           MOV     A,R6
   \   000222   25..         ADD     A,?V0 + 8
   \   000224   F5..         MOV     ?V0 + 10,A
   \   000226   EF           MOV     A,R7
   \   000227   35..         ADDC    A,?V0 + 9
   \   000229   F5..         MOV     ?V0 + 11,A
   \   00022B   78..         MOV     R0,#?V0 + 10
   \   00022D   12....       LCALL   ?PUSH_XSTACK_I_TWO
   \   000230   AC..         MOV     R4,?V0 + 2
   \   000232   E5..         MOV     A,?V0 + 14
   \   000234   25..         ADD     A,?V0 + 0
   \   000236   F8           MOV     R0,A
   \   000237   E5..         MOV     A,?V0 + 15
   \   000239   35..         ADDC    A,?V0 + 1
   \   00023B   F9           MOV     R1,A
   \   00023C   E8           MOV     A,R0
   \   00023D   25..         ADD     A,?V0 + 8
   \   00023F   FA           MOV     R2,A
   \   000240   E9           MOV     A,R1
   \   000241   35..         ADDC    A,?V0 + 9
   \   000243   FB           MOV     R3,A
   \   000244   A9..         MOV     R1,?V0 + 3
   \   000246   12....       LCALL   ??xferBuf?relay
   \   000249   7404         MOV     A,#0x4
   \   00024B   12....       LCALL   ?DEALLOC_XSTACK8
   1183          
   1184                  // Calculate and write the new checksum.
   1185                  dstOff = pgOff[dstPg-OSAL_NV_PAGE_BEG] - tmp;
   \   00024E   85..82       MOV     DPL,?V0 + 4
   \   000251   85..83       MOV     DPH,?V0 + 5
   \   000254   C082         PUSH    DPL
   \   000256   C083         PUSH    DPH
   \   000258   7401         MOV     A,#0x1
   \   00025A   12....       LCALL   ?XSTACK_DISP0_8
   \   00025D   E0           MOVX    A,@DPTR
   \   00025E   F8           MOV     R0,A
   \   00025F   A3           INC     DPTR
   \   000260   E0           MOVX    A,@DPTR
   \   000261   F9           MOV     R1,A
   \   000262   D083         POP     DPH
   \   000264   D082         POP     DPL
   \   000266   E0           MOVX    A,@DPTR
   \   000267   C3           CLR     C
   \   000268   98           SUBB    A,R0
   \   000269   FE           MOV     R6,A
   \   00026A   A3           INC     DPTR
   \   00026B   E0           MOVX    A,@DPTR
   \   00026C   99           SUBB    A,R1
   \   00026D   FF           MOV     R7,A
   1186                  tmp = calcChkF( dstPg, dstOff, hdr.len );
   \   00026E   8E..         MOV     ?V0 + 4,R6
   \   000270   8F..         MOV     ?V0 + 5,R7
   \   000272   75..00       MOV     ?V0 + 8,#0x0
   \   000275   75..00       MOV     ?V0 + 9,#0x0
   \   000278   7409         MOV     A,#0x9
   \   00027A   12....       LCALL   ?XSTACK_DISP0_8
   \   00027D   E0           MOVX    A,@DPTR
   \   00027E   2403         ADD     A,#0x3
   \   000280   F5..         MOV     ?V0 + 10,A
   \   000282   A3           INC     DPTR
   \   000283   E0           MOVX    A,@DPTR
   \   000284   3400         ADDC    A,#0x0
   \   000286   F5..         MOV     ?V0 + 11,A
   \   000288   7402         MOV     A,#0x2
   \   00028A   78..         MOV     R0,#?V0 + 10
   \   00028C   12....       LCALL   ?US_SHR
   \   00028F   85....       MOV     ?V0 + 0,?V0 + 10
   \   000292   85....       MOV     ?V0 + 1,?V0 + 11
   \   000295   E5..         MOV     A,?V0 + 0
   \   000297   45..         ORL     A,?V0 + 1
   \   000299   606E         JZ      ??osal_nv_write_13
   \                     ??osal_nv_write_14:
   \   00029B   E5..         MOV     A,?V0 + 0
   \   00029D   24FF         ADD     A,#-0x1
   \   00029F   F5..         MOV     ?V0 + 0,A
   \   0002A1   E5..         MOV     A,?V0 + 1
   \   0002A3   34FF         ADDC    A,#-0x1
   \   0002A5   F5..         MOV     ?V0 + 1,A
   \   0002A7                ; Setup parameters for call to function HalFlashRead
   \   0002A7   75..04       MOV     ?V0 + 10,#0x4
   \   0002AA   75..00       MOV     ?V0 + 11,#0x0
   \   0002AD   78..         MOV     R0,#?V0 + 10
   \   0002AF   12....       LCALL   ?PUSH_XSTACK_I_TWO
   \   0002B2   7405         MOV     A,#0x5
   \   0002B4   12....       LCALL   ?XSTACK_DISP0_8
   \   0002B7   AC82         MOV     R4,DPL
   \   0002B9   AD83         MOV     R5,DPH
   \   0002BB   AA..         MOV     R2,?V0 + 4
   \   0002BD   AB..         MOV     R3,?V0 + 5
   \   0002BF   A9..         MOV     R1,?V0 + 2
   \   0002C1   12....       LCALL   ??HalFlashRead?relay
   \   0002C4   7402         MOV     A,#0x2
   \   0002C6   12....       LCALL   ?DEALLOC_XSTACK8
   \   0002C9   E5..         MOV     A,?V0 + 4
   \   0002CB   2404         ADD     A,#0x4
   \   0002CD   F5..         MOV     ?V0 + 4,A
   \   0002CF   E5..         MOV     A,?V0 + 5
   \   0002D1   3400         ADDC    A,#0x0
   \   0002D3   F5..         MOV     ?V0 + 5,A
   \   0002D5   7403         MOV     A,#0x3
   \   0002D7   12....       LCALL   ?XSTACK_DISP0_8
   \   0002DA   A882         MOV     R0,DPL
   \   0002DC   A983         MOV     R1,DPH
   \                     ??osal_nv_write_15:
   \   0002DE   8882         MOV     DPL,R0
   \   0002E0   8983         MOV     DPH,R1
   \   0002E2   E0           MOVX    A,@DPTR
   \   0002E3   FA           MOV     R2,A
   \   0002E4   E5..         MOV     A,?V0 + 8
   \   0002E6   2A           ADD     A,R2
   \   0002E7   F5..         MOV     ?V0 + 8,A
   \   0002E9   E5..         MOV     A,?V0 + 9
   \   0002EB   3400         ADDC    A,#0x0
   \   0002ED   F5..         MOV     ?V0 + 9,A
   \   0002EF   A3           INC     DPTR
   \   0002F0   A882         MOV     R0,DPL
   \   0002F2   A983         MOV     R1,DPH
   \   0002F4   7407         MOV     A,#0x7
   \   0002F6   12....       LCALL   ?XSTACK_DISP0_8
   \   0002F9   E582         MOV     A,DPL
   \   0002FB   68           XRL     A,R0
   \   0002FC   7003         JNZ     ??osal_nv_write_16
   \   0002FE   E583         MOV     A,DPH
   \   000300   69           XRL     A,R1
   \                     ??osal_nv_write_16:
   \   000301   70DB         JNZ     ??osal_nv_write_15
   \   000303   E5..         MOV     A,?V0 + 0
   \   000305   45..         ORL     A,?V0 + 1
   \   000307   7092         JNZ     ??osal_nv_write_14
   \                     ??osal_nv_write_13:
   \   000309   7401         MOV     A,#0x1
   \   00030B   12....       LCALL   ?XSTACK_DISP0_8
   \   00030E   E5..         MOV     A,?V0 + 8
   \   000310   F0           MOVX    @DPTR,A
   \   000311   A3           INC     DPTR
   \   000312   E5..         MOV     A,?V0 + 9
   \   000314   F0           MOVX    @DPTR,A
   1187                  dstOff -= OSAL_NV_HDR_SIZE;
   \   000315   EE           MOV     A,R6
   \   000316   24F8         ADD     A,#-0x8
   \   000318   FE           MOV     R6,A
   \   000319   EF           MOV     A,R7
   \   00031A   34FF         ADDC    A,#-0x1
   \   00031C   FF           MOV     R7,A
   1188                  writeWordH( dstPg, (dstOff+OSAL_NV_HDR_CHK), (uint8 *)&tmp );
   \   00031D   7401         MOV     A,#0x1
   \   00031F   12....       LCALL   ?XSTACK_DISP0_8
   \   000322   E0           MOVX    A,@DPTR
   \   000323   C0E0         PUSH    A
   \   000325   7403         MOV     A,#0x3
   \   000327   12....       LCALL   ?XSTACK_DISP0_8
   \   00032A   D0E0         POP     A
   \   00032C   F0           MOVX    @DPTR,A
   \   00032D   7402         MOV     A,#0x2
   \   00032F   12....       LCALL   ?XSTACK_DISP0_8
   \   000332   E0           MOVX    A,@DPTR
   \   000333   C0E0         PUSH    A
   \   000335   7404         MOV     A,#0x4
   \   000337   12....       LCALL   ?XSTACK_DISP0_8
   \   00033A   D0E0         POP     A
   \   00033C   F0           MOVX    @DPTR,A
   \   00033D   7405         MOV     A,#0x5
   \   00033F   12....       LCALL   ?XSTACK_DISP0_8
   \   000342   74FF         MOV     A,#-0x1
   \   000344   F0           MOVX    @DPTR,A
   \   000345   7406         MOV     A,#0x6
   \   000347   12....       LCALL   ?XSTACK_DISP0_8
   \   00034A   74FF         MOV     A,#-0x1
   \   00034C   F0           MOVX    @DPTR,A
   \   00034D                ; Setup parameters for call to function HalAdcCheckVdd
   \   00034D   7904         MOV     R1,#0x4
   \   00034F   12....       LCALL   ??HalAdcCheckVdd?relay
   \   000352   E9           MOV     A,R1
   \   000353   6043         JZ      ??osal_nv_write_17
   \   000355                ; Setup parameters for call to function HalFlashWrite
   \   000355   75..01       MOV     ?V0 + 0,#0x1
   \   000358   75..00       MOV     ?V0 + 1,#0x0
   \   00035B   78..         MOV     R0,#?V0 + 0
   \   00035D   12....       LCALL   ?PUSH_XSTACK_I_TWO
   \   000360   7405         MOV     A,#0x5
   \   000362   12....       LCALL   ?XSTACK_DISP0_8
   \   000365   AC82         MOV     R4,DPL
   \   000367   AD83         MOV     R5,DPH
   \   000369   EE           MOV     A,R6
   \   00036A   2404         ADD     A,#0x4
   \   00036C   F5..         MOV     ?V0 + 4,A
   \   00036E   EF           MOV     A,R7
   \   00036F   3400         ADDC    A,#0x0
   \   000371   F5..         MOV     ?V0 + 5,A
   \   000373   7402         MOV     A,#0x2
   \   000375   78..         MOV     R0,#?V0 + 4
   \   000377   12....       LCALL   ?US_SHR
   \   00037A   85....       MOV     ?V0 + 0,?V0 + 2
   \   00037D   7409         MOV     A,#0x9
   \   00037F   78..         MOV     R0,#?V0 + 0
   \   000381   12....       LCALL   ?S_SHL
   \   000384   E5..         MOV     A,?V0 + 4
   \   000386   2400         ADD     A,#0x0
   \   000388   FA           MOV     R2,A
   \   000389   E5..         MOV     A,?V0 + 5
   \   00038B   35..         ADDC    A,?V0 + 1
   \   00038D   FB           MOV     R3,A
   \   00038E   12....       LCALL   ??HalFlashWrite?relay
   \   000391   7402         MOV     A,#0x2
   \   000393   12....       LCALL   ?DEALLOC_XSTACK8
   \   000396   8006         SJMP    ??osal_nv_write_18
   \                     ??osal_nv_write_17:
   \   000398   90....       MOV     DPTR,#failF
   \   00039B   7401         MOV     A,#0x1
   \   00039D   F0           MOVX    @DPTR,A
   1189                  HalFlashRead(dstPg, dstOff, (uint8 *)(&hdr), OSAL_NV_HDR_SIZE);
   \                     ??osal_nv_write_18:
   \   00039E                ; Setup parameters for call to function HalFlashRead
   \   00039E   75..08       MOV     ?V0 + 0,#0x8
   \   0003A1   75..00       MOV     ?V0 + 1,#0x0
   \   0003A4   78..         MOV     R0,#?V0 + 0
   \   0003A6   12....       LCALL   ?PUSH_XSTACK_I_TWO
   \   0003A9   7409         MOV     A,#0x9
   \   0003AB   12....       LCALL   ?XSTACK_DISP0_8
   \   0003AE   AC82         MOV     R4,DPL
   \   0003B0   AD83         MOV     R5,DPH
   \   0003B2   EE           MOV     A,R6
   \   0003B3   FA           MOV     R2,A
   \   0003B4   EF           MOV     A,R7
   \   0003B5   FB           MOV     R3,A
   \   0003B6   A9..         MOV     R1,?V0 + 2
   \   0003B8   12....       LCALL   ??HalFlashRead?relay
   \   0003BB   7402         MOV     A,#0x2
   \   0003BD   12....       LCALL   ?DEALLOC_XSTACK8
   1190          
   1191                  if ( tmp == hdr.chk )
   \   0003C0   7401         MOV     A,#0x1
   \   0003C2   12....       LCALL   ?XSTACK_DISP0_8
   \   0003C5   E0           MOVX    A,@DPTR
   \   0003C6   F8           MOV     R0,A
   \   0003C7   A3           INC     DPTR
   \   0003C8   E0           MOVX    A,@DPTR
   \   0003C9   F9           MOV     R1,A
   \   0003CA   740B         MOV     A,#0xb
   \   0003CC   12....       LCALL   ?XSTACK_DISP0_8
   \   0003CF   E0           MOVX    A,@DPTR
   \   0003D0   68           XRL     A,R0
   \   0003D1   7003         JNZ     ??osal_nv_write_19
   \   0003D3   A3           INC     DPTR
   \   0003D4   E0           MOVX    A,@DPTR
   \   0003D5   69           XRL     A,R1
   \                     ??osal_nv_write_19:
   \   0003D6   700D         JNZ     ??osal_nv_write_20
   1192                  {
   1193                    setItem( srcPg, origOff, eNvZero );
   \   0003D8                ; Setup parameters for call to function setItem
   \   0003D8   7C01         MOV     R4,#0x1
   \   0003DA   AA..         MOV     R2,?V0 + 14
   \   0003DC   AB..         MOV     R3,?V0 + 15
   \   0003DE   A9..         MOV     R1,?V0 + 3
   \   0003E0   12....       LCALL   ??setItem?relay
   \   0003E3   8003         SJMP    ??osal_nv_write_21
   1194                  }
   1195                  else
   1196                  {
   1197                    rtrn = NV_OPER_FAILED;
   \                     ??osal_nv_write_20:
   \   0003E5   75..0A       MOV     ?V0 + 6,#0xa
   1198                  }
   1199          
   1200                  if ( dstPg == pgRes )
   \                     ??osal_nv_write_21:
   \   0003E8   90....       MOV     DPTR,#pgRes
   \   0003EB   E0           MOVX    A,@DPTR
   \   0003EC   65..         XRL     A,?V0 + 2
   \   0003EE   7010         JNZ     ??osal_nv_write_11
   1201                  {
   1202                    compactPage( comPg );
   \   0003F0                ; Setup parameters for call to function compactPage
   \   0003F0   85..82       MOV     DPL,?XSP + 0
   \   0003F3   85..83       MOV     DPH,?XSP + 1
   \   0003F6   E0           MOVX    A,@DPTR
   \   0003F7   F9           MOV     R1,A
   \   0003F8   12....       LCALL   ??compactPage?relay
   \   0003FB   8003         SJMP    ??osal_nv_write_11
   1203                  }
   1204                }
   1205                else
   1206                {
   1207                  rtrn = NV_OPER_FAILED;
   \                     ??osal_nv_write_12:
   \   0003FD   75..0A       MOV     ?V0 + 6,#0xa
   1208                }
   1209              }
   1210            }
   1211          
   1212            if ( failF )
   \                     ??osal_nv_write_11:
   \   000400   90....       MOV     DPTR,#failF
   \   000403   E0           MOVX    A,@DPTR
   \   000404   6006         JZ      ??osal_nv_write_0
   1213            {
   1214              (void)initNV();  // See comment at the declaration of failF.
   \   000406                ; Setup parameters for call to function initNV
   \   000406   12....       LCALL   ??initNV?relay
   1215              rtrn = NV_OPER_FAILED;
   \   000409   75..0A       MOV     ?V0 + 6,#0xa
   1216            }
   1217          
   1218            return rtrn;
   \                     ??osal_nv_write_0:
   \   00040C   A9..         MOV     R1,?V0 + 6
   \                     ??osal_nv_write_7:
   \   00040E   740F         MOV     A,#0xf
   \   000410                REQUIRE ?Subroutine0
   \   000410                ; // Fall through to label ?Subroutine0
   1219          }
   1220          
   1221          /*********************************************************************
   1222           * @fn      osal_nv_read
   1223           *
   1224           * @brief   Read data from NV. This function can be used to read an entire item from NV or
   1225           *          an element of an item by indexing into the item with an offset.
   1226           *          Read data is copied into *buf.
   1227           *
   1228           * @param   id  - Valid NV item Id.
   1229           * @param   ndx - Index offset into item
   1230           * @param   len - Length of data to read.
   1231           * @param  *buf - Data is read into this buffer.
   1232           *
   1233           * @return  ZSUCCESS if NV data was copied to the parameter 'buf'.
   1234           *          Otherwise, NV_OPER_FAILED for failure.
   1235           */

   \                                 In  segment BANKED_CODE, align 1, keep-with-next
   1236          uint8 osal_nv_read( uint16 id, uint16 ndx, uint16 len, void *buf )
   \                     osal_nv_read:
   1237          {
   \   000000   74EE         MOV     A,#-0x12
   \   000002   12....       LCALL   ?BANKED_ENTER_XDATA
   \   000005                ; Saved register size: 18
   \   000005                ; Auto size: 0
   \   000005   EC           MOV     A,R4
   \   000006   FE           MOV     R6,A
   \   000007   ED           MOV     A,R5
   \   000008   FF           MOV     R7,A
   \   000009   7412         MOV     A,#0x12
   \   00000B   12....       LCALL   ?XSTACK_DISP0_8
   \   00000E   E0           MOVX    A,@DPTR
   \   00000F   F5..         MOV     ?V0 + 4,A
   \   000011   A3           INC     DPTR
   \   000012   E0           MOVX    A,@DPTR
   \   000013   F5..         MOV     ?V0 + 5,A
   \   000015   7414         MOV     A,#0x14
   \   000017   12....       LCALL   ?XSTACK_DISP0_8
   \   00001A   E0           MOVX    A,@DPTR
   \   00001B   F5..         MOV     ?V0 + 0,A
   \   00001D   A3           INC     DPTR
   \   00001E   E0           MOVX    A,@DPTR
   \   00001F   F5..         MOV     ?V0 + 1,A
   1238            uint16 offset;
   1239          
   1240            offset = findItem( id );
   \   000021   8A..         MOV     ?V0 + 2,R2
   \   000023   8B..         MOV     ?V0 + 3,R3
   \   000025   8006         SJMP    ??osal_nv_read_0
   \                     ??osal_nv_read_1:
   \   000027   7480         MOV     A,#-0x80
   \   000029   45..         ORL     A,?V0 + 3
   \   00002B   F5..         MOV     ?V0 + 3,A
   \                     ??osal_nv_read_0:
   \   00002D   75..79       MOV     ?V0 + 6,#0x79
   \                     ??osal_nv_read_2:
   \   000030                ; Setup parameters for call to function initPage
   \   000030   7C00         MOV     R4,#0x0
   \   000032   AA..         MOV     R2,?V0 + 2
   \   000034   AB..         MOV     R3,?V0 + 3
   \   000036   A9..         MOV     R1,?V0 + 6
   \   000038   12....       LCALL   ??initPage?relay
   \   00003B   8B..         MOV     ?V0 + 9,R3
   \   00003D   A9..         MOV     R1,?V0 + 9
   \   00003F   EA           MOV     A,R2
   \   000040   49           ORL     A,R1
   \   000041   6026         JZ      ??osal_nv_read_3
   \   000043   E5..         MOV     A,?V0 + 6
   \   000045   90....       MOV     DPTR,#findPg
   \   000048   F0           MOVX    @DPTR,A
   1241            if ( offset == OSAL_NV_ITEM_NULL )
   1242            {
   1243              return NV_OPER_FAILED;
   1244            }
   1245          
   1246            HalFlashRead(findPg, offset+ndx, buf, len);
   \   000049                ; Setup parameters for call to function HalFlashRead
   \   000049   78..         MOV     R0,#?V0 + 4
   \   00004B   12....       LCALL   ?PUSH_XSTACK_I_TWO
   \   00004E   AC..         MOV     R4,?V0 + 0
   \   000050   AD..         MOV     R5,?V0 + 1
   \   000052   EA           MOV     A,R2
   \   000053   2E           ADD     A,R6
   \   000054   FA           MOV     R2,A
   \   000055   EB           MOV     A,R3
   \   000056   3F           ADDC    A,R7
   \   000057   FB           MOV     R3,A
   \   000058   90....       MOV     DPTR,#findPg
   \   00005B   E0           MOVX    A,@DPTR
   \   00005C   F9           MOV     R1,A
   \   00005D   12....       LCALL   ??HalFlashRead?relay
   \   000060   7402         MOV     A,#0x2
   \   000062   12....       LCALL   ?DEALLOC_XSTACK8
   1247          
   1248            return ZSUCCESS;
   \   000065   7900         MOV     R1,#0x0
   \   000067   8016         SJMP    ??osal_nv_read_4
   \                     ??osal_nv_read_3:
   \   000069   05..         INC     ?V0 + 6
   \   00006B   E5..         MOV     A,?V0 + 6
   \   00006D   C3           CLR     C
   \   00006E   947F         SUBB    A,#0x7f
   \   000070   40BE         JC      ??osal_nv_read_2
   \   000072   E5..         MOV     A,?V0 + 3
   \   000074   5480         ANL     A,#0x80
   \   000076   60AF         JZ      ??osal_nv_read_1
   \   000078   90....       MOV     DPTR,#findPg
   \   00007B   E4           CLR     A
   \   00007C   F0           MOVX    @DPTR,A
   \   00007D   790A         MOV     R1,#0xa
   \                     ??osal_nv_read_4:
   \   00007F   02....       LJMP    ?Subroutine3 & 0xFFFF
   1249          }

   \                                 In  segment BANK_RELAYS, align 1
   \                     ??initNV?relay:
   \   000000   12....       LCALL   ?BDISPATCH
   \   000003   ......       DC24    initNV

   \                                 In  segment BANK_RELAYS, align 1
   \                     ??initPage?relay:
   \   000000   12....       LCALL   ?BDISPATCH
   \   000003   ......       DC24    initPage

   \                                 In  segment BANK_RELAYS, align 1
   \                     ??compactPage?relay:
   \   000000   12....       LCALL   ?BDISPATCH
   \   000003   ......       DC24    compactPage

   \                                 In  segment BANK_RELAYS, align 1
   \                     ??findItem?relay:
   \   000000   12....       LCALL   ?BDISPATCH
   \   000003   ......       DC24    findItem

   \                                 In  segment BANK_RELAYS, align 1
   \                     ??initItem?relay:
   \   000000   12....       LCALL   ?BDISPATCH
   \   000003   ......       DC24    initItem

   \                                 In  segment BANK_RELAYS, align 1
   \                     ??setItem?relay:
   \   000000   12....       LCALL   ?BDISPATCH
   \   000003   ......       DC24    setItem

   \                                 In  segment BANK_RELAYS, align 1
   \                     ??writeBuf?relay:
   \   000000   12....       LCALL   ?BDISPATCH
   \   000003   ......       DC24    writeBuf

   \                                 In  segment BANK_RELAYS, align 1
   \                     ??xferBuf?relay:
   \   000000   12....       LCALL   ?BDISPATCH
   \   000003   ......       DC24    xferBuf

   \                                 In  segment BANK_RELAYS, align 1
   \                     ??writeItem?relay:
   \   000000   12....       LCALL   ?BDISPATCH
   \   000003   ......       DC24    writeItem

   \                                 In  segment BANK_RELAYS, align 1
   \                     ??osal_nv_init?relay:
   \   000000   12....       LCALL   ?BDISPATCH
   \   000003   ......       DC24    osal_nv_init

   \                                 In  segment BANK_RELAYS, align 1
   \                     ??osal_nv_item_init?relay:
   \   000000   12....       LCALL   ?BDISPATCH
   \   000003   ......       DC24    osal_nv_item_init

   \                                 In  segment BANK_RELAYS, align 1
   \                     ??osal_nv_item_len?relay:
   \   000000   12....       LCALL   ?BDISPATCH
   \   000003   ......       DC24    osal_nv_item_len

   \                                 In  segment BANK_RELAYS, align 1
   \                     ??osal_nv_write?relay:
   \   000000   12....       LCALL   ?BDISPATCH
   \   000003   ......       DC24    osal_nv_write

   \                                 In  segment BANK_RELAYS, align 1
   \                     ??osal_nv_read?relay:
   \   000000   12....       LCALL   ?BDISPATCH
   \   000003   ......       DC24    osal_nv_read
   1250          
   1251          /*********************************************************************
   1252          *********************************************************************/

   Maximum stack usage in bytes:

     Function            ISTACK PSTACK XSTACK
     --------            ------ ------ ------
     compactPage             1      0     85
       -> HalAdcCheckVdd     0      0     84
       -> HalFlashWrite      0      0     88
       -> HalFlashRead       0      0     88
       -> setItem            0      0     84
       -> writeBuf           0      0     88
       -> xferBuf            0      0     92
       -> setItem            0      0     84
       -> HalFlashRead       0      0     88
       -> HalAdcCheckVdd     0      0     84
       -> HalFlashErase      0      0     84
       -> HalAdcCheckVdd     0      0     84
       -> HalFlashWrite      0      0     88
     findItem                0      0     52
       -> initPage           0      0     24
     initItem                1      0     61
       -> writeItem          0      0     40
       -> compactPage        0      0     34
     initNV                  0      0     70
       -> HalFlashRead       0      0     62
       -> HalAdcCheckVdd     0      0     58
       -> HalFlashWrite      0      0     62
       -> initPage           0      0     58
       -> HalAdcCheckVdd     0      0     58
       -> HalFlashWrite      0      0     62
       -> compactPage        0      0     58
       -> HalAdcCheckVdd     0      0     58
       -> HalFlashErase      0      0     58
       -> initNV             0      0     58
     initPage                0      0     81
       -> HalFlashRead       0      0     84
       -> HalFlashRead       0      0     84
       -> findItem           0      0     80
       -> setItem            0      0     80
       -> setItem            0      0     80
     osal_nv_init            2      0      0
       -> initNV             4      0      0
     osal_nv_item_init       0      0     22
       -> initPage           0      0     36
       -> initItem           0      0     40
       -> initNV             0      0     36
     osal_nv_item_len        0      0     22
       -> initPage           0      0     40
       -> HalFlashRead       0      0     44
     osal_nv_read            0      0     24
       -> initPage           0      0     36
       -> HalFlashRead       0      0     40
     osal_nv_write           2      0     47
       -> initPage           0      0     78
       -> HalFlashRead       0      0     82
       -> HalFlashRead       0      0     82
       -> initItem           0      0     82
       -> setItem            0      0     78
       -> xferBuf            0      0     86
       -> writeBuf           0      0     82
       -> xferBuf            0      0     86
       -> HalFlashRead       0      0     82
       -> HalAdcCheckVdd     0      0     78
       -> HalFlashWrite      0      0     82
       -> HalFlashRead       0      0     82
       -> setItem            0      0     78
       -> compactPage        0      0     78
       -> initNV             0      0     78
     setItem                 0      0     66
       -> HalFlashRead       0      0     48
       -> HalAdcCheckVdd     0      0     44
       -> HalFlashWrite      0      0     48
       -> HalAdcCheckVdd     0      0     44
       -> HalFlashWrite      0      0     48
     writeBuf                1      0     72
       -> HalFlashRead       0      0     48
       -> HalAdcCheckVdd     0      0     44
       -> HalFlashWrite      0      0     48
       -> HalAdcCheckVdd     0      0     44
       -> HalFlashWrite      0      0     48
       -> HalFlashRead       0      0     48
       -> HalAdcCheckVdd     0      0     44
       -> HalFlashWrite      0      0     48
     writeItem               1      0     68
       -> HalAdcCheckVdd     0      0     92
       -> HalFlashWrite      0      0     96
       -> HalAdcCheckVdd     0      0     92
       -> HalFlashWrite      0      0     96
       -> HalFlashRead       0      0     96
       -> writeBuf           0      0     96
       -> HalFlashRead       0      0     96
       -> HalAdcCheckVdd     0      0     92
       -> HalFlashWrite      0      0     96
       -> HalFlashRead       0      0     96
     xferBuf                 0      0     72
       -> HalFlashRead       0      0     52
       -> HalFlashRead       0      0     52
       -> HalAdcCheckVdd     0      0     48
       -> HalFlashWrite      0      0     52
       -> HalFlashRead       0      0     52
       -> HalAdcCheckVdd     0      0     48
       -> HalFlashWrite      0      0     52
       -> HalFlashRead       0      0     52
       -> HalFlashRead       0      0     52
       -> HalAdcCheckVdd     0      0     48
       -> HalFlashWrite      0      0     52


   Segment part sizes:

     Function/Label            Bytes
     --------------            -----
     _nvBuf                    12288
     _nvIEEE                       8
     pgOff                        12
     pgLost                       12
     pgRes                         1
     findPg                        1
     failF                         1
     initNV                      437
     initPage                    630
     ?Subroutine0                  8
     compactPage                 783
     ?Subroutine1                  8
     findItem                     65
     ?Subroutine2                  5
     initItem                    233
     setItem                     290
     writeBuf                    532
     ?Subroutine3                  5
     xferBuf                     670
     writeItem                   893
     osal_nv_init                 14
     osal_nv_item_init           139
     osal_nv_item_len            128
     osal_nv_write              1040
     osal_nv_read                130
     ??initNV?relay                6
     ??initPage?relay              6
     ??compactPage?relay           6
     ??findItem?relay              6
     ??initItem?relay              6
     ??setItem?relay               6
     ??writeBuf?relay              6
     ??xferBuf?relay               6
     ??writeItem?relay             6
     ??osal_nv_init?relay          6
     ??osal_nv_item_init?relay     6
     ??osal_nv_item_len?relay      6
     ??osal_nv_write?relay         6
     ??osal_nv_read?relay          6

 
  6 010 bytes in segment BANKED_CODE
     84 bytes in segment BANK_RELAYS
      8 bytes in segment IEEE_ADDRESS_SPACE
     27 bytes in segment XDATA_Z
 12 288 bytes in segment ZIGNV_ADDRESS_SPACE
 
  6 094 bytes of CODE  memory
 12 323 bytes of XDATA memory

Errors: none
Warnings: none
