###############################################################################
#                                                                             #
# IAR C/C++ Compiler V8.10.3.10338/W32 for 8051         23/May/2015  15:18:51 #
# Copyright 2004-2011 IAR Systems AB.                                         #
#                                                                             #
#    Core               =  plain                                              #
#    Code model         =  banked                                             #
#    Data model         =  large                                              #
#    Calling convention =  xdata reentrant                                    #
#    Constant location  =  data_rom                                           #
#    Dptr setup         =  1,16                                               #
#    Source file        =  E:\wireless-switch\demo\ZStack-CC2530-2.3.0-1.4.0\ #
#                          Components\stack\zdo\ZDObject.c                    #
#    Command line       =  -f E:\wireless-switch\demo\ZStack-CC2530-2.3.0-1.4 #
#                          .0\Projects\zstack\Samples\SampleApp\CC2530DB\..\. #
#                          .\..\Tools\CC2530DB\f8wRouter.cfg (-DCPU32MHZ      #
#                          -DROOT=__near_func -DMAC_CFG_APP_PENDING_QUEUE=TRU #
#                          E -DRTR_NWK -DBLINK_LEDS) -f                       #
#                          E:\wireless-switch\demo\ZStack-CC2530-2.3.0-1.4.0\ #
#                          Projects\zstack\Samples\SampleApp\CC2530DB\..\..\. #
#                          .\Tools\CC2530DB\f8wConfig.cfg (-DSECURE=0         #
#                          -DZG_SECURE_DYNAMIC=0 -DREFLECTOR                  #
#                          -DDEFAULT_CHANLIST=0x00000800                      #
#                          -DZDAPP_CONFIG_PAN_ID=0xFFF1                       #
#                          -DNWK_START_DELAY=100 -DEXTENDED_JOINING_RANDOM_MA #
#                          SK=0x007F -DBEACON_REQUEST_DELAY=100               #
#                          -DBEACON_REQ_DELAY_MASK=0x00FF                     #
#                          -DROUTE_EXPIRY_TIME=30 -DAPSC_ACK_WAIT_DURATION_PO #
#                          LLED=3000 -DNWK_INDIRECT_MSG_TIMEOUT=7             #
#                          -DMAX_RREQ_ENTRIES=8 -DAPSC_MAX_FRAME_RETRIES=3    #
#                          -DNWK_MAX_DATA_RETRIES=2                           #
#                          -DMAX_POLL_FAILURE_RETRIES=2 -DMAX_BCAST=9         #
#                          -DAPS_MAX_GROUPS=16 -DMAX_RTG_ENTRIES=40           #
#                          -DNWK_MAX_BINDING_ENTRIES=4                        #
#                          -DMAX_BINDING_CLUSTER_IDS=4 "-DDEFAULT_KEY={0x01,  #
#                          0x03, 0x05, 0x07, 0x09, 0x0B, 0x0D, 0x0F, 0x00,    #
#                          0x02, 0x04, 0x06, 0x08, 0x0A, 0x0C, 0x0D}"         #
#                          -DMAC_MAX_FRAME_SIZE=116 "-DCONST=const __code"    #
#                          -DGENERIC=__generic -DRFD_RCVC_ALWAYS_ON=FALSE     #
#                          -DPOLL_RATE=1000 -DQUEUED_POLL_RATE=100            #
#                          -DRESPONSE_POLL_RATE=100) -DREJOIN_POLL_RATE=440   #
#                          E:\wireless-switch\demo\ZStack-CC2530-2.3.0-1.4.0\ #
#                          Components\stack\zdo\ZDObject.c -D ZIGBEEPRO -D    #
#                          ZTOOL_P1 -D MT_TASK -D MT_SYS_FUNC -D MT_ZDO_FUNC  #
#                          -D LCD_SUPPORTED=DEBUG -D ROUTER_ME -lC            #
#                          E:\wireless-switch\demo\ZStack-CC2530-2.3.0-1.4.0\ #
#                          Projects\zstack\Samples\SampleApp\CC2530DB\RouterE #
#                          B-Pro\List\ -lA E:\wireless-switch\demo\ZStack-CC2 #
#                          530-2.3.0-1.4.0\Projects\zstack\Samples\SampleApp\ #
#                          CC2530DB\RouterEB-Pro\List\ --diag_suppress        #
#                          Pe001,Pa010 -o E:\wireless-switch\demo\ZStack-CC25 #
#                          30-2.3.0-1.4.0\Projects\zstack\Samples\SampleApp\C #
#                          C2530DB\RouterEB-Pro\Obj\ -e --debug --core=plain  #
#                          --dptr=16,1 --data_model=large                     #
#                          --code_model=banked --calling_convention=xdata_ree #
#                          ntrant --place_constants=data_rom                  #
#                          --nr_virtual_regs 16 -I E:\wireless-switch\demo\ZS #
#                          tack-CC2530-2.3.0-1.4.0\Projects\zstack\Samples\Sa #
#                          mpleApp\CC2530DB\ -I E:\wireless-switch\demo\ZStac #
#                          k-CC2530-2.3.0-1.4.0\Projects\zstack\Samples\Sampl #
#                          eApp\CC2530DB\..\SOURCE\ -I                        #
#                          E:\wireless-switch\demo\ZStack-CC2530-2.3.0-1.4.0\ #
#                          Projects\zstack\Samples\SampleApp\CC2530DB\..\..\. #
#                          .\ZMAIN\TI2530DB\ -I E:\wireless-switch\demo\ZStac #
#                          k-CC2530-2.3.0-1.4.0\Projects\zstack\Samples\Sampl #
#                          eApp\CC2530DB\..\..\..\..\..\COMPONENTS\MT\ -I     #
#                          E:\wireless-switch\demo\ZStack-CC2530-2.3.0-1.4.0\ #
#                          Projects\zstack\Samples\SampleApp\CC2530DB\..\..\. #
#                          .\..\..\COMPONENTS\HAL\INCLUDE\ -I                 #
#                          E:\wireless-switch\demo\ZStack-CC2530-2.3.0-1.4.0\ #
#                          Projects\zstack\Samples\SampleApp\CC2530DB\..\..\. #
#                          .\..\..\COMPONENTS\HAL\TARGET\CC2530EB\ -I         #
#                          E:\wireless-switch\demo\ZStack-CC2530-2.3.0-1.4.0\ #
#                          Projects\zstack\Samples\SampleApp\CC2530DB\..\..\. #
#                          .\..\..\COMPONENTS\OSAL\MCU\CCSOC\ -I              #
#                          E:\wireless-switch\demo\ZStack-CC2530-2.3.0-1.4.0\ #
#                          Projects\zstack\Samples\SampleApp\CC2530DB\..\..\. #
#                          .\..\..\COMPONENTS\OSAL\INCLUDE\ -I                #
#                          E:\wireless-switch\demo\ZStack-CC2530-2.3.0-1.4.0\ #
#                          Projects\zstack\Samples\SampleApp\CC2530DB\..\..\. #
#                          .\..\..\COMPONENTS\STACK\AF\ -I                    #
#                          E:\wireless-switch\demo\ZStack-CC2530-2.3.0-1.4.0\ #
#                          Projects\zstack\Samples\SampleApp\CC2530DB\..\..\. #
#                          .\..\..\COMPONENTS\STACK\NWK\ -I                   #
#                          E:\wireless-switch\demo\ZStack-CC2530-2.3.0-1.4.0\ #
#                          Projects\zstack\Samples\SampleApp\CC2530DB\..\..\. #
#                          .\..\..\COMPONENTS\STACK\SEC\ -I                   #
#                          E:\wireless-switch\demo\ZStack-CC2530-2.3.0-1.4.0\ #
#                          Projects\zstack\Samples\SampleApp\CC2530DB\..\..\. #
#                          .\..\..\COMPONENTS\STACK\SAPI\ -I                  #
#                          E:\wireless-switch\demo\ZStack-CC2530-2.3.0-1.4.0\ #
#                          Projects\zstack\Samples\SampleApp\CC2530DB\..\..\. #
#                          .\..\..\COMPONENTS\STACK\SYS\ -I                   #
#                          E:\wireless-switch\demo\ZStack-CC2530-2.3.0-1.4.0\ #
#                          Projects\zstack\Samples\SampleApp\CC2530DB\..\..\. #
#                          .\..\..\COMPONENTS\STACK\ZDO\ -I                   #
#                          E:\wireless-switch\demo\ZStack-CC2530-2.3.0-1.4.0\ #
#                          Projects\zstack\Samples\SampleApp\CC2530DB\..\..\. #
#                          .\..\..\COMPONENTS\ZMAC\F8W\ -I                    #
#                          E:\wireless-switch\demo\ZStack-CC2530-2.3.0-1.4.0\ #
#                          Projects\zstack\Samples\SampleApp\CC2530DB\..\..\. #
#                          .\..\..\COMPONENTS\ZMAC\ -I                        #
#                          E:\wireless-switch\demo\ZStack-CC2530-2.3.0-1.4.0\ #
#                          Projects\zstack\Samples\SampleApp\CC2530DB\..\..\. #
#                          .\..\..\COMPONENTS\SERVICES\SADDR\ -I              #
#                          E:\wireless-switch\demo\ZStack-CC2530-2.3.0-1.4.0\ #
#                          Projects\zstack\Samples\SampleApp\CC2530DB\..\..\. #
#                          .\..\..\COMPONENTS\SERVICES\SDATA\ -I              #
#                          E:\wireless-switch\demo\ZStack-CC2530-2.3.0-1.4.0\ #
#                          Projects\zstack\Samples\SampleApp\CC2530DB\..\..\. #
#                          .\..\..\COMPONENTS\MAC\INCLUDE\ -I                 #
#                          E:\wireless-switch\demo\ZStack-CC2530-2.3.0-1.4.0\ #
#                          Projects\zstack\Samples\SampleApp\CC2530DB\..\..\. #
#                          .\..\..\COMPONENTS\MAC\HIGH_LEVEL\ -I              #
#                          E:\wireless-switch\demo\ZStack-CC2530-2.3.0-1.4.0\ #
#                          Projects\zstack\Samples\SampleApp\CC2530DB\..\..\. #
#                          .\..\..\COMPONENTS\MAC\LOW_LEVEL\srf04\ -I         #
#                          E:\wireless-switch\demo\ZStack-CC2530-2.3.0-1.4.0\ #
#                          Projects\zstack\Samples\SampleApp\CC2530DB\..\..\. #
#                          .\..\..\COMPONENTS\MAC\LOW_LEVEL\srf04\SINGLE_CHIP #
#                          \ -Ohs --require_prototypes                        #
#    List file          =  E:\wireless-switch\demo\ZStack-CC2530-2.3.0-1.4.0\ #
#                          Projects\zstack\Samples\SampleApp\CC2530DB\RouterE #
#                          B-Pro\List\ZDObject.lst                            #
#    Object file        =  E:\wireless-switch\demo\ZStack-CC2530-2.3.0-1.4.0\ #
#                          Projects\zstack\Samples\SampleApp\CC2530DB\RouterE #
#                          B-Pro\Obj\ZDObject.r51                             #
#                                                                             #
#                                                                             #
###############################################################################

E:\wireless-switch\demo\ZStack-CC2530-2.3.0-1.4.0\Components\stack\zdo\ZDObject.c
      1          /**************************************************************************************************
      2            Filename:       ZDObject.c
      3            Revised:        $Date: 2009-12-29 11:40:43 -0800 (Tue, 29 Dec 2009) $
      4            Revision:       $Revision: 21414 $
      5          
      6            Description:    This is the Zigbee Device Object.
      7          
      8          
      9            Copyright 2004-2009 Texas Instruments Incorporated. All rights reserved.
     10          
     11            IMPORTANT: Your use of this Software is limited to those specific rights
     12            granted under the terms of a software license agreement between the user
     13            who downloaded the software, his/her employer (which must be your employer)
     14            and Texas Instruments Incorporated (the "License").  You may not use this
     15            Software unless you agree to abide by the terms of the License. The License
     16            limits your use, and you acknowledge, that the Software may not be modified,
     17            copied or distributed unless embedded on a Texas Instruments microcontroller
     18            or used solely and exclusively in conjunction with a Texas Instruments radio
     19            frequency transceiver, which is integrated into your product.  Other than for
     20            the foregoing purpose, you may not use, reproduce, copy, prepare derivative
     21            works of, modify, distribute, perform, display or sell this Software and/or
     22            its documentation for any purpose.
     23          
     24            YOU FURTHER ACKNOWLEDGE AND AGREE THAT THE SOFTWARE AND DOCUMENTATION ARE
     25            PROVIDED “AS IS” WITHOUT WARRANTY OF ANY KIND, EITHER EXPRESS OR IMPLIED,
     26            INCLUDING WITHOUT LIMITATION, ANY WARRANTY OF MERCHANTABILITY, TITLE,
     27            NON-INFRINGEMENT AND FITNESS FOR A PARTICULAR PURPOSE. IN NO EVENT SHALL
     28            TEXAS INSTRUMENTS OR ITS LICENSORS BE LIABLE OR OBLIGATED UNDER CONTRACT,
     29            NEGLIGENCE, STRICT LIABILITY, CONTRIBUTION, BREACH OF WARRANTY, OR OTHER
     30            LEGAL EQUITABLE THEORY ANY DIRECT OR INDIRECT DAMAGES OR EXPENSES
     31            INCLUDING BUT NOT LIMITED TO ANY INCIDENTAL, SPECIAL, INDIRECT, PUNITIVE
     32            OR CONSEQUENTIAL DAMAGES, LOST PROFITS OR LOST DATA, COST OF PROCUREMENT
     33            OF SUBSTITUTE GOODS, TECHNOLOGY, SERVICES, OR ANY CLAIMS BY THIRD PARTIES
     34            (INCLUDING BUT NOT LIMITED TO ANY DEFENSE THEREOF), OR OTHER SIMILAR COSTS.
     35          
     36            Should you have any questions regarding your right to use this Software,
     37            contact Texas Instruments Incorporated at www.TI.com.
     38          **************************************************************************************************/
     39          
     40          /*********************************************************************
     41           * INCLUDES
     42           */
     43          #include "ZComdef.h"
     44          #include "OSAL.h"
     45          #include "OSAL_Nv.h"
     46          #include "rtg.h"
     47          #include "NLMEDE.h"
     48          #include "nwk_globals.h"
     49          #include "APS.h"
     50          #include "APSMEDE.h"
     51          #include "AssocList.h"
     52          #include "BindingTable.h"
     53          #include "AddrMgr.h"
     54          #include "AF.h"
     55          #include "ZDObject.h"
     56          #include "ZDProfile.h"
     57          #include "ZDConfig.h"
     58          #include "ZDSecMgr.h"
     59          #include "ZDApp.h"
     60          #include "nwk_util.h"   // NLME_IsAddressBroadcast()
     61          #include "ZGlobals.h"
     62          #if defined MT_ZDO_CB_FUNC
     63          #include "MT.h"
     64          #endif
     65          
     66          #if defined( LCD_SUPPORTED )
     67            #include "OnBoard.h"
     68          #endif
     69          
     70          /* HAL */
     71          #include "hal_lcd.h"
     72          
     73          /*********************************************************************
     74           * MACROS
     75           */
     76          
     77          /*********************************************************************
     78           * CONSTANTS
     79           */
     80          // NLME Stub Implementations
     81          #define ZDO_ProcessMgmtPermitJoinTimeout NLME_PermitJoiningTimeout
     82          
     83          // Status fields used by ZDO_ProcessMgmtRtgReq
     84          #define ZDO_MGMT_RTG_ENTRY_ACTIVE             0x00
     85          #define ZDO_MGMT_RTG_ENTRY_DISCOVERY_UNDERWAY 0x01
     86          #define ZDO_MGMT_RTG_ENTRY_DISCOVERY_FAILED   0x02
     87          #define ZDO_MGMT_RTG_ENTRY_INACTIVE           0x03
     88          
     89          /*********************************************************************
     90           * TYPEDEFS
     91           */
     92          #if defined ( REFLECTOR )
     93          typedef struct
     94          {
     95            byte SrcTransSeq;
     96            zAddrType_t SrcAddr;
     97            uint16 LocalCoordinator;
     98            byte epIntf;
     99            uint16 ProfileID;
    100            byte numInClusters;
    101            uint16 *inClusters;
    102            byte numOutClusters;
    103            uint16 *outClusters;
    104            byte SecurityUse;
    105            byte status;
    106          } ZDO_EDBind_t;
    107          #endif // defined ( REFLECTOR )
    108          
    109          enum
    110          {
    111            ZDMATCH_INIT,           // Initialized
    112            ZDMATCH_WAIT_REQ,       // Received first request, waiting for second
    113            ZDMATCH_SENDING_BINDS   // Received both requests, sending unbind/binds
    114          };
    115          
    116          enum
    117          {
    118            ZDMATCH_SENDING_NOT,
    119            ZDMATCH_SENDING_UNBIND,
    120            ZDMATCH_SENDING_BIND
    121          };
    122          
    123          /*********************************************************************
    124           * GLOBAL VARIABLES
    125           */
    126          
    127          /*********************************************************************
    128           * EXTERNAL VARIABLES
    129           */
    130          
    131          /*********************************************************************
    132           * EXTERNAL FUNCTIONS
    133           */
    134          
    135          /*********************************************************************
    136           * LOCAL VARIABLES
    137           */

   \                                 In  segment XDATA_Z, align 1, keep-with-next
    138          static uint16 ZDOBuildBuf[26];  // temp area to build data without allocation
   \                     ZDOBuildBuf:
   \   000000                DS 52
   \   000034                REQUIRE __INIT_XDATA_Z
    139          
    140          #if defined ( REFLECTOR )

   \                                 In  segment XDATA_Z, align 1, keep-with-next
    141          static ZDO_EDBind_t *ZDO_EDBind;     // Null when not used
   \                     ZDO_EDBind:
   \   000000                DS 2
   \   000002                REQUIRE __INIT_XDATA_Z
    142          #endif
    143          
    144          #if defined ( MANAGED_SCAN )
    145            uint32 managedScanNextChannel = 0;
    146            uint32 managedScanChannelMask = 0;
    147            uint8  managedScanTimesPerChannel = 0;
    148          #endif
    149          

   \                                 In  segment XDATA_Z, align 1, keep-with-next
    150          ZDMatchEndDeviceBind_t *matchED = (ZDMatchEndDeviceBind_t *)NULL;
   \                     matchED:
   \   000000                DS 2
   \   000002                REQUIRE __INIT_XDATA_Z
    151          

   \                                 In  segment XDATA_Z, align 1, keep-with-next
    152          uint32 apsChannelMask = 0;
   \                     apsChannelMask:
   \   000000                DS 4
   \   000004                REQUIRE __INIT_XDATA_Z
    153          
    154          /*********************************************************************
    155           * LOCAL FUNCTIONS
    156           */
    157          static void ZDODeviceSetup( void );
    158          #if defined ( MANAGED_SCAN )
    159            static void ZDOManagedScan_Next( void );
    160          #endif
    161          #if defined ( REFLECTOR )
    162            static void ZDO_RemoveEndDeviceBind( void );
    163            static void ZDO_SendEDBindRsp( byte TransSeq, zAddrType_t *dstAddr, byte Status, byte secUse );
    164          #endif
    165          static byte ZDO_CompareClusterLists( byte numList1, uint16 *list1,
    166                                          byte numList2, uint16 *list2, uint16 *pMatches );
    167          static void ZDO_RemoveMatchMemory( void );
    168          static uint8 ZDO_CopyMatchInfo( ZDEndDeviceBind_t *destReq, ZDEndDeviceBind_t *srcReq );
    169          static void ZDO_EndDeviceBindMatchTimeoutCB( void );
    170          uint8 *ZDO_ConvertOTAClusters( uint8 cnt, uint8 *inBuf, uint16 *outList );
    171          static void zdoSendStateChangeMsg(uint8 state, uint8 taskId);
    172          
    173          /*********************************************************************
    174           * @fn          ZDO_Init
    175           *
    176           * @brief       ZDObject and ZDProfile initialization.
    177           *
    178           * @param       none
    179           *
    180           * @return      none
    181           */

   \                                 In  segment BANKED_CODE, align 1, keep-with-next
    182          void ZDO_Init( void )
   \                     ZDO_Init:
    183          {
   \   000000   C082         PUSH    DPL
   \   000002   C083         PUSH    DPH
   \   000004                ; Saved register size: 2
   \   000004                ; Auto size: 0
    184            // Initialize ZD items
    185            #if defined ( REFLECTOR )
    186            ZDO_EDBind = NULL;
   \   000004   90....       MOV     DPTR,#ZDO_EDBind
   \   000007   E4           CLR     A
   \   000008   F0           MOVX    @DPTR,A
   \   000009   A3           INC     DPTR
   \   00000A   F0           MOVX    @DPTR,A
    187            #endif
    188          
    189            // Initialize default ZDO_UseExtendedPANID to the APS one.
    190            osal_cpyExtAddr( ZDO_UseExtendedPANID, AIB_apsUseExtendedPANID );
   \   00000B                ; Setup parameters for call to function sAddrExtCpy
   \   00000B   7C..         MOV     R4,#AIB_apsUseExtendedPANID & 0xff
   \   00000D   7D..         MOV     R5,#(AIB_apsUseExtendedPANID >> 8) & 0xff
   \   00000F   7A..         MOV     R2,#ZDO_UseExtendedPANID & 0xff
   \   000011   7B..         MOV     R3,#(ZDO_UseExtendedPANID >> 8) & 0xff
   \   000013   12....       LCALL   ??sAddrExtCpy?relay
    191          
    192            // Setup the device - type of device to create.
    193            ZDODeviceSetup();
   \   000016   90....       MOV     DPTR,#zgDeviceLogicalType
   \   000019   E0           MOVX    A,@DPTR
   \   00001A   7004         JNZ     ??ZDO_Init_0
   \   00001C   7900         MOV     R1,#0x0
   \   00001E   8002         SJMP    ??ZDO_Init_1
   \                     ??ZDO_Init_0:
   \   000020   7901         MOV     R1,#0x1
   \                     ??ZDO_Init_1:
   \   000022                ; Setup parameters for call to function APS_ReflectorInit
   \   000022   12....       LCALL   ??APS_ReflectorInit?relay
   \   000025                ; Setup parameters for call to function NLME_DeviceJoiningInit
   \   000025   12....       LCALL   ??NLME_DeviceJoiningInit?relay
    194          }
   \   000028   02....       LJMP    ?Subroutine0 & 0xFFFF

   \                                 In  segment BANKED_CODE, align 1, keep-with-next
   \                     ?Subroutine0:
   \   000000   D083         POP     DPH
   \   000002   D082         POP     DPL
   \   000004   02....       LJMP    ?BRET
    195          
    196          #if defined ( MANAGED_SCAN )
    197          /*********************************************************************
    198           * @fn      ZDOManagedScan_Next()
    199           *
    200           * @brief   Setup a managed scan.
    201           *
    202           * @param   none
    203           *
    204           * @return  none
    205           */
    206          static void ZDOManagedScan_Next( void )
    207          {
    208            // Is it the first time
    209            if ( managedScanNextChannel == 0 && managedScanTimesPerChannel == 0 )
    210            {
    211              // Setup the defaults
    212              managedScanNextChannel  = 1;
    213          
    214              while( managedScanNextChannel && (zgDefaultChannelList & managedScanNextChannel) == 0 )
    215                managedScanNextChannel <<= 1;
    216          
    217              managedScanChannelMask = managedScanNextChannel;
    218              managedScanTimesPerChannel = MANAGEDSCAN_TIMES_PRE_CHANNEL;
    219            }
    220            else
    221            {
    222              // Do we need to go to the next channel
    223              if ( managedScanTimesPerChannel == 0 )
    224              {
    225                // Find next active channel
    226                managedScanChannelMask  = managedScanNextChannel;
    227                managedScanTimesPerChannel = MANAGEDSCAN_TIMES_PRE_CHANNEL;
    228              }
    229              else
    230              {
    231                managedScanTimesPerChannel--;
    232          
    233                if ( managedScanTimesPerChannel == 0 )
    234                {
    235                  managedScanNextChannel  <<= 1;
    236                  while( managedScanNextChannel && (zgDefaultChannelList & managedScanNextChannel) == 0 )
    237                    managedScanNextChannel <<= 1;
    238          
    239                  if ( managedScanNextChannel == 0 )
    240                    zdoDiscCounter  = NUM_DISC_ATTEMPTS + 1; // Stop
    241                }
    242              }
    243            }
    244          }
    245          #endif // MANAGED_SCAN
    246          
    247          /*********************************************************************
    248           * @fn      ZDODeviceSetup()
    249           *
    250           * @brief   Call set functions depending on the type of device compiled.
    251           *
    252           * @param   none
    253           *
    254           * @return  none
    255           */
    256          static void ZDODeviceSetup( void )
    257          {
    258            if ( ZG_BUILD_COORDINATOR_TYPE )
    259            {
    260              NLME_CoordinatorInit();
    261            }
    262          
    263          #if defined ( REFLECTOR )
    264            APS_ReflectorInit( (ZG_DEVICE_COORDINATOR_TYPE) ? APS_REFLECTOR_PUBLIC :  APS_REFLECTOR_PRIVATE );
    265          #endif
    266          
    267            if ( ZG_BUILD_JOINING_TYPE )
    268            {
    269              NLME_DeviceJoiningInit();
    270            }
    271          }
    272          
    273          /*********************************************************************
    274           * @fn          ZDO_StartDevice
    275           *
    276           * @brief       This function starts a device in a network.
    277           *
    278           * @param       logicalType     - Device type to start
    279           *              startMode       - indicates mode of device startup
    280           *              beaconOrder     - indicates time betwen beacons
    281           *              superframeOrder - indicates length of active superframe
    282           *
    283           * @return      none
    284           */

   \                                 In  segment BANKED_CODE, align 1, keep-with-next
    285          void ZDO_StartDevice( byte logicalType, devStartModes_t startMode, byte beaconOrder, byte superframeOrder )
   \                     ZDO_StartDevice:
    286          {
   \   000000   74F7         MOV     A,#-0x9
   \   000002   12....       LCALL   ?BANKED_ENTER_XDATA
   \   000005                ; Saved register size: 9
   \   000005                ; Auto size: 11
   \   000005   74F5         MOV     A,#-0xb
   \   000007   12....       LCALL   ?ALLOC_XSTACK8
   \   00000A   E9           MOV     A,R1
   \   00000B   FE           MOV     R6,A
   \   00000C   EA           MOV     A,R2
   \   00000D   FF           MOV     R7,A
    287            ZStatus_t ret;
    288          #if defined ( ZIGBEE_FREQ_AGILITY )
    289            static uint8 discRetries = 0;
    290          #endif
    291          #if defined ( ZIGBEE_COMMISSIONING )
    292            static uint8 scanCnt = 0;
    293          #endif
    294          
    295            ret = ZUnsupportedMode;
    296          
    297            if ( ZG_BUILD_COORDINATOR_TYPE && logicalType == NODETYPE_COORDINATOR )
    298            {
    299              if ( startMode == MODE_HARD )
    300              {
    301                devState = DEV_COORD_STARTING;
    302                ret = NLME_NetworkFormationRequest( zgConfigPANID, zgApsUseExtendedPANID, zgDefaultChannelList,
    303                                                    zgDefaultStartingScanDuration, beaconOrder,
    304                                                    superframeOrder, false );
    305              }
    306              else if ( startMode == MODE_RESUME )
    307              {
    308                // Just start the coordinator
    309                devState = DEV_COORD_STARTING;
    310                ret = NLME_StartRouterRequest( beaconOrder, beaconOrder, false );
    311              }
    312              else
    313              {
    314          #if defined( LCD_SUPPORTED )
    315                HalLcdWriteScreen( "StartDevice ERR", "MODE unknown" );
    316          #endif
    317              }
    318            }
    319          
    320            if ( ZG_BUILD_JOINING_TYPE && (logicalType == NODETYPE_ROUTER || logicalType == NODETYPE_DEVICE) )
   \   00000E   7401         MOV     A,#0x1
   \   000010   6E           XRL     A,R6
   \   000011   6005         JZ      ??ZDO_StartDevice_0
   \   000013   7402         MOV     A,#0x2
   \   000015   6E           XRL     A,R6
   \   000016   7062         JNZ     ??ZDO_StartDevice_1
    321            {
    322              if ( (startMode == MODE_JOIN) || (startMode == MODE_REJOIN) )
   \                     ??ZDO_StartDevice_0:
   \   000018   EF           MOV     A,R7
   \   000019   6005         JZ      ??ZDO_StartDevice_2
   \   00001B   7403         MOV     A,#0x3
   \   00001D   6F           XRL     A,R7
   \   00001E   7072         JNZ     ??ZDO_StartDevice_3
    323              {
    324                devState = DEV_NWK_DISC;
   \                     ??ZDO_StartDevice_2:
   \   000020   90....       MOV     DPTR,#devState
   \   000023   7402         MOV     A,#0x2
   \   000025   F0           MOVX    @DPTR,A
    325          
    326            #if defined( MANAGED_SCAN )
    327                ZDOManagedScan_Next();
    328                ret = NLME_NetworkDiscoveryRequest( managedScanChannelMask, BEACON_ORDER_15_MSEC );
    329            #else
    330                ret = NLME_NetworkDiscoveryRequest( zgDefaultChannelList, zgDefaultStartingScanDuration );
   \   000026                ; Setup parameters for call to function NLME_NetworkDiscoveryRequest
   \   000026   90....       MOV     DPTR,#zgDefaultStartingScanDuration
   \   000029   E0           MOVX    A,@DPTR
   \   00002A   F9           MOV     R1,A
   \   00002B   90....       MOV     DPTR,#zgDefaultChannelList
   \   00002E   12....       LCALL   ?XLOAD_R2345
   \   000031   12....       LCALL   ??NLME_NetworkDiscoveryRequest?relay
   \   000034   E9           MOV     A,R1
   \   000035   F8           MOV     R0,A
    331              #if defined ( ZIGBEE_FREQ_AGILITY )
    332                if ( !( ZDO_Config_Node_Descriptor.CapabilityFlags & CAPINFO_RCVR_ON_IDLE ) &&
    333                      ( ret == ZSuccess ) && ( ++discRetries == 4 ) )
   \   000036   90....       MOV     DPTR,#ZDO_Config_Node_Descriptor + 2
   \   000039   E0           MOVX    A,@DPTR
   \   00003A   A2E3         MOV     C,0xE0 /* A   */.3
   \   00003C   4019         JC      ??ZDO_StartDevice_4
   \   00003E   E8           MOV     A,R0
   \   00003F   7016         JNZ     ??ZDO_StartDevice_4
   \   000041   90....       MOV     DPTR,#??discRetries
   \   000044   E0           MOVX    A,@DPTR
   \   000045   04           INC     A
   \   000046   F0           MOVX    @DPTR,A
   \   000047   6404         XRL     A,#0x4
   \   000049   700C         JNZ     ??ZDO_StartDevice_4
    334                {
    335                  // For devices with RxOnWhenIdle equals to FALSE, any network channel
    336                  // change will not be recieved. On these devices or routers that have
    337                  // lost the network, an active scan shall be conducted on the Default
    338                  // Channel list using the extended PANID to find the network. If the
    339                  // extended PANID isn't found using the Default Channel list, an scan
    340                  // should be completed using all channels.
    341                  zgDefaultChannelList = MAX_CHANNELS_24GHZ;
   \   00004B   90....       MOV     DPTR,#__Constant_7fff800
   \   00004E   12....       LCALL   ?XLOAD_R2345
   \   000051   90....       MOV     DPTR,#zgDefaultChannelList
   \   000054   12....       LCALL   ?XSTORE_R2345
    342                }
    343              #endif // ZIGBEE_FREQ_AGILITY
    344              #if defined ( ZIGBEE_COMMISSIONING )
    345                if (startMode == MODE_REJOIN && scanCnt++ >= 5 )
   \                     ??ZDO_StartDevice_4:
   \   000057   7403         MOV     A,#0x3
   \   000059   6F           XRL     A,R7
   \   00005A   701B         JNZ     ??ZDO_StartDevice_5
   \   00005C   90....       MOV     DPTR,#??scanCnt
   \   00005F   E0           MOVX    A,@DPTR
   \   000060   F9           MOV     R1,A
   \   000061   7401         MOV     A,#0x1
   \   000063   29           ADD     A,R1
   \   000064   F0           MOVX    @DPTR,A
   \   000065   E9           MOV     A,R1
   \   000066   C3           CLR     C
   \   000067   9405         SUBB    A,#0x5
   \   000069   400C         JC      ??ZDO_StartDevice_5
    346                {
    347                  // When ApsUseExtendedPanID is commissioned to a non zero value via
    348                  // application specific means, the device shall conduct an active scan
    349                  // on the Default Channel list and join the PAN with the same
    350                  // ExtendedPanID. If the PAN is not found, an scan should be completed
    351                  // on all channels.
    352                  // When devices rejoin the network and the PAN is not found from
    353                  zgDefaultChannelList = MAX_CHANNELS_24GHZ;
   \   00006B   90....       MOV     DPTR,#__Constant_7fff800
   \   00006E   12....       LCALL   ?XLOAD_R2345
   \   000071   90....       MOV     DPTR,#zgDefaultChannelList
   \   000074   12....       LCALL   ?XSTORE_R2345
    354                }
    355              #endif // ZIGBEE_COMMISSIONING
    356            #endif
    357              }
    358              else if ( startMode == MODE_RESUME )
    359              {
    360                if ( logicalType == NODETYPE_ROUTER )
    361                {
    362                  ZMacScanCnf_t scanCnf;
    363                  devState = DEV_NWK_ORPHAN;
    364          
    365                  /* if router and nvram is available, fake successful orphan scan */
    366                  scanCnf.hdr.Status = ZSUCCESS;
    367                  scanCnf.ScanType = ZMAC_ORPHAN_SCAN;
    368                  scanCnf.UnscannedChannels = 0;
    369                  scanCnf.ResultListSize = 0;
    370                  nwk_ScanJoiningOrphan(&scanCnf);
    371          
    372                  ret = ZSuccess;
    373                }
    374                else
    375                {
    376                  devState = DEV_NWK_ORPHAN;
    377                  ret = NLME_OrphanJoinRequest( zgDefaultChannelList,
    378                                                zgDefaultStartingScanDuration );
    379                }
    380              }
    381              else
    382              {
    383          #if defined( LCD_SUPPORTED )
    384                HalLcdWriteScreen( "StartDevice ERR", "MODE unknown" );
    385          #endif
    386              }
    387            }
    388          
    389            if ( ret != ZSuccess )
   \                     ??ZDO_StartDevice_5:
   \   000077   E8           MOV     A,R0
   \   000078   6010         JZ      ??ZDO_StartDevice_6
    390              osal_start_timerEx(ZDAppTaskID, ZDO_NETWORK_INIT, NWK_RETRY_DELAY );
   \                     ??ZDO_StartDevice_1:
   \   00007A                ; Setup parameters for call to function osal_start_timerEx
   \   00007A   7CE8         MOV     R4,#-0x18
   \   00007C   7D03         MOV     R5,#0x3
   \   00007E   7A01         MOV     R2,#0x1
   \   000080   7B00         MOV     R3,#0x0
   \   000082   90....       MOV     DPTR,#ZDAppTaskID
   \   000085   E0           MOVX    A,@DPTR
   \   000086   F9           MOV     R1,A
   \   000087   12....       LCALL   ??osal_start_timerEx?relay
    391          }
   \                     ??ZDO_StartDevice_6:
   \   00008A   740B         MOV     A,#0xb
   \   00008C   12....       LCALL   ?DEALLOC_XSTACK8
   \   00008F   02....       LJMP    ?Subroutine1 & 0xFFFF
   \                     ??ZDO_StartDevice_3:
   \   000092   7401         MOV     A,#0x1
   \   000094   6F           XRL     A,R7
   \   000095   7053         JNZ     ??ZDO_StartDevice_7
   \   000097   7401         MOV     A,#0x1
   \   000099   6E           XRL     A,R6
   \   00009A   90....       MOV     DPTR,#devState
   \   00009D   7036         JNZ     ??ZDO_StartDevice_8
   \   00009F   740A         MOV     A,#0xa
   \   0000A1   F0           MOVX    @DPTR,A
   \   0000A2   7401         MOV     A,#0x1
   \   0000A4   12....       LCALL   ?XSTACK_DISP0_8
   \   0000A7   E4           CLR     A
   \   0000A8   F0           MOVX    @DPTR,A
   \   0000A9   7402         MOV     A,#0x2
   \   0000AB   12....       LCALL   ?XSTACK_DISP0_8
   \   0000AE   7403         MOV     A,#0x3
   \   0000B0   F0           MOVX    @DPTR,A
   \   0000B1   90....       MOV     DPTR,#__Constant_0
   \   0000B4   12....       LCALL   ?XLOAD_R2345
   \   0000B7   7404         MOV     A,#0x4
   \   0000B9   12....       LCALL   ?XSTACK_DISP0_8
   \   0000BC   12....       LCALL   ?XSTORE_R2345
   \   0000BF   7408         MOV     A,#0x8
   \   0000C1   12....       LCALL   ?XSTACK_DISP0_8
   \   0000C4   E4           CLR     A
   \   0000C5   F0           MOVX    @DPTR,A
   \   0000C6                ; Setup parameters for call to function nwk_ScanJoiningOrphan
   \   0000C6   85..82       MOV     DPL,?XSP + 0
   \   0000C9   85..83       MOV     DPH,?XSP + 1
   \   0000CC   AA82         MOV     R2,DPL
   \   0000CE   AB83         MOV     R3,DPH
   \   0000D0   12....       LCALL   ??nwk_ScanJoiningOrphan?relay
   \   0000D3   80B5         SJMP    ??ZDO_StartDevice_6
   \                     ??ZDO_StartDevice_8:
   \   0000D5   740A         MOV     A,#0xa
   \   0000D7   F0           MOVX    @DPTR,A
   \   0000D8                ; Setup parameters for call to function NLME_OrphanJoinRequest
   \   0000D8   90....       MOV     DPTR,#zgDefaultStartingScanDuration
   \   0000DB   E0           MOVX    A,@DPTR
   \   0000DC   F9           MOV     R1,A
   \   0000DD   90....       MOV     DPTR,#zgDefaultChannelList
   \   0000E0   12....       LCALL   ?XLOAD_R2345
   \   0000E3   12....       LCALL   ??NLME_OrphanJoinRequest?relay
   \   0000E6   E9           MOV     A,R1
   \   0000E7   F8           MOV     R0,A
   \   0000E8   808D         SJMP    ??ZDO_StartDevice_5
   \                     ??ZDO_StartDevice_7:
   \   0000EA                ; Setup parameters for call to function HalLcdWriteScreen
   \   0000EA   7C..         MOV     R4,#`?<Constant "MODE unknown">` & 0xff
   \   0000EC   7D..         MOV     R5,#(`?<Constant "MODE unknown">` >> 8) & 0xff
   \   0000EE   7A..         MOV     R2,#`?<Constant "StartDevice ERR">` & 0xff
   \   0000F0   7B..         MOV     R3,#(`?<Constant "StartDevice ERR">` >> 8) & 0xff
   \   0000F2   12....       LCALL   ??HalLcdWriteScreen?relay
   \   0000F5   8083         SJMP    ??ZDO_StartDevice_1

   \                                 In  segment BANKED_CODE, align 1, keep-with-next
   \                     ?Subroutine1:
   \   000000   7F01         MOV     R7,#0x1
   \   000002   02....       LJMP    ?BANKED_LEAVE_XDATA

   \                                 In  segment XDATA_Z, align 1, keep-with-next
   \                     ??discRetries:
   \   000000                DS 1
   \   000001                REQUIRE __INIT_XDATA_Z

   \                                 In  segment XDATA_Z, align 1, keep-with-next
   \                     ??scanCnt:
   \   000000                DS 1
   \   000001                REQUIRE __INIT_XDATA_Z
    392          
    393          /**************************************************************************************************
    394           * @fn          zdoSendStateChangeMsg
    395           *
    396           * @brief       Helper function for ZDO_UpdateNwkStatus.
    397           *
    398           * input parameters
    399           *
    400           * @param       taskId - The OSAL task identifier to which to send the ZDO_STATE_CHANGE_EVT.
    401           * @param       state - The current device state.
    402           *
    403           * output parameters
    404           *
    405           * None.
    406           *
    407           * @return      None.
    408           **************************************************************************************************
    409           */
    410          static void zdoSendStateChangeMsg(uint8 state, uint8 taskId)
    411          {
    412            osal_event_hdr_t *pMsg = (osal_event_hdr_t *)osal_msg_find(taskId, ZDO_STATE_CHANGE);
    413          
    414            if (NULL == pMsg)
    415            {
    416              if (NULL == (pMsg = (osal_event_hdr_t *)osal_msg_allocate(sizeof(osal_event_hdr_t))))
    417              {
    418                // Upon failure to notify any EndPoint of the state change, re-set the ZDO event to
    419                // try again later when more Heap may be available.
    420                osal_set_event(ZDAppTaskID, ZDO_STATE_CHANGE_EVT);
    421              }
    422              else
    423              {
    424                pMsg->event = ZDO_STATE_CHANGE;
    425                pMsg->status = state;
    426          
    427                (void)osal_msg_send(taskId, (uint8 *)pMsg);
    428              }
    429            }
    430            else
    431            {
    432              // Modify in place the status of an existing ZDO_STATE_CHANGE message to the EndPoint.
    433              pMsg->status = state;
    434            }
    435          }
    436          
    437          /**************************************************************************************************
    438           * @fn          ZDO_UpdateNwkStatus
    439           *
    440           * @brief       This function sends a ZDO_STATE_CHANGE message to the task of every EndPoint
    441           *              registered with AF (except, of course, the ZDO_EP). Even if a single task has more
    442           *              than one registered EndPoint, it will only receive one notification per state
    443           *              change. Although the device may go through a sequence of state changes, the
    444           *              Application task may only receive notification of the final, steady-state state
    445           *              because it has the lowest priority and never even runs to receive the intermediate
    446           *              state change notifications.
    447           *
    448           * input parameters
    449           *
    450           * @param       state - The current device state.
    451           *
    452           * output parameters
    453           *
    454           * None.
    455           *
    456           * @return      None.
    457           **************************************************************************************************
    458           */

   \                                 In  segment BANKED_CODE, align 1, keep-with-next
    459          void ZDO_UpdateNwkStatus(devStates_t state)
   \                     ZDO_UpdateNwkStatus:
    460          {
   \   000000   74F4         MOV     A,#-0xc
   \   000002   12....       LCALL   ?BANKED_ENTER_XDATA
   \   000005                ; Saved register size: 12
   \   000005                ; Auto size: 0
   \   000005   89..         MOV     ?V0 + 1,R1
    461            epList_t *pItem = epList;
   \   000007   90....       MOV     DPTR,#epList
   \   00000A   E0           MOVX    A,@DPTR
   \   00000B   FE           MOV     R6,A
   \   00000C   A3           INC     DPTR
   \   00000D   E0           MOVX    A,@DPTR
   \   00000E   FF           MOV     R7,A
    462          
    463            while (pItem != NULL)
   \   00000F   EE           MOV     A,R6
   \   000010   4F           ORL     A,R7
   \   000011   606B         JZ      ??ZDO_UpdateNwkStatus_0
    464            {
    465              if (pItem->epDesc->endPoint != ZDO_EP)
   \                     ??ZDO_UpdateNwkStatus_1:
   \   000013   8E82         MOV     DPL,R6
   \   000015   8F83         MOV     DPH,R7
   \   000017   E0           MOVX    A,@DPTR
   \   000018   F8           MOV     R0,A
   \   000019   A3           INC     DPTR
   \   00001A   E0           MOVX    A,@DPTR
   \   00001B   F9           MOV     R1,A
   \   00001C   8882         MOV     DPL,R0
   \   00001E   8983         MOV     DPH,R1
   \   000020   E0           MOVX    A,@DPTR
   \   000021   6049         JZ      ??ZDO_UpdateNwkStatus_2
    466              {
    467                zdoSendStateChangeMsg(state, *(pItem->epDesc->task_id));
   \   000023   A3           INC     DPTR
   \   000024   E0           MOVX    A,@DPTR
   \   000025   F8           MOV     R0,A
   \   000026   A3           INC     DPTR
   \   000027   E0           MOVX    A,@DPTR
   \   000028   F583         MOV     DPH,A
   \   00002A   8882         MOV     DPL,R0
   \   00002C   E0           MOVX    A,@DPTR
   \   00002D   F5..         MOV     ?V0 + 0,A
   \   00002F                ; Setup parameters for call to function osal_msg_find
   \   00002F   7AD1         MOV     R2,#-0x2f
   \   000031   F9           MOV     R1,A
   \   000032   12....       LCALL   ??osal_msg_find?relay
   \   000035   EA           MOV     A,R2
   \   000036   4B           ORL     A,R3
   \   000037   702B         JNZ     ??ZDO_UpdateNwkStatus_3
   \   000039                ; Setup parameters for call to function osal_msg_allocate
   \   000039   7A02         MOV     R2,#0x2
   \   00003B   7B00         MOV     R3,#0x0
   \   00003D   12....       LCALL   ??osal_msg_allocate?relay
   \   000040   EA           MOV     A,R2
   \   000041   4B           ORL     A,R3
   \   000042   700E         JNZ     ??ZDO_UpdateNwkStatus_4
   \   000044                ; Setup parameters for call to function osal_set_event
   \   000044   7A10         MOV     R2,#0x10
   \   000046   7B00         MOV     R3,#0x0
   \   000048   90....       MOV     DPTR,#ZDAppTaskID
   \   00004B   E0           MOVX    A,@DPTR
   \   00004C   F9           MOV     R1,A
   \   00004D   12....       LCALL   ??osal_set_event?relay
   \   000050   801A         SJMP    ??ZDO_UpdateNwkStatus_2
   \                     ??ZDO_UpdateNwkStatus_4:
   \   000052   8A82         MOV     DPL,R2
   \   000054   8B83         MOV     DPH,R3
   \   000056   74D1         MOV     A,#-0x2f
   \   000058   F0           MOVX    @DPTR,A
   \   000059   A3           INC     DPTR
   \   00005A   E5..         MOV     A,?V0 + 1
   \   00005C   F0           MOVX    @DPTR,A
   \   00005D                ; Setup parameters for call to function osal_msg_send
   \   00005D   A9..         MOV     R1,?V0 + 0
   \   00005F   12....       LCALL   ??osal_msg_send?relay
   \   000062   8008         SJMP    ??ZDO_UpdateNwkStatus_2
   \                     ??ZDO_UpdateNwkStatus_3:
   \   000064   8A82         MOV     DPL,R2
   \   000066   8B83         MOV     DPH,R3
   \   000068   A3           INC     DPTR
   \   000069   E5..         MOV     A,?V0 + 1
   \   00006B   F0           MOVX    @DPTR,A
    468              }
    469          
    470              pItem = pItem->nextDesc;
   \                     ??ZDO_UpdateNwkStatus_2:
   \   00006C   8E82         MOV     DPL,R6
   \   00006E   8F83         MOV     DPH,R7
   \   000070   A3           INC     DPTR
   \   000071   A3           INC     DPTR
   \   000072   A3           INC     DPTR
   \   000073   A3           INC     DPTR
   \   000074   A3           INC     DPTR
   \   000075   E0           MOVX    A,@DPTR
   \   000076   FE           MOV     R6,A
   \   000077   A3           INC     DPTR
   \   000078   E0           MOVX    A,@DPTR
   \   000079   FF           MOV     R7,A
   \   00007A   EE           MOV     A,R6
   \   00007B   4F           ORL     A,R7
   \   00007C   7095         JNZ     ??ZDO_UpdateNwkStatus_1
    471            }
    472          #if defined MT_ZDO_CB_FUNC
    473            zdoSendStateChangeMsg(state, MT_TaskID);
    474          #endif
    475          
    476            ZDAppNwkAddr.addr.shortAddr = NLME_GetShortAddr();
   \                     ??ZDO_UpdateNwkStatus_0:
   \   00007E                ; Setup parameters for call to function NLME_GetShortAddr
   \   00007E   12....       LCALL   ??NLME_GetShortAddr?relay
   \   000081   90....       MOV     DPTR,#ZDAppNwkAddr
   \   000084   EA           MOV     A,R2
   \   000085   F0           MOVX    @DPTR,A
   \   000086   A3           INC     DPTR
   \   000087   EB           MOV     A,R3
   \   000088   F0           MOVX    @DPTR,A
    477            (void)NLME_GetExtAddr();  // Load the saveExtAddr pointer.
   \   000089                ; Setup parameters for call to function NLME_GetExtAddr
   \   000089   12....       LCALL   ??NLME_GetExtAddr?relay
    478          }
   \   00008C   02....       LJMP    ??Subroutine15_0 & 0xFFFF

   \                                 In  segment BANKED_CODE, align 1, keep-with-next
   \                     ??Subroutine15_0:
   \   000000   7F04         MOV     R7,#0x4
   \   000002   02....       LJMP    ?BANKED_LEAVE_XDATA
    479          
    480          #if defined ( REFLECTOR )
    481          /*********************************************************************
    482           * @fn          ZDO_RemoveEndDeviceBind
    483           *
    484           * @brief       Remove the end device bind
    485           *
    486           * @param  none
    487           *
    488           * @return      none
    489           */
    490          static void ZDO_RemoveEndDeviceBind( void )
    491          {
    492            if ( ZDO_EDBind != NULL )
    493            {
    494              // Free the RAM
    495              if ( ZDO_EDBind->inClusters != NULL )
    496                osal_mem_free( ZDO_EDBind->inClusters );
    497              if ( ZDO_EDBind->outClusters != NULL )
    498                osal_mem_free( ZDO_EDBind->outClusters );
    499              osal_mem_free( ZDO_EDBind );
    500              ZDO_EDBind = NULL;
    501            }
    502          }
    503          #endif // REFLECTOR
    504          
    505          #if defined ( REFLECTOR )
    506          /*********************************************************************
    507           * @fn          ZDO_RemoveEndDeviceBind
    508           *
    509           * @brief       Remove the end device bind
    510           *
    511           * @param  none
    512           *
    513           * @return      none
    514           */
    515          static void ZDO_SendEDBindRsp( byte TransSeq, zAddrType_t *dstAddr, byte Status, byte secUse )
    516          {
    517            ZDP_EndDeviceBindRsp( TransSeq, dstAddr, Status, secUse );
    518          
    519          #if defined( LCD_SUPPORTED )
    520            HalLcdWriteString( "End Device Bind", HAL_LCD_LINE_1 );
    521            if ( Status == ZDP_SUCCESS )
    522              HalLcdWriteString( "Success Sent", HAL_LCD_LINE_2 );
    523            else
    524              HalLcdWriteString( "Timeout", HAL_LCD_LINE_2 );
    525          #endif
    526          
    527          }
    528          #endif // REFLECTOR
    529          
    530          /*********************************************************************
    531           * @fn          ZDO_CompareClusterLists
    532           *
    533           * @brief       Compare one list to another list
    534           *
    535           * @param       numList1 - number of items in list 1
    536           * @param       list1 - first list of cluster IDs
    537           * @param       numList2 - number of items in list 2
    538           * @param       list2 - second list of cluster IDs
    539           * @param       pMatches - buffer to put matches
    540           *
    541           * @return      number of matches
    542           */
    543          static byte ZDO_CompareClusterLists( byte numList1, uint16 *list1,
    544                                    byte numList2, uint16 *list2, uint16 *pMatches )
    545          {
    546            byte x, y;
    547            uint16 z;
    548            byte numMatches = 0;
    549          
    550            // Check the first in against the seconds out
    551            for ( x = 0; x < numList1; x++ )
    552            {
    553              for ( y = 0; y < numList2; y++ )
    554              {
    555                z = list2[y];
    556                if ( list1[x] == z )
    557                  pMatches[numMatches++] = z;
    558              }
    559            }
    560          
    561            return ( numMatches );
    562          }
    563          
    564          /*********************************************************************
    565           * Utility functions
    566           */
    567          
    568          /*********************************************************************
    569           * @fn          ZDO_CompareByteLists
    570           *
    571           * @brief       Compares two lists for matches.
    572           *
    573           * @param       ACnt  - number of entries in list A
    574           * @param       AList  - List A
    575           * @param       BCnt  - number of entries in list B
    576           * @param       BList  - List B
    577           *
    578           * @return      true if a match is found
    579           */

   \                                 In  segment BANKED_CODE, align 1, keep-with-next
    580          byte ZDO_AnyClusterMatches( byte ACnt, uint16 *AList, byte BCnt, uint16 *BList )
   \                     ZDO_AnyClusterMatches:
    581          {
   \   000000   74F3         MOV     A,#-0xd
   \   000002   12....       LCALL   ?BANKED_ENTER_XDATA
   \   000005                ; Saved register size: 13
   \   000005                ; Auto size: 0
   \   000005   E9           MOV     A,R1
   \   000006   FE           MOV     R6,A
   \   000007   EA           MOV     A,R2
   \   000008   F8           MOV     R0,A
   \   000009   EB           MOV     A,R3
   \   00000A   F9           MOV     R1,A
   \   00000B   EC           MOV     A,R4
   \   00000C   FF           MOV     R7,A
   \   00000D   740D         MOV     A,#0xd
   \   00000F   12....       LCALL   ?XSTACK_DISP0_8
   \   000012   E0           MOVX    A,@DPTR
   \   000013   FA           MOV     R2,A
   \   000014   A3           INC     DPTR
   \   000015   E0           MOVX    A,@DPTR
   \   000016   FB           MOV     R3,A
    582            byte x, y;
    583          
    584            for ( x = 0; x < ACnt; x++ )
   \   000017   75..00       MOV     ?V0 + 2,#0x0
   \   00001A   E8           MOV     A,R0
   \   00001B   FC           MOV     R4,A
   \   00001C   E9           MOV     A,R1
   \   00001D   800A         SJMP    ??ZDO_AnyClusterMatches_0
   \                     ??ZDO_AnyClusterMatches_1:
   \   00001F   05..         INC     ?V0 + 2
   \   000021   EC           MOV     A,R4
   \   000022   2402         ADD     A,#0x2
   \   000024   0C           INC     R4
   \   000025   0C           INC     R4
   \   000026   ED           MOV     A,R5
   \   000027   3400         ADDC    A,#0x0
   \                     ??ZDO_AnyClusterMatches_0:
   \   000029   FD           MOV     R5,A
   \   00002A   E5..         MOV     A,?V0 + 2
   \   00002C   C3           CLR     C
   \   00002D   9E           SUBB    A,R6
   \   00002E   5037         JNC     ??ZDO_AnyClusterMatches_2
    585            {
    586              for ( y = 0; y < BCnt; y++ )
   \   000030   75..00       MOV     ?V0 + 3,#0x0
   \   000033   EA           MOV     A,R2
   \   000034   F8           MOV     R0,A
   \   000035   EB           MOV     A,R3
   \   000036   800A         SJMP    ??ZDO_AnyClusterMatches_3
   \                     ??ZDO_AnyClusterMatches_4:
   \   000038   05..         INC     ?V0 + 3
   \   00003A   E8           MOV     A,R0
   \   00003B   2402         ADD     A,#0x2
   \   00003D   08           INC     R0
   \   00003E   08           INC     R0
   \   00003F   E9           MOV     A,R1
   \   000040   3400         ADDC    A,#0x0
   \                     ??ZDO_AnyClusterMatches_3:
   \   000042   F9           MOV     R1,A
   \   000043   E5..         MOV     A,?V0 + 3
   \   000045   C3           CLR     C
   \   000046   9F           SUBB    A,R7
   \   000047   50D6         JNC     ??ZDO_AnyClusterMatches_1
    587              {
    588                if ( AList[x] == BList[y] )
   \   000049   8C82         MOV     DPL,R4
   \   00004B   8D83         MOV     DPH,R5
   \   00004D   E0           MOVX    A,@DPTR
   \   00004E   F5..         MOV     ?V0 + 0,A
   \   000050   A3           INC     DPTR
   \   000051   E0           MOVX    A,@DPTR
   \   000052   F5..         MOV     ?V0 + 1,A
   \   000054   8882         MOV     DPL,R0
   \   000056   8983         MOV     DPH,R1
   \   000058   E0           MOVX    A,@DPTR
   \   000059   65..         XRL     A,?V0 + 0
   \   00005B   7004         JNZ     ??ZDO_AnyClusterMatches_5
   \   00005D   A3           INC     DPTR
   \   00005E   E0           MOVX    A,@DPTR
   \   00005F   65..         XRL     A,?V0 + 1
   \                     ??ZDO_AnyClusterMatches_5:
   \   000061   70D5         JNZ     ??ZDO_AnyClusterMatches_4
    589                {
    590                  return true;
   \   000063   7901         MOV     R1,#0x1
   \   000065   8002         SJMP    ??ZDO_AnyClusterMatches_6
    591                }
    592              }
    593            }
    594          
    595            return false;
   \                     ??ZDO_AnyClusterMatches_2:
   \   000067   7900         MOV     R1,#0x0
   \                     ??ZDO_AnyClusterMatches_6:
   \   000069   7F05         MOV     R7,#0x5
   \   00006B   02....       LJMP    ?BANKED_LEAVE_XDATA
    596          }
    597          
    598          /*********************************************************************
    599           * Callback functions from ZDProfile
    600           */
    601          
    602          /*********************************************************************
    603           * @fn          ZDO_ProcessNodeDescReq
    604           *
    605           * @brief       This function processes and responds to the
    606           *              Node_Desc_req message.
    607           *
    608           * @param       inMsg - incoming message
    609           *
    610           * @return      none
    611           */

   \                                 In  segment BANKED_CODE, align 1, keep-with-next
    612          void ZDO_ProcessNodeDescReq( zdoIncomingMsg_t *inMsg )
   \                     ZDO_ProcessNodeDescReq:
    613          {
   \   000000   74F6         MOV     A,#-0xa
   \   000002   12....       LCALL   ?BANKED_ENTER_XDATA
   \   000005                ; Saved register size: 10
   \   000005                ; Auto size: 0
   \   000005   EA           MOV     A,R2
   \   000006   FE           MOV     R6,A
   \   000007   EB           MOV     A,R3
   \   000008   FF           MOV     R7,A
    614            uint16 aoi = BUILD_UINT16( inMsg->asdu[0], inMsg->asdu[1] );
   \   000009   EE           MOV     A,R6
   \   00000A   2413         ADD     A,#0x13
   \   00000C   F582         MOV     DPL,A
   \   00000E   EF           MOV     A,R7
   \   00000F   3400         ADDC    A,#0x0
   \   000011   F583         MOV     DPH,A
   \   000013   E0           MOVX    A,@DPTR
   \   000014   F8           MOV     R0,A
   \   000015   A3           INC     DPTR
   \   000016   E0           MOVX    A,@DPTR
   \   000017   F9           MOV     R1,A
   \   000018   8882         MOV     DPL,R0
   \   00001A   8983         MOV     DPH,R1
   \   00001C   E0           MOVX    A,@DPTR
   \   00001D   FA           MOV     R2,A
   \   00001E   A3           INC     DPTR
   \   00001F   E0           MOVX    A,@DPTR
   \   000020   F9           MOV     R1,A
   \   000021   EA           MOV     A,R2
   \   000022   2400         ADD     A,#0x0
   \   000024   FC           MOV     R4,A
   \   000025   E4           CLR     A
   \   000026   39           ADDC    A,R1
   \   000027   FD           MOV     R5,A
    615            NodeDescriptorFormat_t *desc = NULL;
    616          
    617            if ( aoi == ZDAppNwkAddr.addr.shortAddr )
   \   000028   90....       MOV     DPTR,#ZDAppNwkAddr
   \   00002B   E0           MOVX    A,@DPTR
   \   00002C   6C           XRL     A,R4
   \   00002D   7003         JNZ     ??ZDO_ProcessNodeDescReq_0
   \   00002F   A3           INC     DPTR
   \   000030   E0           MOVX    A,@DPTR
   \   000031   6D           XRL     A,R5
   \                     ??ZDO_ProcessNodeDescReq_0:
   \   000032   7017         JNZ     ??ZDO_ProcessNodeDescReq_1
    618            {
    619              desc = &ZDO_Config_Node_Descriptor;
    620            }
    621          
    622            if ( desc != NULL )
    623            {
    624              ZDP_NodeDescMsg( inMsg, aoi, desc );
   \   000034                ; Setup parameters for call to function ZDP_NodeDescMsg
   \   000034   75....       MOV     ?V0 + 0,#ZDO_Config_Node_Descriptor & 0xff
   \   000037   75....       MOV     ?V0 + 1,#(ZDO_Config_Node_Descriptor >> 8) & 0xff
   \   00003A   78..         MOV     R0,#?V0 + 0
   \   00003C   12....       LCALL   ?PUSH_XSTACK_I_TWO
   \   00003F   EE           MOV     A,R6
   \   000040   FA           MOV     R2,A
   \   000041   12....       LCALL   ??ZDP_NodeDescMsg?relay
   \   000044   7402         MOV     A,#0x2
   \   000046   12....       LCALL   ?DEALLOC_XSTACK8
   \   000049   803E         SJMP    ??ZDO_ProcessNodeDescReq_2
    625            }
    626            else
    627            {
    628              ZDP_GenericRsp( inMsg->TransSeq, &(inMsg->srcAddr),
    629                        ZDP_INVALID_REQTYPE, aoi, Node_Desc_rsp, inMsg->SecurityUse );
   \                     ??ZDO_ProcessNodeDescReq_1:
   \   00004B                ; Setup parameters for call to function ZDP_GenericRsp
   \   00004B   75..02       MOV     ?V0 + 0,#0x2
   \   00004E   75..80       MOV     ?V0 + 1,#-0x80
   \   000051   78..         MOV     R0,#?V0 + 0
   \   000053   12....       LCALL   ?PUSH_XSTACK_I_TWO
   \   000056   8C..         MOV     ?V0 + 0,R4
   \   000058   8D..         MOV     ?V0 + 1,R5
   \   00005A   78..         MOV     R0,#?V0 + 0
   \   00005C   12....       LCALL   ?PUSH_XSTACK_I_TWO
   \   00005F   EE           MOV     A,R6
   \   000060   240E         ADD     A,#0xe
   \   000062   F582         MOV     DPL,A
   \   000064   EF           MOV     A,R7
   \   000065   3400         ADDC    A,#0x0
   \   000067   F583         MOV     DPH,A
   \   000069   E0           MOVX    A,@DPTR
   \   00006A   FD           MOV     R5,A
   \   00006B   7C80         MOV     R4,#-0x80
   \   00006D   EE           MOV     A,R6
   \   00006E   2402         ADD     A,#0x2
   \   000070   FA           MOV     R2,A
   \   000071   EF           MOV     A,R7
   \   000072   3400         ADDC    A,#0x0
   \   000074   FB           MOV     R3,A
   \   000075   EE           MOV     A,R6
   \   000076   240F         ADD     A,#0xf
   \   000078   F582         MOV     DPL,A
   \   00007A   EF           MOV     A,R7
   \   00007B   3400         ADDC    A,#0x0
   \   00007D   F583         MOV     DPH,A
   \   00007F   E0           MOVX    A,@DPTR
   \   000080   F9           MOV     R1,A
   \   000081   12....       LCALL   ??ZDP_GenericRsp?relay
   \   000084   7404         MOV     A,#0x4
   \   000086   12....       LCALL   ?DEALLOC_XSTACK8
    630            }
    631          }
   \                     ??ZDO_ProcessNodeDescReq_2:
   \   000089   80..         SJMP    ??Subroutine12_0

   \                                 In  segment BANKED_CODE, align 1, keep-with-next
   \                     ??Subroutine12_0:
   \   000000   7F02         MOV     R7,#0x2
   \   000002   02....       LJMP    ?BANKED_LEAVE_XDATA
    632          
    633          /*********************************************************************
    634           * @fn          ZDO_ProcessPowerDescReq
    635           *
    636           * @brief       This function processes and responds to the
    637           *              Node_Power_req message.
    638           *
    639           * @param       inMsg  - incoming request
    640           *
    641           * @return      none
    642           */

   \                                 In  segment BANKED_CODE, align 1, keep-with-next
    643          void ZDO_ProcessPowerDescReq( zdoIncomingMsg_t *inMsg )
   \                     ZDO_ProcessPowerDescReq:
    644          {
   \   000000   74F6         MOV     A,#-0xa
   \   000002   12....       LCALL   ?BANKED_ENTER_XDATA
   \   000005                ; Saved register size: 10
   \   000005                ; Auto size: 0
   \   000005   EA           MOV     A,R2
   \   000006   FE           MOV     R6,A
   \   000007   EB           MOV     A,R3
   \   000008   FF           MOV     R7,A
    645            uint16 aoi = BUILD_UINT16( inMsg->asdu[0], inMsg->asdu[1] );
   \   000009   EE           MOV     A,R6
   \   00000A   2413         ADD     A,#0x13
   \   00000C   F582         MOV     DPL,A
   \   00000E   EF           MOV     A,R7
   \   00000F   3400         ADDC    A,#0x0
   \   000011   F583         MOV     DPH,A
   \   000013   E0           MOVX    A,@DPTR
   \   000014   F8           MOV     R0,A
   \   000015   A3           INC     DPTR
   \   000016   E0           MOVX    A,@DPTR
   \   000017   F9           MOV     R1,A
   \   000018   8882         MOV     DPL,R0
   \   00001A   8983         MOV     DPH,R1
   \   00001C   E0           MOVX    A,@DPTR
   \   00001D   FA           MOV     R2,A
   \   00001E   A3           INC     DPTR
   \   00001F   E0           MOVX    A,@DPTR
   \   000020   F9           MOV     R1,A
   \   000021   EA           MOV     A,R2
   \   000022   2400         ADD     A,#0x0
   \   000024   FC           MOV     R4,A
   \   000025   E4           CLR     A
   \   000026   39           ADDC    A,R1
   \   000027   FD           MOV     R5,A
    646            NodePowerDescriptorFormat_t *desc = NULL;
    647          
    648            if ( aoi == ZDAppNwkAddr.addr.shortAddr )
   \   000028   90....       MOV     DPTR,#ZDAppNwkAddr
   \   00002B   E0           MOVX    A,@DPTR
   \   00002C   6C           XRL     A,R4
   \   00002D   7003         JNZ     ??ZDO_ProcessPowerDescReq_0
   \   00002F   A3           INC     DPTR
   \   000030   E0           MOVX    A,@DPTR
   \   000031   6D           XRL     A,R5
   \                     ??ZDO_ProcessPowerDescReq_0:
   \   000032   7017         JNZ     ??ZDO_ProcessPowerDescReq_1
    649            {
    650              desc = &ZDO_Config_Power_Descriptor;
    651            }
    652          
    653            if ( desc != NULL )
    654            {
    655              ZDP_PowerDescMsg( inMsg, aoi, desc );
   \   000034                ; Setup parameters for call to function ZDP_PowerDescMsg
   \   000034   75....       MOV     ?V0 + 0,#ZDO_Config_Power_Descriptor & 0xff
   \   000037   75....       MOV     ?V0 + 1,#(ZDO_Config_Power_Descriptor >> 8) & 0xff
   \   00003A   78..         MOV     R0,#?V0 + 0
   \   00003C   12....       LCALL   ?PUSH_XSTACK_I_TWO
   \   00003F   EE           MOV     A,R6
   \   000040   FA           MOV     R2,A
   \   000041   12....       LCALL   ??ZDP_PowerDescMsg?relay
   \   000044   7402         MOV     A,#0x2
   \   000046   12....       LCALL   ?DEALLOC_XSTACK8
   \   000049   803E         SJMP    ??ZDO_ProcessPowerDescReq_2
    656            }
    657            else
    658            {
    659              ZDP_GenericRsp( inMsg->TransSeq, &(inMsg->srcAddr),
    660                        ZDP_INVALID_REQTYPE, aoi, Power_Desc_rsp, inMsg->SecurityUse );
   \                     ??ZDO_ProcessPowerDescReq_1:
   \   00004B                ; Setup parameters for call to function ZDP_GenericRsp
   \   00004B   75..03       MOV     ?V0 + 0,#0x3
   \   00004E   75..80       MOV     ?V0 + 1,#-0x80
   \   000051   78..         MOV     R0,#?V0 + 0
   \   000053   12....       LCALL   ?PUSH_XSTACK_I_TWO
   \   000056   8C..         MOV     ?V0 + 0,R4
   \   000058   8D..         MOV     ?V0 + 1,R5
   \   00005A   78..         MOV     R0,#?V0 + 0
   \   00005C   12....       LCALL   ?PUSH_XSTACK_I_TWO
   \   00005F   EE           MOV     A,R6
   \   000060   240E         ADD     A,#0xe
   \   000062   F582         MOV     DPL,A
   \   000064   EF           MOV     A,R7
   \   000065   3400         ADDC    A,#0x0
   \   000067   F583         MOV     DPH,A
   \   000069   E0           MOVX    A,@DPTR
   \   00006A   FD           MOV     R5,A
   \   00006B   7C80         MOV     R4,#-0x80
   \   00006D   EE           MOV     A,R6
   \   00006E   2402         ADD     A,#0x2
   \   000070   FA           MOV     R2,A
   \   000071   EF           MOV     A,R7
   \   000072   3400         ADDC    A,#0x0
   \   000074   FB           MOV     R3,A
   \   000075   EE           MOV     A,R6
   \   000076   240F         ADD     A,#0xf
   \   000078   F582         MOV     DPL,A
   \   00007A   EF           MOV     A,R7
   \   00007B   3400         ADDC    A,#0x0
   \   00007D   F583         MOV     DPH,A
   \   00007F   E0           MOVX    A,@DPTR
   \   000080   F9           MOV     R1,A
   \   000081   12....       LCALL   ??ZDP_GenericRsp?relay
   \   000084   7404         MOV     A,#0x4
   \   000086   12....       LCALL   ?DEALLOC_XSTACK8
    661            }
    662          }
   \                     ??ZDO_ProcessPowerDescReq_2:
   \   000089   02....       LJMP    ??Subroutine12_0 & 0xFFFF
    663          
    664          /*********************************************************************
    665           * @fn          ZDO_ProcessSimpleDescReq
    666           *
    667           * @brief       This function processes and responds to the
    668           *              Simple_Desc_req message.
    669           *
    670           * @param       inMsg - incoming message (request)
    671           *
    672           * @return      none
    673           */

   \                                 In  segment BANKED_CODE, align 1, keep-with-next
   \                     ?Subroutine3:
   \   000000   7402         MOV     A,#0x2
   \   000002                REQUIRE ??Subroutine11_0
   \   000002                ; // Fall through to label ??Subroutine11_0

   \                                 In  segment BANKED_CODE, align 1, keep-with-next
   \                     ??Subroutine11_0:
   \   000000   12....       LCALL   ?DEALLOC_XSTACK8
   \   000003                REQUIRE ??Subroutine12_0
   \   000003                ; // Fall through to label ??Subroutine12_0

   \                                 In  segment BANKED_CODE, align 1, keep-with-next
    674          void ZDO_ProcessSimpleDescReq( zdoIncomingMsg_t *inMsg )
   \                     ZDO_ProcessSimpleDescReq:
    675          {
   \   000000   74F6         MOV     A,#-0xa
   \   000002   12....       LCALL   ?BANKED_ENTER_XDATA
   \   000005                ; Saved register size: 10
   \   000005                ; Auto size: 2
   \   000005   74FE         MOV     A,#-0x2
   \   000007   12....       LCALL   ?ALLOC_XSTACK8
   \   00000A   EA           MOV     A,R2
   \   00000B   FE           MOV     R6,A
   \   00000C   EB           MOV     A,R3
   \   00000D   FF           MOV     R7,A
    676            SimpleDescriptionFormat_t *sDesc = NULL;
   \   00000E   85..82       MOV     DPL,?XSP + 0
   \   000011   85..83       MOV     DPH,?XSP + 1
   \   000014   E4           CLR     A
   \   000015   F0           MOVX    @DPTR,A
   \   000016   A3           INC     DPTR
   \   000017   F0           MOVX    @DPTR,A
    677            uint16 aoi = BUILD_UINT16( inMsg->asdu[0], inMsg->asdu[1] );
   \   000018   EE           MOV     A,R6
   \   000019   2413         ADD     A,#0x13
   \   00001B   F582         MOV     DPL,A
   \   00001D   EF           MOV     A,R7
   \   00001E   3400         ADDC    A,#0x0
   \   000020   F583         MOV     DPH,A
   \   000022   E0           MOVX    A,@DPTR
   \   000023   F8           MOV     R0,A
   \   000024   A3           INC     DPTR
   \   000025   E0           MOVX    A,@DPTR
   \   000026   F9           MOV     R1,A
   \   000027   8882         MOV     DPL,R0
   \   000029   8983         MOV     DPH,R1
   \   00002B   E0           MOVX    A,@DPTR
   \   00002C   FC           MOV     R4,A
   \   00002D   A3           INC     DPTR
   \   00002E   E0           MOVX    A,@DPTR
   \   00002F   FB           MOV     R3,A
   \   000030   EC           MOV     A,R4
   \   000031   FA           MOV     R2,A
    678            byte endPoint = inMsg->asdu[2];
   \   000032   8882         MOV     DPL,R0
   \   000034   8983         MOV     DPH,R1
   \   000036   A3           INC     DPTR
   \   000037   A3           INC     DPTR
   \   000038   E0           MOVX    A,@DPTR
   \   000039   F9           MOV     R1,A
    679            byte free = false;
   \   00003A   75..00       MOV     ?V0 + 1,#0x0
    680            byte stat = ZDP_SUCCESS;
   \   00003D   75..00       MOV     ?V0 + 0,#0x0
    681          
    682            if ( (endPoint == ZDO_EP) || (endPoint > MAX_ENDPOINTS) )
   \   000040   6005         JZ      ??ZDO_ProcessSimpleDescReq_0
   \   000042   C3           CLR     C
   \   000043   94F1         SUBB    A,#-0xf
   \   000045   4005         JC      ??ZDO_ProcessSimpleDescReq_1
    683            {
    684              stat = ZDP_INVALID_EP;
   \                     ??ZDO_ProcessSimpleDescReq_0:
   \   000047   75..82       MOV     ?V0 + 0,#-0x7e
   \   00004A   8033         SJMP    ??ZDO_ProcessSimpleDescReq_2
    685            }
    686            else if ( aoi == ZDAppNwkAddr.addr.shortAddr )
   \                     ??ZDO_ProcessSimpleDescReq_1:
   \   00004C   90....       MOV     DPTR,#ZDAppNwkAddr
   \   00004F   E0           MOVX    A,@DPTR
   \   000050   6A           XRL     A,R2
   \   000051   7003         JNZ     ??ZDO_ProcessSimpleDescReq_3
   \   000053   A3           INC     DPTR
   \   000054   E0           MOVX    A,@DPTR
   \   000055   6B           XRL     A,R3
   \                     ??ZDO_ProcessSimpleDescReq_3:
   \   000056   7024         JNZ     ??ZDO_ProcessSimpleDescReq_4
    687            {
    688              free = afFindSimpleDesc( &sDesc, endPoint );
   \   000058                ; Setup parameters for call to function afFindSimpleDesc
   \   000058   85..82       MOV     DPL,?XSP + 0
   \   00005B   85..83       MOV     DPH,?XSP + 1
   \   00005E   AA82         MOV     R2,DPL
   \   000060   AB83         MOV     R3,DPH
   \   000062   12....       LCALL   ??afFindSimpleDesc?relay
   \   000065   E9           MOV     A,R1
   \   000066   F5..         MOV     ?V0 + 1,A
    689              if ( sDesc == NULL )
   \   000068   85..82       MOV     DPL,?XSP + 0
   \   00006B   85..83       MOV     DPH,?XSP + 1
   \   00006E   E0           MOVX    A,@DPTR
   \   00006F   F8           MOV     R0,A
   \   000070   A3           INC     DPTR
   \   000071   E0           MOVX    A,@DPTR
   \   000072   F9           MOV     R1,A
   \   000073   E8           MOV     A,R0
   \   000074   49           ORL     A,R1
   \   000075   7008         JNZ     ??ZDO_ProcessSimpleDescReq_2
    690              {
    691                stat = ZDP_NOT_ACTIVE;
   \   000077   75..83       MOV     ?V0 + 0,#-0x7d
   \   00007A   8003         SJMP    ??ZDO_ProcessSimpleDescReq_2
    692              }
    693            }
    694            else
    695            {
    696              if ( ZSTACK_ROUTER_BUILD )
    697              {
    698                stat = ZDP_DEVICE_NOT_FOUND;
   \                     ??ZDO_ProcessSimpleDescReq_4:
   \   00007C   75..81       MOV     ?V0 + 0,#-0x7f
    699              }
    700              else if ( ZSTACK_END_DEVICE_BUILD )
    701              {
    702                stat = ZDP_INVALID_REQTYPE;
    703              }
    704            }
    705          
    706            ZDP_SimpleDescMsg( inMsg, stat, sDesc );
   \                     ??ZDO_ProcessSimpleDescReq_2:
   \   00007F                ; Setup parameters for call to function ZDP_SimpleDescMsg
   \   00007F   85..82       MOV     DPL,?XSP + 0
   \   000082   85..83       MOV     DPH,?XSP + 1
   \   000085   E0           MOVX    A,@DPTR
   \   000086   FC           MOV     R4,A
   \   000087   A3           INC     DPTR
   \   000088   E0           MOVX    A,@DPTR
   \   000089   FD           MOV     R5,A
   \   00008A   A9..         MOV     R1,?V0 + 0
   \   00008C   EE           MOV     A,R6
   \   00008D   FA           MOV     R2,A
   \   00008E   EF           MOV     A,R7
   \   00008F   FB           MOV     R3,A
   \   000090   12....       LCALL   ??ZDP_SimpleDescMsg?relay
    707          
    708            if ( free && sDesc )
   \   000093   E5..         MOV     A,?V0 + 1
   \   000095   601D         JZ      ??ZDO_ProcessSimpleDescReq_5
   \   000097   85..82       MOV     DPL,?XSP + 0
   \   00009A   85..83       MOV     DPH,?XSP + 1
   \   00009D   E0           MOVX    A,@DPTR
   \   00009E   F8           MOV     R0,A
   \   00009F   A3           INC     DPTR
   \   0000A0   E0           MOVX    A,@DPTR
   \   0000A1   F9           MOV     R1,A
   \   0000A2   E8           MOV     A,R0
   \   0000A3   49           ORL     A,R1
   \   0000A4   600E         JZ      ??ZDO_ProcessSimpleDescReq_5
    709            {
    710              osal_mem_free( sDesc );
   \   0000A6                ; Setup parameters for call to function osal_mem_free
   \   0000A6   85..82       MOV     DPL,?XSP + 0
   \   0000A9   85..83       MOV     DPH,?XSP + 1
   \   0000AC   E0           MOVX    A,@DPTR
   \   0000AD   FA           MOV     R2,A
   \   0000AE   A3           INC     DPTR
   \   0000AF   E0           MOVX    A,@DPTR
   \   0000B0   FB           MOV     R3,A
   \   0000B1   12....       LCALL   ??osal_mem_free?relay
    711            }
    712          }
   \                     ??ZDO_ProcessSimpleDescReq_5:
   \   0000B4   02....       LJMP    ?Subroutine3 & 0xFFFF
    713          
    714          /*********************************************************************
    715           * @fn          ZDO_ProcessActiveEPReq
    716           *
    717           * @brief       This function processes and responds to the
    718           *              Active_EP_req message.
    719           *
    720           * @param       inMsg  - incoming message (request)
    721           *
    722           * @return      none
    723           */

   \                                 In  segment BANKED_CODE, align 1, keep-with-next
    724          void ZDO_ProcessActiveEPReq( zdoIncomingMsg_t *inMsg )
   \                     ZDO_ProcessActiveEPReq:
    725          {
   \   000000   74F2         MOV     A,#-0xe
   \   000002   12....       LCALL   ?BANKED_ENTER_XDATA
   \   000005                ; Saved register size: 14
   \   000005                ; Auto size: 0
   \   000005   EA           MOV     A,R2
   \   000006   FE           MOV     R6,A
   \   000007   EB           MOV     A,R3
   \   000008   FF           MOV     R7,A
    726            byte cnt = 0;
   \   000009   75..00       MOV     ?V0 + 2,#0x0
    727            uint16 aoi;
    728            byte stat = ZDP_SUCCESS;
   \   00000C   75..00       MOV     ?V0 + 3,#0x0
    729          
    730            aoi = BUILD_UINT16( inMsg->asdu[0], inMsg->asdu[1] );
   \   00000F   EE           MOV     A,R6
   \   000010   2413         ADD     A,#0x13
   \   000012   F582         MOV     DPL,A
   \   000014   EF           MOV     A,R7
   \   000015   3400         ADDC    A,#0x0
   \   000017   F583         MOV     DPH,A
   \   000019   E0           MOVX    A,@DPTR
   \   00001A   F8           MOV     R0,A
   \   00001B   A3           INC     DPTR
   \   00001C   E0           MOVX    A,@DPTR
   \   00001D   F9           MOV     R1,A
   \   00001E   8882         MOV     DPL,R0
   \   000020   8983         MOV     DPH,R1
   \   000022   E0           MOVX    A,@DPTR
   \   000023   FA           MOV     R2,A
   \   000024   A3           INC     DPTR
   \   000025   E0           MOVX    A,@DPTR
   \   000026   F9           MOV     R1,A
   \   000027   EA           MOV     A,R2
   \   000028   2400         ADD     A,#0x0
   \   00002A   F5..         MOV     ?V0 + 0,A
   \   00002C   E4           CLR     A
   \   00002D   39           ADDC    A,R1
   \   00002E   F5..         MOV     ?V0 + 1,A
    731          
    732            if ( aoi == NLME_GetShortAddr() )
   \   000030                ; Setup parameters for call to function NLME_GetShortAddr
   \   000030   12....       LCALL   ??NLME_GetShortAddr?relay
   \   000033   EA           MOV     A,R2
   \   000034   65..         XRL     A,?V0 + 0
   \   000036   7003         JNZ     ??ZDO_ProcessActiveEPReq_0
   \   000038   EB           MOV     A,R3
   \   000039   65..         XRL     A,?V0 + 1
   \                     ??ZDO_ProcessActiveEPReq_0:
   \   00003B   7012         JNZ     ??ZDO_ProcessActiveEPReq_1
    733            {
    734              cnt = afNumEndPoints() - 1;  // -1 for ZDO endpoint descriptor
   \   00003D                ; Setup parameters for call to function afNumEndPoints
   \   00003D   12....       LCALL   ??afNumEndPoints?relay
   \   000040   E9           MOV     A,R1
   \   000041   14           DEC     A
   \   000042   F5..         MOV     ?V0 + 2,A
    735              afEndPoints( (uint8 *)ZDOBuildBuf, true );
   \   000044                ; Setup parameters for call to function afEndPoints
   \   000044   7901         MOV     R1,#0x1
   \   000046   7A..         MOV     R2,#ZDOBuildBuf & 0xff
   \   000048   7B..         MOV     R3,#(ZDOBuildBuf >> 8) & 0xff
   \   00004A   12....       LCALL   ??afEndPoints?relay
   \   00004D   8003         SJMP    ??ZDO_ProcessActiveEPReq_2
    736            }
    737            else
    738            {
    739              stat = ZDP_INVALID_REQTYPE;
   \                     ??ZDO_ProcessActiveEPReq_1:
   \   00004F   75..80       MOV     ?V0 + 3,#-0x80
    740            }
    741          
    742            ZDP_ActiveEPRsp( inMsg->TransSeq, &(inMsg->srcAddr), stat,
    743                            aoi, cnt, (uint8 *)ZDOBuildBuf, inMsg->SecurityUse );
   \                     ??ZDO_ProcessActiveEPReq_2:
   \   000052                ; Setup parameters for call to function ZDP_EPRsp
   \   000052   EE           MOV     A,R6
   \   000053   240E         ADD     A,#0xe
   \   000055   F582         MOV     DPL,A
   \   000057   EF           MOV     A,R7
   \   000058   3400         ADDC    A,#0x0
   \   00005A   F583         MOV     DPH,A
   \   00005C   E0           MOVX    A,@DPTR
   \   00005D   F5..         MOV     ?V0 + 4,A
   \   00005F   78..         MOV     R0,#?V0 + 4
   \   000061   12....       LCALL   ?PUSH_XSTACK_I_ONE
   \   000064   75....       MOV     ?V0 + 4,#ZDOBuildBuf & 0xff
   \   000067   75....       MOV     ?V0 + 5,#(ZDOBuildBuf >> 8) & 0xff
   \   00006A   78..         MOV     R0,#?V0 + 4
   \   00006C   12....       LCALL   ?PUSH_XSTACK_I_TWO
   \   00006F   78..         MOV     R0,#?V0 + 2
   \   000071   12....       LCALL   ?PUSH_XSTACK_I_ONE
   \   000074   78..         MOV     R0,#?V0 + 0
   \   000076   12....       LCALL   ?PUSH_XSTACK_I_TWO
   \   000079   E5..         MOV     A,?V0 + 3
   \   00007B   F5..         MOV     ?V0 + 0,A
   \   00007D   78..         MOV     R0,#?V0 + 0
   \   00007F   12....       LCALL   ?PUSH_XSTACK_I_ONE
   \   000082   EE           MOV     A,R6
   \   000083   2402         ADD     A,#0x2
   \   000085   FC           MOV     R4,A
   \   000086   EF           MOV     A,R7
   \   000087   3400         ADDC    A,#0x0
   \   000089   FD           MOV     R5,A
   \   00008A   EE           MOV     A,R6
   \   00008B   240F         ADD     A,#0xf
   \   00008D   F582         MOV     DPL,A
   \   00008F   EF           MOV     A,R7
   \   000090   3400         ADDC    A,#0x0
   \   000092   F583         MOV     DPH,A
   \   000094   E0           MOVX    A,@DPTR
   \   000095   F9           MOV     R1,A
   \   000096   7A05         MOV     R2,#0x5
   \   000098   7B80         MOV     R3,#-0x80
   \   00009A   12....       LCALL   ??ZDP_EPRsp?relay
   \   00009D   7407         MOV     A,#0x7
   \   00009F   12....       LCALL   ?DEALLOC_XSTACK8
    744          }
   \   0000A2   02....       LJMP    ?Subroutine4 & 0xFFFF

   \                                 In  segment BANKED_CODE, align 1, keep-with-next
   \                     ?Subroutine4:
   \   000000   7F06         MOV     R7,#0x6
   \   000002   02....       LJMP    ?BANKED_LEAVE_XDATA
    745          
    746          /*********************************************************************
    747           * @fn          ZDO_ConvertOTAClusters
    748           *
    749           * @brief       This function will convert the over-the-air cluster list
    750           *              format to an internal format.
    751           *
    752           * @param       inMsg  - incoming message (request)
    753           *
    754           * @return      pointer to incremented inBuf
    755           */

   \                                 In  segment BANKED_CODE, align 1, keep-with-next
    756          uint8 *ZDO_ConvertOTAClusters( uint8 cnt, uint8 *inBuf, uint16 *outList )
   \                     ZDO_ConvertOTAClusters:
    757          {
   \   000000   74F6         MOV     A,#-0xa
   \   000002   12....       LCALL   ?BANKED_ENTER_XDATA
   \   000005                ; Saved register size: 10
   \   000005                ; Auto size: 0
   \   000005   E9           MOV     A,R1
    758            uint8 x;
    759          
    760            for ( x = 0; x < cnt; x++ )
   \   000006   602B         JZ      ??ZDO_ConvertOTAClusters_0
   \   000008   FF           MOV     R7,A
    761            {
    762              // convert ota format to internal
    763              outList[x] = BUILD_UINT16( inBuf[0], inBuf[1] );
   \                     ??ZDO_ConvertOTAClusters_1:
   \   000009   8A82         MOV     DPL,R2
   \   00000B   8B83         MOV     DPH,R3
   \   00000D   E0           MOVX    A,@DPTR
   \   00000E   F5..         MOV     ?V0 + 0,A
   \   000010   A3           INC     DPTR
   \   000011   E0           MOVX    A,@DPTR
   \   000012   F9           MOV     R1,A
   \   000013   E5..         MOV     A,?V0 + 0
   \   000015   8C82         MOV     DPL,R4
   \   000017   8D83         MOV     DPH,R5
   \   000019   F0           MOVX    @DPTR,A
   \   00001A   A3           INC     DPTR
   \   00001B   E9           MOV     A,R1
   \   00001C   F0           MOVX    @DPTR,A
    764              inBuf += sizeof( uint16 );
   \   00001D   EA           MOV     A,R2
   \   00001E   2402         ADD     A,#0x2
   \   000020   0A           INC     R2
   \   000021   0A           INC     R2
   \   000022   EB           MOV     A,R3
   \   000023   3400         ADDC    A,#0x0
   \   000025   FB           MOV     R3,A
    765            }
   \   000026   EC           MOV     A,R4
   \   000027   2402         ADD     A,#0x2
   \   000029   0C           INC     R4
   \   00002A   0C           INC     R4
   \   00002B   ED           MOV     A,R5
   \   00002C   3400         ADDC    A,#0x0
   \   00002E   FD           MOV     R5,A
   \   00002F   1F           DEC     R7
   \   000030   EF           MOV     A,R7
   \   000031   70D6         JNZ     ??ZDO_ConvertOTAClusters_1
    766            return ( inBuf );
   \                     ??ZDO_ConvertOTAClusters_0:
   \   000033   02....       LJMP    ??Subroutine12_0 & 0xFFFF
    767          }
    768          
    769          /*********************************************************************
    770           * @fn          ZDO_ProcessMatchDescReq
    771           *
    772           * @brief       This function processes and responds to the
    773           *              Match_Desc_req message.
    774           *
    775           * @param       inMsg  - incoming message (request)
    776           *
    777           * @return      none
    778           */

   \                                 In  segment BANKED_CODE, align 1, keep-with-next
    779          void ZDO_ProcessMatchDescReq( zdoIncomingMsg_t *inMsg )
   \                     ZDO_ProcessMatchDescReq:
    780          {
   \   000000   74E8         MOV     A,#-0x18
   \   000002   12....       LCALL   ?BANKED_ENTER_XDATA
   \   000005                ; Saved register size: 24
   \   000005                ; Auto size: 15
   \   000005   74F1         MOV     A,#-0xf
   \   000007   12....       LCALL   ?ALLOC_XSTACK8
   \   00000A   7405         MOV     A,#0x5
   \   00000C   12....       LCALL   ?XSTACK_DISP0_8
   \   00000F   EA           MOV     A,R2
   \   000010   F0           MOVX    @DPTR,A
   \   000011   A3           INC     DPTR
   \   000012   EB           MOV     A,R3
   \   000013   F0           MOVX    @DPTR,A
    781            uint8 epCnt = 0;
   \   000014   75..00       MOV     ?V0 + 13,#0x0
    782            uint8 numInClusters;
    783            uint16 *inClusters = NULL;
   \   000017   7409         MOV     A,#0x9
   \   000019   12....       LCALL   ?XSTACK_DISP0_8
   \   00001C   E4           CLR     A
   \   00001D   F0           MOVX    @DPTR,A
   \   00001E   A3           INC     DPTR
   \   00001F   F0           MOVX    @DPTR,A
    784            uint8 numOutClusters;
    785            uint16 *outClusters = NULL;
   \   000020   7407         MOV     A,#0x7
   \   000022   12....       LCALL   ?XSTACK_DISP0_8
   \   000025   E4           CLR     A
   \   000026   F0           MOVX    @DPTR,A
   \   000027   A3           INC     DPTR
   \   000028   F0           MOVX    @DPTR,A
    786            epList_t *epDesc;
    787            SimpleDescriptionFormat_t *sDesc = NULL;
    788            uint8 allocated;
    789            uint8 *msg;
    790            uint16 aoi;
    791            uint16 profileID;
    792          
    793            // Parse the incoming message
    794            msg = inMsg->asdu;
   \   000029   7405         MOV     A,#0x5
   \   00002B   12....       LCALL   ?XSTACK_DISP0_8
   \   00002E   E0           MOVX    A,@DPTR
   \   00002F   2413         ADD     A,#0x13
   \   000031   F8           MOV     R0,A
   \   000032   A3           INC     DPTR
   \   000033   E0           MOVX    A,@DPTR
   \   000034   3400         ADDC    A,#0x0
   \   000036   F9           MOV     R1,A
   \   000037   8882         MOV     DPL,R0
   \   000039   8983         MOV     DPH,R1
   \   00003B   E0           MOVX    A,@DPTR
   \   00003C   FE           MOV     R6,A
   \   00003D   A3           INC     DPTR
   \   00003E   E0           MOVX    A,@DPTR
   \   00003F   FF           MOV     R7,A
    795            aoi = BUILD_UINT16( msg[0], msg[1] );
   \   000040   8E82         MOV     DPL,R6
   \   000042   8F83         MOV     DPH,R7
   \   000044   E0           MOVX    A,@DPTR
   \   000045   FA           MOV     R2,A
   \   000046   A3           INC     DPTR
   \   000047   E0           MOVX    A,@DPTR
   \   000048   F9           MOV     R1,A
   \   000049   EA           MOV     A,R2
   \   00004A   2400         ADD     A,#0x0
   \   00004C   F5..         MOV     ?V0 + 0,A
   \   00004E   E4           CLR     A
   \   00004F   39           ADDC    A,R1
   \   000050   F5..         MOV     ?V0 + 1,A
    796            profileID = BUILD_UINT16( msg[2], msg[3] );
   \   000052   8E82         MOV     DPL,R6
   \   000054   8F83         MOV     DPH,R7
   \   000056   A3           INC     DPTR
   \   000057   A3           INC     DPTR
   \   000058   E0           MOVX    A,@DPTR
   \   000059   FA           MOV     R2,A
   \   00005A   8E82         MOV     DPL,R6
   \   00005C   8F83         MOV     DPH,R7
   \   00005E   A3           INC     DPTR
   \   00005F   A3           INC     DPTR
   \   000060   A3           INC     DPTR
   \   000061   E0           MOVX    A,@DPTR
   \   000062   F9           MOV     R1,A
   \   000063   EA           MOV     A,R2
   \   000064   F5..         MOV     ?V0 + 10,A
   \   000066   E4           CLR     A
   \   000067   39           ADDC    A,R1
   \   000068   F5..         MOV     ?V0 + 11,A
    797            msg += 4;
   \   00006A   EE           MOV     A,R6
   \   00006B   2404         ADD     A,#0x4
   \   00006D   FE           MOV     R6,A
   \   00006E   EF           MOV     A,R7
   \   00006F   3400         ADDC    A,#0x0
   \   000071   FF           MOV     R7,A
    798          
    799            if ( ADDR_BCAST_NOT_ME == NLME_IsAddressBroadcast(aoi) )
   \   000072                ; Setup parameters for call to function NLME_IsAddressBroadcast
   \   000072   AA..         MOV     R2,?V0 + 0
   \   000074   AB..         MOV     R3,?V0 + 1
   \   000076   12....       LCALL   ??NLME_IsAddressBroadcast?relay
   \   000079   E9           MOV     A,R1
   \   00007A   6401         XRL     A,#0x1
   \   00007C   7068         JNZ     ??ZDO_ProcessMatchDescReq_0
    800            {
    801              ZDP_MatchDescRsp( inMsg->TransSeq, &(inMsg->srcAddr), ZDP_INVALID_REQTYPE,
    802                                    ZDAppNwkAddr.addr.shortAddr, 0, NULL, inMsg->SecurityUse );
   \                     ??ZDO_ProcessMatchDescReq_1:
   \   00007E                ; Setup parameters for call to function ZDP_EPRsp
   \   00007E   7405         MOV     A,#0x5
   \   000080   12....       LCALL   ?XSTACK_DISP0_8
   \   000083   E0           MOVX    A,@DPTR
   \   000084   240E         ADD     A,#0xe
   \   000086   F8           MOV     R0,A
   \   000087   A3           INC     DPTR
   \   000088   E0           MOVX    A,@DPTR
   \   000089   3400         ADDC    A,#0x0
   \   00008B   F9           MOV     R1,A
   \   00008C   8882         MOV     DPL,R0
   \   00008E   8983         MOV     DPH,R1
   \   000090   E0           MOVX    A,@DPTR
   \   000091   F5..         MOV     ?V0 + 0,A
   \   000093   78..         MOV     R0,#?V0 + 0
   \   000095   12....       LCALL   ?PUSH_XSTACK_I_ONE
   \   000098   E4           CLR     A
   \   000099   F5..         MOV     ?V0 + 0,A
   \   00009B   F5..         MOV     ?V0 + 1,A
   \   00009D   78..         MOV     R0,#?V0 + 0
   \   00009F   12....       LCALL   ?PUSH_XSTACK_I_TWO
   \   0000A2   78..         MOV     R0,#?V0 + 0
   \   0000A4   12....       LCALL   ?PUSH_XSTACK_I_ONE
   \   0000A7   90....       MOV     DPTR,#ZDAppNwkAddr
   \   0000AA   12....       LCALL   ?PUSH_XSTACK8_X_TWO
   \   0000AD   75..80       MOV     ?V0 + 0,#-0x80
   \   0000B0   78..         MOV     R0,#?V0 + 0
   \   0000B2   12....       LCALL   ?PUSH_XSTACK_I_ONE
   \   0000B5   740C         MOV     A,#0xc
   \   0000B7   12....       LCALL   ?XSTACK_DISP0_8
   \   0000BA   E0           MOVX    A,@DPTR
   \   0000BB   2402         ADD     A,#0x2
   \   0000BD   FC           MOV     R4,A
   \   0000BE   A3           INC     DPTR
   \   0000BF   E0           MOVX    A,@DPTR
   \   0000C0   3400         ADDC    A,#0x0
   \   0000C2   FD           MOV     R5,A
   \   0000C3   740C         MOV     A,#0xc
   \   0000C5   12....       LCALL   ?XSTACK_DISP0_8
   \   0000C8   E0           MOVX    A,@DPTR
   \   0000C9   240F         ADD     A,#0xf
   \   0000CB   F8           MOV     R0,A
   \   0000CC   A3           INC     DPTR
   \   0000CD   E0           MOVX    A,@DPTR
   \   0000CE   3400         ADDC    A,#0x0
   \   0000D0   F9           MOV     R1,A
   \   0000D1   8882         MOV     DPL,R0
   \   0000D3   8983         MOV     DPH,R1
   \   0000D5   E0           MOVX    A,@DPTR
   \   0000D6   F9           MOV     R1,A
   \   0000D7   7A06         MOV     R2,#0x6
   \   0000D9   7B80         MOV     R3,#-0x80
   \   0000DB   12....       LCALL   ??ZDP_EPRsp?relay
   \   0000DE   7407         MOV     A,#0x7
   \   0000E0   12....       LCALL   ?DEALLOC_XSTACK8
    803              return;
   \   0000E3   02....       LJMP    ??ZDO_ProcessMatchDescReq_2 & 0xFFFF
    804            }
    805            else if ( (ADDR_NOT_BCAST == NLME_IsAddressBroadcast(aoi)) && (aoi != ZDAppNwkAddr.addr.shortAddr) )
   \                     ??ZDO_ProcessMatchDescReq_0:
   \   0000E6                ; Setup parameters for call to function NLME_IsAddressBroadcast
   \   0000E6   AA..         MOV     R2,?V0 + 0
   \   0000E8   AB..         MOV     R3,?V0 + 1
   \   0000EA   12....       LCALL   ??NLME_IsAddressBroadcast?relay
   \   0000ED   E9           MOV     A,R1
   \   0000EE   700E         JNZ     ??ZDO_ProcessMatchDescReq_3
   \   0000F0   90....       MOV     DPTR,#ZDAppNwkAddr
   \   0000F3   E0           MOVX    A,@DPTR
   \   0000F4   65..         XRL     A,?V0 + 0
   \   0000F6   7004         JNZ     ??ZDO_ProcessMatchDescReq_4
   \   0000F8   A3           INC     DPTR
   \   0000F9   E0           MOVX    A,@DPTR
   \   0000FA   65..         XRL     A,?V0 + 1
   \                     ??ZDO_ProcessMatchDescReq_4:
   \   0000FC   7080         JNZ     ??ZDO_ProcessMatchDescReq_1
    806            {
    807              ZDP_MatchDescRsp( inMsg->TransSeq, &(inMsg->srcAddr), ZDP_INVALID_REQTYPE,
    808                                       ZDAppNwkAddr.addr.shortAddr, 0, NULL, inMsg->SecurityUse );
    809              return;
    810            }
    811          
    812            if ((numInClusters = *msg++) &&
    813                (inClusters = (uint16*)osal_mem_alloc( numInClusters * sizeof( uint16 ) )))
   \                     ??ZDO_ProcessMatchDescReq_3:
   \   0000FE   8E82         MOV     DPL,R6
   \   000100   8F83         MOV     DPH,R7
   \   000102   E0           MOVX    A,@DPTR
   \   000103   F8           MOV     R0,A
   \   000104   A3           INC     DPTR
   \   000105   AE82         MOV     R6,DPL
   \   000107   AF83         MOV     R7,DPH
   \   000109   88..         MOV     ?V0 + 7,R0
   \   00010B   605B         JZ      ??ZDO_ProcessMatchDescReq_5
   \   00010D                ; Setup parameters for call to function osal_mem_alloc
   \   00010D   C3           CLR     C
   \   00010E   33           RLC     A
   \   00010F   FA           MOV     R2,A
   \   000110   E4           CLR     A
   \   000111   33           RLC     A
   \   000112   FB           MOV     R3,A
   \   000113   12....       LCALL   ??osal_mem_alloc?relay
   \   000116   7409         MOV     A,#0x9
   \   000118   12....       LCALL   ?XSTACK_DISP0_8
   \   00011B   EA           MOV     A,R2
   \   00011C   F0           MOVX    @DPTR,A
   \   00011D   A3           INC     DPTR
   \   00011E   EB           MOV     A,R3
   \   00011F   F0           MOVX    @DPTR,A
   \   000120   7409         MOV     A,#0x9
   \   000122   12....       LCALL   ?XSTACK_DISP0_8
   \   000125   E0           MOVX    A,@DPTR
   \   000126   F8           MOV     R0,A
   \   000127   A3           INC     DPTR
   \   000128   E0           MOVX    A,@DPTR
   \   000129   F9           MOV     R1,A
   \   00012A   E8           MOV     A,R0
   \   00012B   49           ORL     A,R1
   \   00012C   603A         JZ      ??ZDO_ProcessMatchDescReq_5
    814            {
    815              msg = ZDO_ConvertOTAClusters( numInClusters, msg, inClusters );
   \   00012E   85..82       MOV     DPL,?XSP + 0
   \   000131   85..83       MOV     DPH,?XSP + 1
   \   000134   E5..         MOV     A,?V0 + 7
   \   000136   F0           MOVX    @DPTR,A
   \                     ??ZDO_ProcessMatchDescReq_6:
   \   000137   8E82         MOV     DPL,R6
   \   000139   8F83         MOV     DPH,R7
   \   00013B   E0           MOVX    A,@DPTR
   \   00013C   FC           MOV     R4,A
   \   00013D   A3           INC     DPTR
   \   00013E   E0           MOVX    A,@DPTR
   \   00013F   FB           MOV     R3,A
   \   000140   EC           MOV     A,R4
   \   000141   8882         MOV     DPL,R0
   \   000143   8983         MOV     DPH,R1
   \   000145   F0           MOVX    @DPTR,A
   \   000146   A3           INC     DPTR
   \   000147   EB           MOV     A,R3
   \   000148   F0           MOVX    @DPTR,A
   \   000149   EE           MOV     A,R6
   \   00014A   2402         ADD     A,#0x2
   \   00014C   0E           INC     R6
   \   00014D   0E           INC     R6
   \   00014E   EF           MOV     A,R7
   \   00014F   3400         ADDC    A,#0x0
   \   000151   FF           MOV     R7,A
   \   000152   E8           MOV     A,R0
   \   000153   2402         ADD     A,#0x2
   \   000155   08           INC     R0
   \   000156   08           INC     R0
   \   000157   E9           MOV     A,R1
   \   000158   3400         ADDC    A,#0x0
   \   00015A   F9           MOV     R1,A
   \   00015B   85..82       MOV     DPL,?XSP + 0
   \   00015E   85..83       MOV     DPH,?XSP + 1
   \   000161   E0           MOVX    A,@DPTR
   \   000162   14           DEC     A
   \   000163   F0           MOVX    @DPTR,A
   \   000164   70D1         JNZ     ??ZDO_ProcessMatchDescReq_6
    816            }
   \   000166   8003         SJMP    ??ZDO_ProcessMatchDescReq_7
    817            else
    818            {
    819              numInClusters = 0;
   \                     ??ZDO_ProcessMatchDescReq_5:
   \   000168   75..00       MOV     ?V0 + 7,#0x0
    820            }
    821          
    822            if ((numOutClusters = *msg++) &&
    823                (outClusters = (uint16 *)osal_mem_alloc( numOutClusters * sizeof( uint16 ) )))
   \                     ??ZDO_ProcessMatchDescReq_7:
   \   00016B   8E82         MOV     DPL,R6
   \   00016D   8F83         MOV     DPH,R7
   \   00016F   E0           MOVX    A,@DPTR
   \   000170   F8           MOV     R0,A
   \   000171   A3           INC     DPTR
   \   000172   AE82         MOV     R6,DPL
   \   000174   AF83         MOV     R7,DPH
   \   000176   88..         MOV     ?V0 + 12,R0
   \   000178   605B         JZ      ??ZDO_ProcessMatchDescReq_8
   \   00017A                ; Setup parameters for call to function osal_mem_alloc
   \   00017A   C3           CLR     C
   \   00017B   33           RLC     A
   \   00017C   FA           MOV     R2,A
   \   00017D   E4           CLR     A
   \   00017E   33           RLC     A
   \   00017F   FB           MOV     R3,A
   \   000180   12....       LCALL   ??osal_mem_alloc?relay
   \   000183   7407         MOV     A,#0x7
   \   000185   12....       LCALL   ?XSTACK_DISP0_8
   \   000188   EA           MOV     A,R2
   \   000189   F0           MOVX    @DPTR,A
   \   00018A   A3           INC     DPTR
   \   00018B   EB           MOV     A,R3
   \   00018C   F0           MOVX    @DPTR,A
   \   00018D   7407         MOV     A,#0x7
   \   00018F   12....       LCALL   ?XSTACK_DISP0_8
   \   000192   E0           MOVX    A,@DPTR
   \   000193   F8           MOV     R0,A
   \   000194   A3           INC     DPTR
   \   000195   E0           MOVX    A,@DPTR
   \   000196   F9           MOV     R1,A
   \   000197   E8           MOV     A,R0
   \   000198   49           ORL     A,R1
   \   000199   603A         JZ      ??ZDO_ProcessMatchDescReq_8
    824            {
    825              msg = ZDO_ConvertOTAClusters( numOutClusters, msg, outClusters );
   \   00019B   85..82       MOV     DPL,?XSP + 0
   \   00019E   85..83       MOV     DPH,?XSP + 1
   \   0001A1   E5..         MOV     A,?V0 + 12
   \   0001A3   F0           MOVX    @DPTR,A
   \                     ??ZDO_ProcessMatchDescReq_9:
   \   0001A4   8E82         MOV     DPL,R6
   \   0001A6   8F83         MOV     DPH,R7
   \   0001A8   E0           MOVX    A,@DPTR
   \   0001A9   FC           MOV     R4,A
   \   0001AA   A3           INC     DPTR
   \   0001AB   E0           MOVX    A,@DPTR
   \   0001AC   FB           MOV     R3,A
   \   0001AD   EC           MOV     A,R4
   \   0001AE   8882         MOV     DPL,R0
   \   0001B0   8983         MOV     DPH,R1
   \   0001B2   F0           MOVX    @DPTR,A
   \   0001B3   A3           INC     DPTR
   \   0001B4   EB           MOV     A,R3
   \   0001B5   F0           MOVX    @DPTR,A
   \   0001B6   EE           MOV     A,R6
   \   0001B7   2402         ADD     A,#0x2
   \   0001B9   0E           INC     R6
   \   0001BA   0E           INC     R6
   \   0001BB   EF           MOV     A,R7
   \   0001BC   3400         ADDC    A,#0x0
   \   0001BE   FF           MOV     R7,A
   \   0001BF   E8           MOV     A,R0
   \   0001C0   2402         ADD     A,#0x2
   \   0001C2   08           INC     R0
   \   0001C3   08           INC     R0
   \   0001C4   E9           MOV     A,R1
   \   0001C5   3400         ADDC    A,#0x0
   \   0001C7   F9           MOV     R1,A
   \   0001C8   85..82       MOV     DPL,?XSP + 0
   \   0001CB   85..83       MOV     DPH,?XSP + 1
   \   0001CE   E0           MOVX    A,@DPTR
   \   0001CF   14           DEC     A
   \   0001D0   F0           MOVX    @DPTR,A
   \   0001D1   6005         JZ      ??ZDO_ProcessMatchDescReq_10
   \   0001D3   80CF         SJMP    ??ZDO_ProcessMatchDescReq_9
    826            }
    827            else
    828            {
    829              numOutClusters = 0;
   \                     ??ZDO_ProcessMatchDescReq_8:
   \   0001D5   75..00       MOV     ?V0 + 12,#0x0
    830            }
    831          
    832            // First count the number of endpoints that match.
    833            epDesc = epList;
   \                     ??ZDO_ProcessMatchDescReq_10:
   \   0001D8   90....       MOV     DPTR,#epList
   \   0001DB   E0           MOVX    A,@DPTR
   \   0001DC   F8           MOV     R0,A
   \   0001DD   A3           INC     DPTR
   \   0001DE   E0           MOVX    A,@DPTR
   \   0001DF   F9           MOV     R1,A
   \   0001E0   7403         MOV     A,#0x3
   \   0001E2   12....       LCALL   ?XSTACK_DISP0_8
   \   0001E5   E8           MOV     A,R0
   \   0001E6   F0           MOVX    @DPTR,A
   \   0001E7   A3           INC     DPTR
   \   0001E8   E9           MOV     A,R1
   \   0001E9   F0           MOVX    @DPTR,A
   \   0001EA   E5..         MOV     A,?V0 + 12
   \   0001EC   25..         ADD     A,?V0 + 7
   \   0001EE   C3           CLR     C
   \   0001EF   33           RLC     A
   \   0001F0   240A         ADD     A,#0xa
   \   0001F2   F5..         MOV     ?V0 + 8,A
   \   0001F4   75..00       MOV     ?V0 + 9,#0x0
   \   0001F7   E5..         MOV     A,?V0 + 12
   \   0001F9   C3           CLR     C
   \   0001FA   33           RLC     A
   \   0001FB   FE           MOV     R6,A
   \   0001FC   E4           CLR     A
   \   0001FD   33           RLC     A
   \   0001FE   FF           MOV     R7,A
   \   0001FF   E5..         MOV     A,?V0 + 7
   \   000201   33           RLC     A
   \   000202   F5..         MOV     ?V0 + 2,A
   \   000204   E4           CLR     A
   \   000205   33           RLC     A
   \   000206   F5..         MOV     ?V0 + 3,A
   \   000208   E5..         MOV     A,?V0 + 7
   \   00020A   33           RLC     A
   \   00020B   F5..         MOV     ?V0 + 0,A
   \   00020D   E4           CLR     A
   \   00020E   33           RLC     A
   \   00020F   F5..         MOV     ?V0 + 1,A
   \   000211   7405         MOV     A,#0x5
   \   000213   12....       LCALL   ?XSTACK_DISP0_8
   \   000216   E0           MOVX    A,@DPTR
   \   000217   2402         ADD     A,#0x2
   \   000219   F8           MOV     R0,A
   \   00021A   A3           INC     DPTR
   \   00021B   E0           MOVX    A,@DPTR
   \   00021C   3400         ADDC    A,#0x0
   \   00021E   F9           MOV     R1,A
   \   00021F   740D         MOV     A,#0xd
   \   000221   12....       LCALL   ?XSTACK_DISP0_8
   \   000224   E8           MOV     A,R0
   \   000225   F0           MOVX    @DPTR,A
   \   000226   A3           INC     DPTR
   \   000227   E9           MOV     A,R1
   \   000228   F0           MOVX    @DPTR,A
    834            while ( epDesc )
   \   000229   7403         MOV     A,#0x3
   \   00022B   12....       LCALL   ?XSTACK_DISP0_8
   \   00022E   E0           MOVX    A,@DPTR
   \   00022F   F8           MOV     R0,A
   \   000230   A3           INC     DPTR
   \   000231   E0           MOVX    A,@DPTR
   \   000232   F9           MOV     R1,A
   \   000233   E8           MOV     A,R0
   \   000234   49           ORL     A,R1
   \   000235   7003         JNZ     $+5
   \   000237   02....       LJMP    ??ZDO_ProcessMatchDescReq_11 & 0xFFFF
    835            {
    836              // Don't search endpoint 0 and check if response is allowed
    837              if ( epDesc->epDesc->endPoint != ZDO_EP && (epDesc->flags&eEP_AllowMatch) )
   \                     ??ZDO_ProcessMatchDescReq_12:
   \   00023A   7403         MOV     A,#0x3
   \   00023C   12....       LCALL   ?XSTACK_DISP0_8
   \   00023F   E0           MOVX    A,@DPTR
   \   000240   F8           MOV     R0,A
   \   000241   A3           INC     DPTR
   \   000242   E0           MOVX    A,@DPTR
   \   000243   F583         MOV     DPH,A
   \   000245   8882         MOV     DPL,R0
   \   000247   E0           MOVX    A,@DPTR
   \   000248   FA           MOV     R2,A
   \   000249   A3           INC     DPTR
   \   00024A   E0           MOVX    A,@DPTR
   \   00024B   FB           MOV     R3,A
   \   00024C   8A82         MOV     DPL,R2
   \   00024E   8B83         MOV     DPH,R3
   \   000250   E0           MOVX    A,@DPTR
   \   000251   7003         JNZ     $+5
   \   000253   02....       LJMP    ??ZDO_ProcessMatchDescReq_13 & 0xFFFF
   \   000256   7403         MOV     A,#0x3
   \   000258   12....       LCALL   ?XSTACK_DISP0_8
   \   00025B   A3           INC     DPTR
   \   00025C   E0           MOVX    A,@DPTR
   \   00025D   F583         MOV     DPH,A
   \   00025F   8882         MOV     DPL,R0
   \   000261   A3           INC     DPTR
   \   000262   A3           INC     DPTR
   \   000263   E0           MOVX    A,@DPTR
   \   000264   A2E0         MOV     C,0xE0 /* A   */.0
   \   000266   4003         JC      $+5
   \   000268   02....       LJMP    ??ZDO_ProcessMatchDescReq_13 & 0xFFFF
    838              {
    839                if ( epDesc->pfnDescCB )
   \   00026B   7403         MOV     A,#0x3
   \   00026D   12....       LCALL   ?XSTACK_DISP0_8
   \   000270   A3           INC     DPTR
   \   000271   E0           MOVX    A,@DPTR
   \   000272   F583         MOV     DPH,A
   \   000274   8882         MOV     DPL,R0
   \   000276   A3           INC     DPTR
   \   000277   A3           INC     DPTR
   \   000278   A3           INC     DPTR
   \   000279   E0           MOVX    A,@DPTR
   \   00027A   FC           MOV     R4,A
   \   00027B   A3           INC     DPTR
   \   00027C   E0           MOVX    A,@DPTR
   \   00027D   FD           MOV     R5,A
   \   00027E   EC           MOV     A,R4
   \   00027F   4D           ORL     A,R5
   \   000280   8A82         MOV     DPL,R2
   \   000282   8B83         MOV     DPH,R3
   \   000284   601F         JZ      ??ZDO_ProcessMatchDescReq_14
    840                {
    841                  sDesc = (SimpleDescriptionFormat_t *)epDesc->pfnDescCB( AF_DESCRIPTOR_SIMPLE, epDesc->epDesc->endPoint );
   \   000286                ; Setup parameters for indirect call
   \   000286   E0           MOVX    A,@DPTR
   \   000287   FA           MOV     R2,A
   \   000288   7901         MOV     R1,#0x1
   \   00028A   8C82         MOV     DPL,R4
   \   00028C   8D83         MOV     DPH,R5
   \   00028E   12....       LCALL   ?CALL_IND
   \   000291   7401         MOV     A,#0x1
   \   000293   12....       LCALL   ?XSTACK_DISP0_8
   \   000296   EA           MOV     A,R2
   \   000297   F0           MOVX    @DPTR,A
   \   000298   A3           INC     DPTR
   \   000299   EB           MOV     A,R3
   \   00029A   F0           MOVX    @DPTR,A
    842                  allocated = TRUE;
   \   00029B   85..82       MOV     DPL,?XSP + 0
   \   00029E   85..83       MOV     DPH,?XSP + 1
   \   0002A1   7401         MOV     A,#0x1
   \   0002A3   8019         SJMP    ??ZDO_ProcessMatchDescReq_15
    843                }
    844                else
    845                {
    846                  sDesc = epDesc->epDesc->simpleDesc;
   \                     ??ZDO_ProcessMatchDescReq_14:
   \   0002A5   A3           INC     DPTR
   \   0002A6   A3           INC     DPTR
   \   0002A7   A3           INC     DPTR
   \   0002A8   E0           MOVX    A,@DPTR
   \   0002A9   F8           MOV     R0,A
   \   0002AA   A3           INC     DPTR
   \   0002AB   E0           MOVX    A,@DPTR
   \   0002AC   F9           MOV     R1,A
   \   0002AD   7401         MOV     A,#0x1
   \   0002AF   12....       LCALL   ?XSTACK_DISP0_8
   \   0002B2   E8           MOV     A,R0
   \   0002B3   F0           MOVX    @DPTR,A
   \   0002B4   A3           INC     DPTR
   \   0002B5   E9           MOV     A,R1
   \   0002B6   F0           MOVX    @DPTR,A
    847                  allocated = FALSE;
   \   0002B7   85..82       MOV     DPL,?XSP + 0
   \   0002BA   85..83       MOV     DPH,?XSP + 1
   \   0002BD   E4           CLR     A
   \                     ??ZDO_ProcessMatchDescReq_15:
   \   0002BE   F0           MOVX    @DPTR,A
    848                }
    849          
    850                if ( sDesc && sDesc->AppProfId == profileID )
   \   0002BF   7401         MOV     A,#0x1
   \   0002C1   12....       LCALL   ?XSTACK_DISP0_8
   \   0002C4   E0           MOVX    A,@DPTR
   \   0002C5   F8           MOV     R0,A
   \   0002C6   A3           INC     DPTR
   \   0002C7   E0           MOVX    A,@DPTR
   \   0002C8   F9           MOV     R1,A
   \   0002C9   E8           MOV     A,R0
   \   0002CA   49           ORL     A,R1
   \   0002CB   7003         JNZ     $+5
   \   0002CD   02....       LJMP    ??ZDO_ProcessMatchDescReq_16 & 0xFFFF
   \   0002D0   7401         MOV     A,#0x1
   \   0002D2   12....       LCALL   ?XSTACK_DISP0_8
   \   0002D5   A3           INC     DPTR
   \   0002D6   E0           MOVX    A,@DPTR
   \   0002D7   F583         MOV     DPH,A
   \   0002D9   8882         MOV     DPL,R0
   \   0002DB   A3           INC     DPTR
   \   0002DC   E0           MOVX    A,@DPTR
   \   0002DD   65..         XRL     A,?V0 + 10
   \   0002DF   7004         JNZ     ??ZDO_ProcessMatchDescReq_17
   \   0002E1   A3           INC     DPTR
   \   0002E2   E0           MOVX    A,@DPTR
   \   0002E3   65..         XRL     A,?V0 + 11
   \                     ??ZDO_ProcessMatchDescReq_17:
   \   0002E5   6003         JZ      $+5
   \   0002E7   02....       LJMP    ??ZDO_ProcessMatchDescReq_16 & 0xFFFF
    851                {
    852                  uint8 *uint8Buf = (uint8 *)ZDOBuildBuf;
    853          
    854                  // If there are no search input/ouput clusters - respond
    855                  if ( ((numInClusters == 0) && (numOutClusters == 0))
    856                      // Are there matching input clusters?
    857                       || (ZDO_AnyClusterMatches( numInClusters, inClusters,
    858                            sDesc->AppNumInClusters, sDesc->pAppInClusterList ))
    859                      // Are there matching output clusters?
    860                       || (ZDO_AnyClusterMatches( numOutClusters, outClusters,
    861                            sDesc->AppNumOutClusters, sDesc->pAppOutClusterList ))     )
   \   0002EA   E5..         MOV     A,?V0 + 7
   \   0002EC   7007         JNZ     ??ZDO_ProcessMatchDescReq_18
   \   0002EE   E5..         MOV     A,?V0 + 12
   \   0002F0   7003         JNZ     $+5
   \   0002F2   02....       LJMP    ??ZDO_ProcessMatchDescReq_19 & 0xFFFF
   \                     ??ZDO_ProcessMatchDescReq_18:
   \   0002F5   7401         MOV     A,#0x1
   \   0002F7   12....       LCALL   ?XSTACK_DISP0_8
   \   0002FA   A3           INC     DPTR
   \   0002FB   E0           MOVX    A,@DPTR
   \   0002FC   F583         MOV     DPH,A
   \   0002FE   8882         MOV     DPL,R0
   \   000300   A3           INC     DPTR
   \   000301   A3           INC     DPTR
   \   000302   A3           INC     DPTR
   \   000303   A3           INC     DPTR
   \   000304   A3           INC     DPTR
   \   000305   A3           INC     DPTR
   \   000306   A3           INC     DPTR
   \   000307   E0           MOVX    A,@DPTR
   \   000308   F8           MOV     R0,A
   \   000309   A3           INC     DPTR
   \   00030A   E0           MOVX    A,@DPTR
   \   00030B   F9           MOV     R1,A
   \   00030C   740B         MOV     A,#0xb
   \   00030E   12....       LCALL   ?XSTACK_DISP0_8
   \   000311   E8           MOV     A,R0
   \   000312   F0           MOVX    @DPTR,A
   \   000313   A3           INC     DPTR
   \   000314   E9           MOV     A,R1
   \   000315   F0           MOVX    @DPTR,A
   \   000316   7401         MOV     A,#0x1
   \   000318   12....       LCALL   ?XSTACK_DISP0_8
   \   00031B   E0           MOVX    A,@DPTR
   \   00031C   F8           MOV     R0,A
   \   00031D   A3           INC     DPTR
   \   00031E   E0           MOVX    A,@DPTR
   \   00031F   F583         MOV     DPH,A
   \   000321   8882         MOV     DPL,R0
   \   000323   A3           INC     DPTR
   \   000324   A3           INC     DPTR
   \   000325   A3           INC     DPTR
   \   000326   A3           INC     DPTR
   \   000327   A3           INC     DPTR
   \   000328   A3           INC     DPTR
   \   000329   E0           MOVX    A,@DPTR
   \   00032A   F5..         MOV     ?V0 + 6,A
   \   00032C   75..00       MOV     ?V0 + 4,#0x0
   \   00032F   7409         MOV     A,#0x9
   \   000331   12....       LCALL   ?XSTACK_DISP0_8
   \   000334   E0           MOVX    A,@DPTR
   \   000335   FC           MOV     R4,A
   \   000336   A3           INC     DPTR
   \   000337   E0           MOVX    A,@DPTR
   \   000338   8035         SJMP    ??ZDO_ProcessMatchDescReq_20
   \                     ??ZDO_ProcessMatchDescReq_21:
   \   00033A   8C82         MOV     DPL,R4
   \   00033C   8D83         MOV     DPH,R5
   \   00033E   E0           MOVX    A,@DPTR
   \   00033F   FA           MOV     R2,A
   \   000340   A3           INC     DPTR
   \   000341   E0           MOVX    A,@DPTR
   \   000342   FB           MOV     R3,A
   \   000343   8882         MOV     DPL,R0
   \   000345   8983         MOV     DPH,R1
   \   000347   E0           MOVX    A,@DPTR
   \   000348   6A           XRL     A,R2
   \   000349   7003         JNZ     ??ZDO_ProcessMatchDescReq_22
   \   00034B   A3           INC     DPTR
   \   00034C   E0           MOVX    A,@DPTR
   \   00034D   6B           XRL     A,R3
   \                     ??ZDO_ProcessMatchDescReq_22:
   \   00034E   7003         JNZ     $+5
   \   000350   02....       LJMP    ??ZDO_ProcessMatchDescReq_19 & 0xFFFF
   \   000353   05..         INC     ?V0 + 5
   \   000355   E8           MOV     A,R0
   \   000356   2402         ADD     A,#0x2
   \   000358   08           INC     R0
   \   000359   08           INC     R0
   \   00035A   E9           MOV     A,R1
   \   00035B   3400         ADDC    A,#0x0
   \                     ??ZDO_ProcessMatchDescReq_23:
   \   00035D   F9           MOV     R1,A
   \   00035E   E5..         MOV     A,?V0 + 5
   \   000360   C3           CLR     C
   \   000361   95..         SUBB    A,?V0 + 6
   \   000363   40D5         JC      ??ZDO_ProcessMatchDescReq_21
   \   000365   05..         INC     ?V0 + 4
   \   000367   EC           MOV     A,R4
   \   000368   2402         ADD     A,#0x2
   \   00036A   0C           INC     R4
   \   00036B   0C           INC     R4
   \   00036C   ED           MOV     A,R5
   \   00036D   3400         ADDC    A,#0x0
   \                     ??ZDO_ProcessMatchDescReq_20:
   \   00036F   FD           MOV     R5,A
   \   000370   E5..         MOV     A,?V0 + 4
   \   000372   C3           CLR     C
   \   000373   95..         SUBB    A,?V0 + 7
   \   000375   500E         JNC     ??ZDO_ProcessMatchDescReq_24
   \   000377   75..00       MOV     ?V0 + 5,#0x0
   \   00037A   740B         MOV     A,#0xb
   \   00037C   12....       LCALL   ?XSTACK_DISP0_8
   \   00037F   E0           MOVX    A,@DPTR
   \   000380   F8           MOV     R0,A
   \   000381   A3           INC     DPTR
   \   000382   E0           MOVX    A,@DPTR
   \   000383   80D8         SJMP    ??ZDO_ProcessMatchDescReq_23
   \                     ??ZDO_ProcessMatchDescReq_24:
   \   000385   7401         MOV     A,#0x1
   \   000387   12....       LCALL   ?XSTACK_DISP0_8
   \   00038A   E0           MOVX    A,@DPTR
   \   00038B   F8           MOV     R0,A
   \   00038C   A3           INC     DPTR
   \   00038D   E0           MOVX    A,@DPTR
   \   00038E   F583         MOV     DPH,A
   \   000390   8882         MOV     DPL,R0
   \   000392   A3           INC     DPTR
   \   000393   A3           INC     DPTR
   \   000394   A3           INC     DPTR
   \   000395   A3           INC     DPTR
   \   000396   A3           INC     DPTR
   \   000397   A3           INC     DPTR
   \   000398   A3           INC     DPTR
   \   000399   A3           INC     DPTR
   \   00039A   A3           INC     DPTR
   \   00039B   A3           INC     DPTR
   \   00039C   E0           MOVX    A,@DPTR
   \   00039D   F8           MOV     R0,A
   \   00039E   A3           INC     DPTR
   \   00039F   E0           MOVX    A,@DPTR
   \   0003A0   F9           MOV     R1,A
   \   0003A1   740B         MOV     A,#0xb
   \   0003A3   12....       LCALL   ?XSTACK_DISP0_8
   \   0003A6   E8           MOV     A,R0
   \   0003A7   F0           MOVX    @DPTR,A
   \   0003A8   A3           INC     DPTR
   \   0003A9   E9           MOV     A,R1
   \   0003AA   F0           MOVX    @DPTR,A
   \   0003AB   7401         MOV     A,#0x1
   \   0003AD   12....       LCALL   ?XSTACK_DISP0_8
   \   0003B0   E0           MOVX    A,@DPTR
   \   0003B1   F8           MOV     R0,A
   \   0003B2   A3           INC     DPTR
   \   0003B3   E0           MOVX    A,@DPTR
   \   0003B4   F583         MOV     DPH,A
   \   0003B6   8882         MOV     DPL,R0
   \   0003B8   A3           INC     DPTR
   \   0003B9   A3           INC     DPTR
   \   0003BA   A3           INC     DPTR
   \   0003BB   A3           INC     DPTR
   \   0003BC   A3           INC     DPTR
   \   0003BD   A3           INC     DPTR
   \   0003BE   A3           INC     DPTR
   \   0003BF   A3           INC     DPTR
   \   0003C0   A3           INC     DPTR
   \   0003C1   E0           MOVX    A,@DPTR
   \   0003C2   F5..         MOV     ?V0 + 6,A
   \   0003C4   75..00       MOV     ?V0 + 4,#0x0
   \   0003C7   7407         MOV     A,#0x7
   \   0003C9   12....       LCALL   ?XSTACK_DISP0_8
   \   0003CC   E0           MOVX    A,@DPTR
   \   0003CD   FC           MOV     R4,A
   \   0003CE   A3           INC     DPTR
   \   0003CF   E0           MOVX    A,@DPTR
   \   0003D0   801C         SJMP    ??ZDO_ProcessMatchDescReq_25
   \                     ??ZDO_ProcessMatchDescReq_26:
   \   0003D2   05..         INC     ?V0 + 5
   \   0003D4   E8           MOV     A,R0
   \   0003D5   2402         ADD     A,#0x2
   \   0003D7   08           INC     R0
   \   0003D8   08           INC     R0
   \   0003D9   E9           MOV     A,R1
   \   0003DA   3400         ADDC    A,#0x0
   \                     ??ZDO_ProcessMatchDescReq_27:
   \   0003DC   F9           MOV     R1,A
   \   0003DD   E5..         MOV     A,?V0 + 5
   \   0003DF   C3           CLR     C
   \   0003E0   95..         SUBB    A,?V0 + 6
   \   0003E2   4023         JC      ??ZDO_ProcessMatchDescReq_28
   \   0003E4   05..         INC     ?V0 + 4
   \   0003E6   EC           MOV     A,R4
   \   0003E7   2402         ADD     A,#0x2
   \   0003E9   0C           INC     R4
   \   0003EA   0C           INC     R4
   \   0003EB   ED           MOV     A,R5
   \   0003EC   3400         ADDC    A,#0x0
   \                     ??ZDO_ProcessMatchDescReq_25:
   \   0003EE   FD           MOV     R5,A
   \   0003EF   E5..         MOV     A,?V0 + 4
   \   0003F1   C3           CLR     C
   \   0003F2   95..         SUBB    A,?V0 + 12
   \   0003F4   4003         JC      $+5
   \   0003F6   02....       LJMP    ??ZDO_ProcessMatchDescReq_16 & 0xFFFF
   \   0003F9   75..00       MOV     ?V0 + 5,#0x0
   \   0003FC   740B         MOV     A,#0xb
   \   0003FE   12....       LCALL   ?XSTACK_DISP0_8
   \   000401   E0           MOVX    A,@DPTR
   \   000402   F8           MOV     R0,A
   \   000403   A3           INC     DPTR
   \   000404   E0           MOVX    A,@DPTR
   \   000405   80D5         SJMP    ??ZDO_ProcessMatchDescReq_27
   \                     ??ZDO_ProcessMatchDescReq_28:
   \   000407   8C82         MOV     DPL,R4
   \   000409   8D83         MOV     DPH,R5
   \   00040B   E0           MOVX    A,@DPTR
   \   00040C   FA           MOV     R2,A
   \   00040D   A3           INC     DPTR
   \   00040E   E0           MOVX    A,@DPTR
   \   00040F   FB           MOV     R3,A
   \   000410   8882         MOV     DPL,R0
   \   000412   8983         MOV     DPH,R1
   \   000414   E0           MOVX    A,@DPTR
   \   000415   6A           XRL     A,R2
   \   000416   7003         JNZ     ??ZDO_ProcessMatchDescReq_29
   \   000418   A3           INC     DPTR
   \   000419   E0           MOVX    A,@DPTR
   \   00041A   6B           XRL     A,R3
   \                     ??ZDO_ProcessMatchDescReq_29:
   \   00041B   70B5         JNZ     ??ZDO_ProcessMatchDescReq_26
    862                  {
    863                    // Notify the endpoint of the match.
    864                    uint8 bufLen = sizeof( ZDO_MatchDescRspSent_t ) + (numOutClusters + numInClusters) * sizeof(uint16);
    865                    ZDO_MatchDescRspSent_t *pRspSent = (ZDO_MatchDescRspSent_t *) osal_msg_allocate( bufLen );
   \                     ??ZDO_ProcessMatchDescReq_19:
   \   00041D                ; Setup parameters for call to function osal_msg_allocate
   \   00041D   AA..         MOV     R2,?V0 + 8
   \   00041F   AB..         MOV     R3,?V0 + 9
   \   000421   12....       LCALL   ??osal_msg_allocate?relay
   \   000424   8A..         MOV     ?V0 + 14,R2
   \   000426   8B..         MOV     ?V0 + 15,R3
    866          
    867                    if (pRspSent)
   \   000428   EA           MOV     A,R2
   \   000429   45..         ORL     A,?V0 + 15
   \   00042B   7003         JNZ     $+5
   \   00042D   02....       LJMP    ??ZDO_ProcessMatchDescReq_30 & 0xFFFF
    868                    {
    869                      pRspSent->hdr.event = ZDO_MATCH_DESC_RSP_SENT;
   \   000430   8A82         MOV     DPL,R2
   \   000432   8B83         MOV     DPH,R3
   \   000434   74D2         MOV     A,#-0x2e
   \   000436   F0           MOVX    @DPTR,A
    870                      pRspSent->nwkAddr = inMsg->srcAddr.addr.shortAddr;
   \   000437   740D         MOV     A,#0xd
   \   000439   12....       LCALL   ?XSTACK_DISP0_8
   \   00043C   E0           MOVX    A,@DPTR
   \   00043D   F8           MOV     R0,A
   \   00043E   A3           INC     DPTR
   \   00043F   E0           MOVX    A,@DPTR
   \   000440   F583         MOV     DPH,A
   \   000442   8882         MOV     DPL,R0
   \   000444   E0           MOVX    A,@DPTR
   \   000445   F8           MOV     R0,A
   \   000446   A3           INC     DPTR
   \   000447   E0           MOVX    A,@DPTR
   \   000448   F9           MOV     R1,A
   \   000449   8A82         MOV     DPL,R2
   \   00044B   8B83         MOV     DPH,R3
   \   00044D   A3           INC     DPTR
   \   00044E   A3           INC     DPTR
   \   00044F   E8           MOV     A,R0
   \   000450   F0           MOVX    @DPTR,A
   \   000451   A3           INC     DPTR
   \   000452   E9           MOV     A,R1
   \   000453   F0           MOVX    @DPTR,A
    871                      pRspSent->numInClusters = numInClusters;
   \   000454   8A82         MOV     DPL,R2
   \   000456   8B83         MOV     DPH,R3
   \   000458   A3           INC     DPTR
   \   000459   A3           INC     DPTR
   \   00045A   A3           INC     DPTR
   \   00045B   A3           INC     DPTR
   \   00045C   E5..         MOV     A,?V0 + 7
   \   00045E   F0           MOVX    @DPTR,A
    872                      pRspSent->numOutClusters = numOutClusters;
   \   00045F   8A82         MOV     DPL,R2
   \   000461   8B83         MOV     DPH,R3
   \   000463   A3           INC     DPTR
   \   000464   A3           INC     DPTR
   \   000465   A3           INC     DPTR
   \   000466   A3           INC     DPTR
   \   000467   A3           INC     DPTR
   \   000468   A3           INC     DPTR
   \   000469   A3           INC     DPTR
   \   00046A   E5..         MOV     A,?V0 + 12
   \   00046C   F0           MOVX    @DPTR,A
    873          
    874                      if (numInClusters)
   \   00046D   EA           MOV     A,R2
   \   00046E   2405         ADD     A,#0x5
   \   000470   FA           MOV     R2,A
   \   000471   EB           MOV     A,R3
   \   000472   3400         ADDC    A,#0x0
   \   000474   FB           MOV     R3,A
   \   000475   E5..         MOV     A,?V0 + 7
   \   000477   603E         JZ      ??ZDO_ProcessMatchDescReq_31
    875                      {
    876                        pRspSent->pInClusters = (uint16*) (pRspSent + 1);
   \   000479   E5..         MOV     A,?V0 + 14
   \   00047B   240A         ADD     A,#0xa
   \   00047D   F8           MOV     R0,A
   \   00047E   E5..         MOV     A,?V0 + 15
   \   000480   3400         ADDC    A,#0x0
   \   000482   F9           MOV     R1,A
   \   000483   8A82         MOV     DPL,R2
   \   000485   8B83         MOV     DPH,R3
   \   000487   E8           MOV     A,R0
   \   000488   F0           MOVX    @DPTR,A
   \   000489   A3           INC     DPTR
   \   00048A   E9           MOV     A,R1
   \   00048B   F0           MOVX    @DPTR,A
    877                        osal_memcpy(pRspSent->pInClusters, inClusters, numInClusters * sizeof(uint16));
   \   00048C                ; Setup parameters for call to function osal_memcpy
   \   00048C   7409         MOV     A,#0x9
   \   00048E   12....       LCALL   ?XSTACK_DISP0_8
   \   000491   E0           MOVX    A,@DPTR
   \   000492   F5..         MOV     ?V0 + 4,A
   \   000494   A3           INC     DPTR
   \   000495   E0           MOVX    A,@DPTR
   \   000496   F5..         MOV     ?V0 + 5,A
   \   000498   75..00       MOV     ?V0 + 6,#0x0
   \   00049B   78..         MOV     R0,#?V0 + 4
   \   00049D   12....       LCALL   ?PUSH_XSTACK_I_THREE
   \   0004A0   AC..         MOV     R4,?V0 + 0
   \   0004A2   AD..         MOV     R5,?V0 + 1
   \   0004A4   8A82         MOV     DPL,R2
   \   0004A6   8B83         MOV     DPH,R3
   \   0004A8   E0           MOVX    A,@DPTR
   \   0004A9   FA           MOV     R2,A
   \   0004AA   A3           INC     DPTR
   \   0004AB   E0           MOVX    A,@DPTR
   \   0004AC   FB           MOV     R3,A
   \   0004AD   12....       LCALL   ??osal_memcpy?relay
   \   0004B0   7403         MOV     A,#0x3
   \   0004B2   12....       LCALL   ?DEALLOC_XSTACK8
   \   0004B5   8008         SJMP    ??ZDO_ProcessMatchDescReq_32
    878                      }
    879                      else
    880                      {
    881                        pRspSent->pInClusters = NULL;
   \                     ??ZDO_ProcessMatchDescReq_31:
   \   0004B7   8A82         MOV     DPL,R2
   \   0004B9   8B83         MOV     DPH,R3
   \   0004BB   E4           CLR     A
   \   0004BC   F0           MOVX    @DPTR,A
   \   0004BD   A3           INC     DPTR
   \   0004BE   F0           MOVX    @DPTR,A
    882                      }
    883          
    884                      if (numOutClusters)
   \                     ??ZDO_ProcessMatchDescReq_32:
   \   0004BF   E5..         MOV     A,?V0 + 14
   \   0004C1   2408         ADD     A,#0x8
   \   0004C3   F582         MOV     DPL,A
   \   0004C5   E5..         MOV     A,?V0 + 15
   \   0004C7   3400         ADDC    A,#0x0
   \   0004C9   F583         MOV     DPH,A
   \   0004CB   E5..         MOV     A,?V0 + 12
   \   0004CD   6039         JZ      ??ZDO_ProcessMatchDescReq_33
    885                      {
    886                        pRspSent->pOutClusters = (uint16*)(pRspSent + 1) + numInClusters;
   \   0004CF   E5..         MOV     A,?V0 + 14
   \   0004D1   25..         ADD     A,?V0 + 2
   \   0004D3   F8           MOV     R0,A
   \   0004D4   E5..         MOV     A,?V0 + 15
   \   0004D6   35..         ADDC    A,?V0 + 3
   \   0004D8   F9           MOV     R1,A
   \   0004D9   E8           MOV     A,R0
   \   0004DA   240A         ADD     A,#0xa
   \   0004DC   FA           MOV     R2,A
   \   0004DD   E9           MOV     A,R1
   \   0004DE   3400         ADDC    A,#0x0
   \   0004E0   FB           MOV     R3,A
   \   0004E1   EA           MOV     A,R2
   \   0004E2   F0           MOVX    @DPTR,A
   \   0004E3   A3           INC     DPTR
   \   0004E4   EB           MOV     A,R3
   \   0004E5   F0           MOVX    @DPTR,A
    887                        osal_memcpy(pRspSent->pOutClusters, outClusters, numOutClusters * sizeof(uint16));
   \   0004E6                ; Setup parameters for call to function osal_memcpy
   \   0004E6   7407         MOV     A,#0x7
   \   0004E8   12....       LCALL   ?XSTACK_DISP0_8
   \   0004EB   E0           MOVX    A,@DPTR
   \   0004EC   F5..         MOV     ?V0 + 4,A
   \   0004EE   A3           INC     DPTR
   \   0004EF   E0           MOVX    A,@DPTR
   \   0004F0   F5..         MOV     ?V0 + 5,A
   \   0004F2   75..00       MOV     ?V0 + 6,#0x0
   \   0004F5   78..         MOV     R0,#?V0 + 4
   \   0004F7   12....       LCALL   ?PUSH_XSTACK_I_THREE
   \   0004FA   EE           MOV     A,R6
   \   0004FB   FC           MOV     R4,A
   \   0004FC   EF           MOV     A,R7
   \   0004FD   FD           MOV     R5,A
   \   0004FE   12....       LCALL   ??osal_memcpy?relay
   \   000501   7403         MOV     A,#0x3
   \   000503   12....       LCALL   ?DEALLOC_XSTACK8
   \   000506   8004         SJMP    ??ZDO_ProcessMatchDescReq_34
    888                      }
    889                      else
    890                      {
    891                        pRspSent->pOutClusters = NULL;
   \                     ??ZDO_ProcessMatchDescReq_33:
   \   000508   E4           CLR     A
   \   000509   F0           MOVX    @DPTR,A
   \   00050A   A3           INC     DPTR
   \   00050B   F0           MOVX    @DPTR,A
    892                      }
    893          
    894                      osal_msg_send( *epDesc->epDesc->task_id, (uint8 *)pRspSent );
   \                     ??ZDO_ProcessMatchDescReq_34:
   \   00050C                ; Setup parameters for call to function osal_msg_send
   \   00050C   AA..         MOV     R2,?V0 + 14
   \   00050E   AB..         MOV     R3,?V0 + 15
   \   000510   7403         MOV     A,#0x3
   \   000512   12....       LCALL   ?XSTACK_DISP0_8
   \   000515   E0           MOVX    A,@DPTR
   \   000516   F8           MOV     R0,A
   \   000517   A3           INC     DPTR
   \   000518   E0           MOVX    A,@DPTR
   \   000519   F583         MOV     DPH,A
   \   00051B   8882         MOV     DPL,R0
   \   00051D   E0           MOVX    A,@DPTR
   \   00051E   F8           MOV     R0,A
   \   00051F   A3           INC     DPTR
   \   000520   E0           MOVX    A,@DPTR
   \   000521   F583         MOV     DPH,A
   \   000523   8882         MOV     DPL,R0
   \   000525   A3           INC     DPTR
   \   000526   E0           MOVX    A,@DPTR
   \   000527   F8           MOV     R0,A
   \   000528   A3           INC     DPTR
   \   000529   E0           MOVX    A,@DPTR
   \   00052A   F583         MOV     DPH,A
   \   00052C   8882         MOV     DPL,R0
   \   00052E   E0           MOVX    A,@DPTR
   \   00052F   F9           MOV     R1,A
   \   000530   12....       LCALL   ??osal_msg_send?relay
    895                    }
    896          
    897                    uint8Buf[epCnt++] = sDesc->EndPoint;
   \                     ??ZDO_ProcessMatchDescReq_30:
   \   000533   7401         MOV     A,#0x1
   \   000535   12....       LCALL   ?XSTACK_DISP0_8
   \   000538   E0           MOVX    A,@DPTR
   \   000539   F8           MOV     R0,A
   \   00053A   A3           INC     DPTR
   \   00053B   E0           MOVX    A,@DPTR
   \   00053C   F583         MOV     DPH,A
   \   00053E   8882         MOV     DPL,R0
   \   000540   E0           MOVX    A,@DPTR
   \   000541   C0E0         PUSH    A
   \   000543   85....       MOV     ?V0 + 4,?V0 + 13
   \   000546   74..         MOV     A,#ZDOBuildBuf & 0xff
   \   000548   25..         ADD     A,?V0 + 4
   \   00054A   F582         MOV     DPL,A
   \   00054C   74..         MOV     A,#(ZDOBuildBuf >> 8) & 0xff
   \   00054E   3400         ADDC    A,#0x0
   \   000550   F583         MOV     DPH,A
   \   000552   D0E0         POP     A
   \   000554   F0           MOVX    @DPTR,A
   \   000555   05..         INC     ?V0 + 13
    898                  }
    899                }
    900          
    901                if ( allocated )
   \                     ??ZDO_ProcessMatchDescReq_16:
   \   000557   85..82       MOV     DPL,?XSP + 0
   \   00055A   85..83       MOV     DPH,?XSP + 1
   \   00055D   E0           MOVX    A,@DPTR
   \   00055E   A2E0         MOV     C,0xE0 /* A   */.0
   \   000560   500D         JNC     ??ZDO_ProcessMatchDescReq_13
    902                  osal_mem_free( sDesc );
   \   000562                ; Setup parameters for call to function osal_mem_free
   \   000562   7401         MOV     A,#0x1
   \   000564   12....       LCALL   ?XSTACK_DISP0_8
   \   000567   E0           MOVX    A,@DPTR
   \   000568   FA           MOV     R2,A
   \   000569   A3           INC     DPTR
   \   00056A   E0           MOVX    A,@DPTR
   \   00056B   FB           MOV     R3,A
   \   00056C   12....       LCALL   ??osal_mem_free?relay
    903              }
    904              epDesc = epDesc->nextDesc;
   \                     ??ZDO_ProcessMatchDescReq_13:
   \   00056F   7403         MOV     A,#0x3
   \   000571   12....       LCALL   ?XSTACK_DISP0_8
   \   000574   E0           MOVX    A,@DPTR
   \   000575   F8           MOV     R0,A
   \   000576   A3           INC     DPTR
   \   000577   E0           MOVX    A,@DPTR
   \   000578   F583         MOV     DPH,A
   \   00057A   8882         MOV     DPL,R0
   \   00057C   A3           INC     DPTR
   \   00057D   A3           INC     DPTR
   \   00057E   A3           INC     DPTR
   \   00057F   A3           INC     DPTR
   \   000580   A3           INC     DPTR
   \   000581   E0           MOVX    A,@DPTR
   \   000582   F8           MOV     R0,A
   \   000583   A3           INC     DPTR
   \   000584   E0           MOVX    A,@DPTR
   \   000585   F9           MOV     R1,A
   \   000586   7403         MOV     A,#0x3
   \   000588   12....       LCALL   ?XSTACK_DISP0_8
   \   00058B   E8           MOV     A,R0
   \   00058C   F0           MOVX    @DPTR,A
   \   00058D   A3           INC     DPTR
   \   00058E   E9           MOV     A,R1
   \   00058F   F0           MOVX    @DPTR,A
   \   000590   7403         MOV     A,#0x3
   \   000592   12....       LCALL   ?XSTACK_DISP0_8
   \   000595   E0           MOVX    A,@DPTR
   \   000596   49           ORL     A,R1
   \   000597   6003         JZ      $+5
   \   000599   02....       LJMP    ??ZDO_ProcessMatchDescReq_12 & 0xFFFF
    905            }
    906          
    907            // Send the message only if at least one match found.
    908            if ( epCnt )
   \   00059C   E5..         MOV     A,?V0 + 13
   \   00059E   6073         JZ      ??ZDO_ProcessMatchDescReq_11
    909            {
    910              if ( ZSuccess == ZDP_MatchDescRsp( inMsg->TransSeq, &(inMsg->srcAddr), ZDP_SUCCESS,
    911                        ZDAppNwkAddr.addr.shortAddr, epCnt, (uint8 *)ZDOBuildBuf, inMsg->SecurityUse ) )
   \   0005A0                ; Setup parameters for call to function ZDP_EPRsp
   \   0005A0   7405         MOV     A,#0x5
   \   0005A2   12....       LCALL   ?XSTACK_DISP0_8
   \   0005A5   E0           MOVX    A,@DPTR
   \   0005A6   240E         ADD     A,#0xe
   \   0005A8   F8           MOV     R0,A
   \   0005A9   A3           INC     DPTR
   \   0005AA   E0           MOVX    A,@DPTR
   \   0005AB   3400         ADDC    A,#0x0
   \   0005AD   F9           MOV     R1,A
   \   0005AE   8882         MOV     DPL,R0
   \   0005B0   8983         MOV     DPH,R1
   \   0005B2   E0           MOVX    A,@DPTR
   \   0005B3   F5..         MOV     ?V0 + 0,A
   \   0005B5   78..         MOV     R0,#?V0 + 0
   \   0005B7   12....       LCALL   ?PUSH_XSTACK_I_ONE
   \   0005BA   75....       MOV     ?V0 + 0,#ZDOBuildBuf & 0xff
   \   0005BD   75....       MOV     ?V0 + 1,#(ZDOBuildBuf >> 8) & 0xff
   \   0005C0   78..         MOV     R0,#?V0 + 0
   \   0005C2   12....       LCALL   ?PUSH_XSTACK_I_TWO
   \   0005C5   E5..         MOV     A,?V0 + 13
   \   0005C7   F5..         MOV     ?V0 + 0,A
   \   0005C9   78..         MOV     R0,#?V0 + 0
   \   0005CB   12....       LCALL   ?PUSH_XSTACK_I_ONE
   \   0005CE   90....       MOV     DPTR,#ZDAppNwkAddr
   \   0005D1   12....       LCALL   ?PUSH_XSTACK8_X_TWO
   \   0005D4   75..00       MOV     ?V0 + 0,#0x0
   \   0005D7   78..         MOV     R0,#?V0 + 0
   \   0005D9   12....       LCALL   ?PUSH_XSTACK_I_ONE
   \   0005DC   740C         MOV     A,#0xc
   \   0005DE   12....       LCALL   ?XSTACK_DISP0_8
   \   0005E1   E0           MOVX    A,@DPTR
   \   0005E2   2402         ADD     A,#0x2
   \   0005E4   FC           MOV     R4,A
   \   0005E5   A3           INC     DPTR
   \   0005E6   E0           MOVX    A,@DPTR
   \   0005E7   3400         ADDC    A,#0x0
   \   0005E9   FD           MOV     R5,A
   \   0005EA   740C         MOV     A,#0xc
   \   0005EC   12....       LCALL   ?XSTACK_DISP0_8
   \   0005EF   E0           MOVX    A,@DPTR
   \   0005F0   240F         ADD     A,#0xf
   \   0005F2   F8           MOV     R0,A
   \   0005F3   A3           INC     DPTR
   \   0005F4   E0           MOVX    A,@DPTR
   \   0005F5   3400         ADDC    A,#0x0
   \   0005F7   F9           MOV     R1,A
   \   0005F8   8882         MOV     DPL,R0
   \   0005FA   8983         MOV     DPH,R1
   \   0005FC   E0           MOVX    A,@DPTR
   \   0005FD   F9           MOV     R1,A
   \   0005FE   7A06         MOV     R2,#0x6
   \   000600   7B80         MOV     R3,#-0x80
   \   000602   12....       LCALL   ??ZDP_EPRsp?relay
   \   000605   7407         MOV     A,#0x7
   \   000607   12....       LCALL   ?DEALLOC_XSTACK8
   \   00060A   E9           MOV     A,R1
   \   00060B   7011         JNZ     ??ZDO_ProcessMatchDescReq_35
    912              {
    913          #if defined( LCD_SUPPORTED )
    914                HalLcdWriteScreen( "Match Desc Req", "Rsp Sent" );
   \   00060D                ; Setup parameters for call to function HalLcdWriteScreen
   \   00060D   7C..         MOV     R4,#`?<Constant "Rsp Sent">` & 0xff
   \   00060F   7D..         MOV     R5,#(`?<Constant "Rsp Sent">` >> 8) & 0xff
   \   000611   8004         SJMP    ??ZDO_ProcessMatchDescReq_36
    915          #endif
    916              }
    917            }
    918            else
    919            {
    920          #if defined( LCD_SUPPORTED )
    921              HalLcdWriteScreen( "Match Desc Req", "Non Matched" );
   \                     ??ZDO_ProcessMatchDescReq_11:
   \   000613                ; Setup parameters for call to function HalLcdWriteScreen
   \   000613   7C..         MOV     R4,#`?<Constant "Non Matched">` & 0xff
   \   000615   7D..         MOV     R5,#(`?<Constant "Non Matched">` >> 8) & 0xff
   \                     ??ZDO_ProcessMatchDescReq_36:
   \   000617   7A..         MOV     R2,#`?<Constant "Match Desc Req">` & 0xff
   \   000619   7B..         MOV     R3,#(`?<Constant "Match Desc Req">` >> 8) & 0xff
   \   00061B   12....       LCALL   ??HalLcdWriteScreen?relay
    922          #endif
    923            }
    924          
    925            if ( inClusters != NULL )
   \                     ??ZDO_ProcessMatchDescReq_35:
   \   00061E   7409         MOV     A,#0x9
   \   000620   12....       LCALL   ?XSTACK_DISP0_8
   \   000623   E0           MOVX    A,@DPTR
   \   000624   F8           MOV     R0,A
   \   000625   A3           INC     DPTR
   \   000626   E0           MOVX    A,@DPTR
   \   000627   F9           MOV     R1,A
   \   000628   E8           MOV     A,R0
   \   000629   49           ORL     A,R1
   \   00062A   600D         JZ      ??ZDO_ProcessMatchDescReq_37
    926              osal_mem_free( inClusters );
   \   00062C                ; Setup parameters for call to function osal_mem_free
   \   00062C   7409         MOV     A,#0x9
   \   00062E   12....       LCALL   ?XSTACK_DISP0_8
   \   000631   E0           MOVX    A,@DPTR
   \   000632   FA           MOV     R2,A
   \   000633   A3           INC     DPTR
   \   000634   E0           MOVX    A,@DPTR
   \   000635   FB           MOV     R3,A
   \   000636   12....       LCALL   ??osal_mem_free?relay
    927            if ( outClusters != NULL )
   \                     ??ZDO_ProcessMatchDescReq_37:
   \   000639   7407         MOV     A,#0x7
   \   00063B   12....       LCALL   ?XSTACK_DISP0_8
   \   00063E   E0           MOVX    A,@DPTR
   \   00063F   F8           MOV     R0,A
   \   000640   A3           INC     DPTR
   \   000641   E0           MOVX    A,@DPTR
   \   000642   F9           MOV     R1,A
   \   000643   E8           MOV     A,R0
   \   000644   49           ORL     A,R1
   \   000645   600D         JZ      ??ZDO_ProcessMatchDescReq_2
    928              osal_mem_free( outClusters );
   \   000647                ; Setup parameters for call to function osal_mem_free
   \   000647   7407         MOV     A,#0x7
   \   000649   12....       LCALL   ?XSTACK_DISP0_8
   \   00064C   E0           MOVX    A,@DPTR
   \   00064D   FA           MOV     R2,A
   \   00064E   A3           INC     DPTR
   \   00064F   E0           MOVX    A,@DPTR
   \   000650   FB           MOV     R3,A
   \   000651   12....       LCALL   ??osal_mem_free?relay
   \                     ??ZDO_ProcessMatchDescReq_2:
   \   000654   740F         MOV     A,#0xf
   \   000656                REQUIRE ?Subroutine5
   \   000656                ; // Fall through to label ?Subroutine5
    929          }

   \                                 In  segment BANKED_CODE, align 1, keep-with-next
   \                     ?Subroutine5:
   \   000000   12....       LCALL   ?DEALLOC_XSTACK8
   \   000003                REQUIRE ??Subroutine13_0
   \   000003                ; // Fall through to label ??Subroutine13_0

   \                                 In  segment BANKED_CODE, align 1, keep-with-next
   \                     ??Subroutine13_0:
   \   000000   7F10         MOV     R7,#0x10
   \   000002   02....       LJMP    ?BANKED_LEAVE_XDATA
    930          
    931          
    932          /*********************************************************************
    933           * @fn      ZDO_ProcessBindUnbindReq()
    934           *
    935           * @brief   Called to process a Bind or Unbind Request message.
    936           *
    937           * @param   inMsg  - incoming message (request)
    938           * @param   pReq - place to put parsed information
    939           *
    940           * @return  none
    941           */

   \                                 In  segment BANKED_CODE, align 1, keep-with-next
    942          void ZDO_ProcessBindUnbindReq( zdoIncomingMsg_t *inMsg, ZDO_BindUnbindReq_t *pReq )
   \                     ZDO_ProcessBindUnbindReq:
    943          {
   \   000000   74EF         MOV     A,#-0x11
   \   000002   12....       LCALL   ?BANKED_ENTER_XDATA
   \   000005                ; Saved register size: 17
   \   000005                ; Auto size: 12
   \   000005   74F4         MOV     A,#-0xc
   \   000007   12....       LCALL   ?ALLOC_XSTACK8
   \   00000A   EA           MOV     A,R2
   \   00000B   FE           MOV     R6,A
   \   00000C   EB           MOV     A,R3
   \   00000D   FF           MOV     R7,A
   \   00000E   8C..         MOV     ?V0 + 2,R4
   \   000010   8D..         MOV     ?V0 + 3,R5
    944            zAddrType_t SourceAddr;       // Binding Source addres
    945            byte bindStat;
    946          
    947            SourceAddr.addrMode = Addr64Bit;
   \   000012   740B         MOV     A,#0xb
   \   000014   12....       LCALL   ?XSTACK_DISP0_8
   \   000017   7403         MOV     A,#0x3
   \   000019   F0           MOVX    @DPTR,A
    948            osal_cpyExtAddr( SourceAddr.addr.extAddr, pReq->srcAddress );
   \   00001A                ; Setup parameters for call to function sAddrExtCpy
   \   00001A   12....       LCALL   ?XSTACK_DISP0_8
   \   00001D   AA82         MOV     R2,DPL
   \   00001F   AB83         MOV     R3,DPH
   \   000021   12....       LCALL   ??sAddrExtCpy?relay
    949          
    950          
    951            // If the local device is not the primary binding cache
    952            // check the src address of the bind request.
    953            // If it is not the local device's extended address
    954            // discard the request.
    955            if ( !osal_ExtAddrEqual( SourceAddr.addr.extAddr, NLME_GetExtAddr()) ||
    956                  (pReq->dstAddress.addrMode != Addr64Bit &&
    957                   pReq->dstAddress.addrMode != AddrGroup) )
   \   000024                ; Setup parameters for call to function sAddrExtCmp
   \   000024                ; Setup parameters for call to function NLME_GetExtAddr
   \   000024   12....       LCALL   ??NLME_GetExtAddr?relay
   \   000027   EA           MOV     A,R2
   \   000028   FC           MOV     R4,A
   \   000029   EB           MOV     A,R3
   \   00002A   FD           MOV     R5,A
   \   00002B   7403         MOV     A,#0x3
   \   00002D   12....       LCALL   ?XSTACK_DISP0_8
   \   000030   AA82         MOV     R2,DPL
   \   000032   AB83         MOV     R3,DPH
   \   000034   12....       LCALL   ??sAddrExtCmp?relay
   \   000037   E9           MOV     A,R1
   \   000038   601D         JZ      ??ZDO_ProcessBindUnbindReq_0
   \   00003A   E5..         MOV     A,?V0 + 2
   \   00003C   2413         ADD     A,#0x13
   \   00003E   F5..         MOV     ?V0 + 6,A
   \   000040   E5..         MOV     A,?V0 + 3
   \   000042   3400         ADDC    A,#0x0
   \   000044   F5..         MOV     ?V0 + 7,A
   \   000046   85..82       MOV     DPL,?V0 + 6
   \   000049   F583         MOV     DPH,A
   \   00004B   E0           MOVX    A,@DPTR
   \   00004C   F8           MOV     R0,A
   \   00004D   7403         MOV     A,#0x3
   \   00004F   68           XRL     A,R0
   \   000050   6010         JZ      ??ZDO_ProcessBindUnbindReq_1
   \   000052   7401         MOV     A,#0x1
   \   000054   68           XRL     A,R0
   \   000055   600B         JZ      ??ZDO_ProcessBindUnbindReq_1
    958            {
    959              bindStat = ZDP_NOT_SUPPORTED;
   \                     ??ZDO_ProcessBindUnbindReq_0:
   \   000057   85..82       MOV     DPL,?XSP + 0
   \   00005A   85..83       MOV     DPH,?XSP + 1
   \   00005D   7484         MOV     A,#-0x7c
   \   00005F   02....       LJMP    ??ZDO_ProcessBindUnbindReq_2 & 0xFFFF
    960            }
    961            else
    962            {
    963              // Check source & destination endpoints
    964              if ( (pReq->srcEndpoint == 0 || pReq->srcEndpoint > MAX_ENDPOINTS)
    965                  || (( pReq->dstAddress.addrMode == Addr64Bit ) &&
    966                      (pReq->dstEndpoint == 0 || pReq->dstEndpoint > MAX_ENDPOINTS)) )
   \                     ??ZDO_ProcessBindUnbindReq_1:
   \   000062   E5..         MOV     A,?V0 + 2
   \   000064   2408         ADD     A,#0x8
   \   000066   F5..         MOV     ?V0 + 0,A
   \   000068   E5..         MOV     A,?V0 + 3
   \   00006A   3400         ADDC    A,#0x0
   \   00006C   F5..         MOV     ?V0 + 1,A
   \   00006E   85..82       MOV     DPL,?V0 + 0
   \   000071   F583         MOV     DPH,A
   \   000073   E0           MOVX    A,@DPTR
   \   000074   F9           MOV     R1,A
   \   000075   601E         JZ      ??ZDO_ProcessBindUnbindReq_3
   \   000077   C3           CLR     C
   \   000078   94F1         SUBB    A,#-0xf
   \   00007A   5019         JNC     ??ZDO_ProcessBindUnbindReq_3
   \   00007C   7403         MOV     A,#0x3
   \   00007E   68           XRL     A,R0
   \   00007F   701F         JNZ     ??ZDO_ProcessBindUnbindReq_4
   \   000081   E5..         MOV     A,?V0 + 2
   \   000083   2414         ADD     A,#0x14
   \   000085   F582         MOV     DPL,A
   \   000087   E5..         MOV     A,?V0 + 3
   \   000089   3400         ADDC    A,#0x0
   \   00008B   F583         MOV     DPH,A
   \   00008D   E0           MOVX    A,@DPTR
   \   00008E   6005         JZ      ??ZDO_ProcessBindUnbindReq_3
   \   000090   C3           CLR     C
   \   000091   94F1         SUBB    A,#-0xf
   \   000093   400B         JC      ??ZDO_ProcessBindUnbindReq_4
    967              {
    968                bindStat = ZDP_INVALID_EP;
   \                     ??ZDO_ProcessBindUnbindReq_3:
   \   000095   85..82       MOV     DPL,?XSP + 0
   \   000098   85..83       MOV     DPH,?XSP + 1
   \   00009B   7482         MOV     A,#-0x7e
   \   00009D   02....       LJMP    ??ZDO_ProcessBindUnbindReq_2 & 0xFFFF
    969              }
    970              else
    971              {
    972                if ( inMsg->clusterID == Bind_req )
   \                     ??ZDO_ProcessBindUnbindReq_4:
   \   0000A0   EE           MOV     A,R6
   \   0000A1   240C         ADD     A,#0xc
   \   0000A3   F582         MOV     DPL,A
   \   0000A5   EF           MOV     A,R7
   \   0000A6   3400         ADDC    A,#0x0
   \   0000A8   F583         MOV     DPH,A
   \   0000AA   E0           MOVX    A,@DPTR
   \   0000AB   6421         XRL     A,#0x21
   \   0000AD   7002         JNZ     ??ZDO_ProcessBindUnbindReq_5
   \   0000AF   A3           INC     DPTR
   \   0000B0   E0           MOVX    A,@DPTR
   \                     ??ZDO_ProcessBindUnbindReq_5:
   \   0000B1   6003         JZ      $+5
   \   0000B3   02....       LJMP    ??ZDO_ProcessBindUnbindReq_6 & 0xFFFF
    973                {
    974                  // Assume the table is full
    975                  bindStat = ZDP_TABLE_FULL;
   \   0000B6   85..82       MOV     DPL,?XSP + 0
   \   0000B9   85..83       MOV     DPH,?XSP + 1
   \   0000BC   7487         MOV     A,#-0x79
   \   0000BE   F0           MOVX    @DPTR,A
    976          
    977                  if ( bindNumOfEntries() < gNWK_MAX_BINDING_ENTRIES )
   \   0000BF                ; Setup parameters for call to function bindNumOfEntries
   \   0000BF   12....       LCALL   ??bindNumOfEntries?relay
   \   0000C2   90....       MOV     DPTR,#gNWK_MAX_BINDING_ENTRIES
   \   0000C5   E4           CLR     A
   \   0000C6   93           MOVC    A,@A+DPTR
   \   0000C7   F8           MOV     R0,A
   \   0000C8   7401         MOV     A,#0x1
   \   0000CA   93           MOVC    A,@A+DPTR
   \   0000CB   F9           MOV     R1,A
   \   0000CC   C3           CLR     C
   \   0000CD   EA           MOV     A,R2
   \   0000CE   98           SUBB    A,R0
   \   0000CF   EB           MOV     A,R3
   \   0000D0   99           SUBB    A,R1
   \   0000D1   4003         JC      $+5
   \   0000D3   02....       LJMP    ??ZDO_ProcessBindUnbindReq_7 & 0xFFFF
    978                  {
    979                    if ( APSME_BindRequest( pReq->srcEndpoint, pReq->clusterID,
    980                                   &(pReq->dstAddress), pReq->dstEndpoint ) == ZSuccess )
   \   0000D6   E5..         MOV     A,?V0 + 2
   \   0000D8   240B         ADD     A,#0xb
   \   0000DA   F5..         MOV     ?V0 + 4,A
   \   0000DC   E5..         MOV     A,?V0 + 3
   \   0000DE   3400         ADDC    A,#0x0
   \   0000E0   F5..         MOV     ?V0 + 5,A
   \   0000E2                ; Setup parameters for call to function APSME_BindRequest
   \   0000E2   E5..         MOV     A,?V0 + 2
   \   0000E4   2414         ADD     A,#0x14
   \   0000E6   F582         MOV     DPL,A
   \   0000E8   E5..         MOV     A,?V0 + 3
   \   0000EA   3400         ADDC    A,#0x0
   \   0000EC   F583         MOV     DPH,A
   \   0000EE   E0           MOVX    A,@DPTR
   \   0000EF   F5..         MOV     ?V0 + 8,A
   \   0000F1   78..         MOV     R0,#?V0 + 8
   \   0000F3   12....       LCALL   ?PUSH_XSTACK_I_ONE
   \   0000F6   AC..         MOV     R4,?V0 + 4
   \   0000F8   AD..         MOV     R5,?V0 + 5
   \   0000FA   85..82       MOV     DPL,?V0 + 2
   \   0000FD   85..83       MOV     DPH,?V0 + 3
   \   000100   A3           INC     DPTR
   \   000101   A3           INC     DPTR
   \   000102   A3           INC     DPTR
   \   000103   A3           INC     DPTR
   \   000104   A3           INC     DPTR
   \   000105   A3           INC     DPTR
   \   000106   A3           INC     DPTR
   \   000107   A3           INC     DPTR
   \   000108   A3           INC     DPTR
   \   000109   E0           MOVX    A,@DPTR
   \   00010A   FA           MOV     R2,A
   \   00010B   A3           INC     DPTR
   \   00010C   E0           MOVX    A,@DPTR
   \   00010D   FB           MOV     R3,A
   \   00010E   85..82       MOV     DPL,?V0 + 0
   \   000111   85..83       MOV     DPH,?V0 + 1
   \   000114   E0           MOVX    A,@DPTR
   \   000115   F9           MOV     R1,A
   \   000116   12....       LCALL   ??APSME_BindRequest?relay
   \   000119   7401         MOV     A,#0x1
   \   00011B   12....       LCALL   ?DEALLOC_XSTACK8
   \   00011E   E9           MOV     A,R1
   \   00011F   6003         JZ      $+5
   \   000121   02....       LJMP    ??ZDO_ProcessBindUnbindReq_7 & 0xFFFF
    981                    {
    982                      uint16 nwkAddr;
    983          
    984                      // valid entry
    985                      bindStat = ZDP_SUCCESS;
   \   000124   85..82       MOV     DPL,?XSP + 0
   \   000127   85..83       MOV     DPH,?XSP + 1
   \   00012A   E4           CLR     A
   \   00012B   F0           MOVX    @DPTR,A
    986          
    987                      // Notify to save info into NV
    988                      ZDApp_NVUpdate();
   \   00012C                ; Setup parameters for call to function ZDApp_NVUpdate
   \   00012C   12....       LCALL   ??ZDApp_NVUpdate?relay
    989          
    990                      // Check for the destination address
    991                      if ( pReq->dstAddress.addrMode == Addr64Bit )
   \   00012F   85..82       MOV     DPL,?V0 + 6
   \   000132   85..83       MOV     DPH,?V0 + 7
   \   000135   E0           MOVX    A,@DPTR
   \   000136   6403         XRL     A,#0x3
   \   000138   706F         JNZ     ??ZDO_ProcessBindUnbindReq_7
    992                      {
    993                        if ( APSME_LookupNwkAddr( pReq->dstAddress.addr.extAddr, &nwkAddr ) == FALSE )
   \   00013A                ; Setup parameters for call to function APSME_LookupNwkAddr
   \   00013A   7401         MOV     A,#0x1
   \   00013C   12....       LCALL   ?XSTACK_DISP0_8
   \   00013F   AC82         MOV     R4,DPL
   \   000141   AD83         MOV     R5,DPH
   \   000143   AA..         MOV     R2,?V0 + 4
   \   000145   AB..         MOV     R3,?V0 + 5
   \   000147   12....       LCALL   ??APSME_LookupNwkAddr?relay
   \   00014A   E9           MOV     A,R1
   \   00014B   705C         JNZ     ??ZDO_ProcessBindUnbindReq_7
    994                        {
    995                          ZDP_NwkAddrReq( pReq->dstAddress.addr.extAddr, ZDP_ADDR_REQTYPE_SINGLE, 0, 0 );
   \   00014D                ; Setup parameters for call to function ZDP_NwkAddrReq
   \   00014D   7D00         MOV     R5,#0x0
   \   00014F   7C00         MOV     R4,#0x0
   \   000151   7900         MOV     R1,#0x0
   \   000153   AA..         MOV     R2,?V0 + 4
   \   000155   AB..         MOV     R3,?V0 + 5
   \   000157   12....       LCALL   ??ZDP_NwkAddrReq?relay
   \   00015A   804D         SJMP    ??ZDO_ProcessBindUnbindReq_7
    996                        }
    997                      }
    998                    }
    999                  }
   1000                }
   1001                else // Unbind_req
   1002                {
   1003                  if ( APSME_UnBindRequest( pReq->srcEndpoint, pReq->clusterID,
   1004                                 &(pReq->dstAddress), pReq->dstEndpoint ) == ZSuccess )
   \                     ??ZDO_ProcessBindUnbindReq_6:
   \   00015C                ; Setup parameters for call to function APSME_UnBindRequest
   \   00015C   E5..         MOV     A,?V0 + 2
   \   00015E   2414         ADD     A,#0x14
   \   000160   F582         MOV     DPL,A
   \   000162   E5..         MOV     A,?V0 + 3
   \   000164   3400         ADDC    A,#0x0
   \   000166   F583         MOV     DPH,A
   \   000168   E0           MOVX    A,@DPTR
   \   000169   F5..         MOV     ?V0 + 0,A
   \   00016B   78..         MOV     R0,#?V0 + 0
   \   00016D   12....       LCALL   ?PUSH_XSTACK_I_ONE
   \   000170   E5..         MOV     A,?V0 + 2
   \   000172   240B         ADD     A,#0xb
   \   000174   FC           MOV     R4,A
   \   000175   E5..         MOV     A,?V0 + 3
   \   000177   3400         ADDC    A,#0x0
   \   000179   FD           MOV     R5,A
   \   00017A   85..82       MOV     DPL,?V0 + 2
   \   00017D   85..83       MOV     DPH,?V0 + 3
   \   000180   A3           INC     DPTR
   \   000181   A3           INC     DPTR
   \   000182   A3           INC     DPTR
   \   000183   A3           INC     DPTR
   \   000184   A3           INC     DPTR
   \   000185   A3           INC     DPTR
   \   000186   A3           INC     DPTR
   \   000187   A3           INC     DPTR
   \   000188   A3           INC     DPTR
   \   000189   E0           MOVX    A,@DPTR
   \   00018A   FA           MOV     R2,A
   \   00018B   A3           INC     DPTR
   \   00018C   E0           MOVX    A,@DPTR
   \   00018D   FB           MOV     R3,A
   \   00018E   12....       LCALL   ??APSME_UnBindRequest?relay
   \   000191   7401         MOV     A,#0x1
   \   000193   12....       LCALL   ?DEALLOC_XSTACK8
   \   000196   E9           MOV     A,R1
   \   000197   85..82       MOV     DPL,?XSP + 0
   \   00019A   85..83       MOV     DPH,?XSP + 1
   \   00019D   7007         JNZ     ??ZDO_ProcessBindUnbindReq_8
   1005                  {
   1006                    bindStat = ZDP_SUCCESS;
   \   00019F   E4           CLR     A
   \   0001A0   F0           MOVX    @DPTR,A
   1007          
   1008                    // Notify to save info into NV
   1009                    ZDApp_NVUpdate();
   \   0001A1                ; Setup parameters for call to function ZDApp_NVUpdate
   \   0001A1   12....       LCALL   ??ZDApp_NVUpdate?relay
   \   0001A4   8003         SJMP    ??ZDO_ProcessBindUnbindReq_7
   1010                  }
   1011                  else
   1012                    bindStat = ZDP_NO_ENTRY;
   \                     ??ZDO_ProcessBindUnbindReq_8:
   \   0001A6   7488         MOV     A,#-0x78
   \                     ??ZDO_ProcessBindUnbindReq_2:
   \   0001A8   F0           MOVX    @DPTR,A
   1013                }
   1014              }
   1015            }
   1016          
   1017            // Send back a response message
   1018            ZDP_SendData( &(inMsg->TransSeq), &(inMsg->srcAddr),
   1019                         (inMsg->clusterID | ZDO_RESPONSE_BIT), 1, &bindStat,
   1020                         inMsg->SecurityUse );
   \                     ??ZDO_ProcessBindUnbindReq_7:
   \   0001A9                ; Setup parameters for call to function ZDP_SendData
   \   0001A9   EE           MOV     A,R6
   \   0001AA   240E         ADD     A,#0xe
   \   0001AC   F582         MOV     DPL,A
   \   0001AE   EF           MOV     A,R7
   \   0001AF   3400         ADDC    A,#0x0
   \   0001B1   F583         MOV     DPH,A
   \   0001B3   E0           MOVX    A,@DPTR
   \   0001B4   F5..         MOV     ?V0 + 0,A
   \   0001B6   78..         MOV     R0,#?V0 + 0
   \   0001B8   12....       LCALL   ?PUSH_XSTACK_I_ONE
   \   0001BB   7401         MOV     A,#0x1
   \   0001BD   12....       LCALL   ?XSTACK_DISP0_8
   \   0001C0   8582..       MOV     ?V0 + 0,DPL
   \   0001C3   8583..       MOV     ?V0 + 1,DPH
   \   0001C6   78..         MOV     R0,#?V0 + 0
   \   0001C8   12....       LCALL   ?PUSH_XSTACK_I_TWO
   \   0001CB   EE           MOV     A,R6
   \   0001CC   240C         ADD     A,#0xc
   \   0001CE   F582         MOV     DPL,A
   \   0001D0   EF           MOV     A,R7
   \   0001D1   3400         ADDC    A,#0x0
   \   0001D3   F583         MOV     DPH,A
   \   0001D5   E0           MOVX    A,@DPTR
   \   0001D6   F5..         MOV     ?V0 + 0,A
   \   0001D8   A3           INC     DPTR
   \   0001D9   E0           MOVX    A,@DPTR
   \   0001DA   4480         ORL     A,#0x80
   \   0001DC   F5..         MOV     ?V0 + 1,A
   \   0001DE   78..         MOV     R0,#?V0 + 0
   \   0001E0   12....       LCALL   ?PUSH_XSTACK_I_TWO
   \   0001E3   7901         MOV     R1,#0x1
   \   0001E5   EE           MOV     A,R6
   \   0001E6   2402         ADD     A,#0x2
   \   0001E8   FC           MOV     R4,A
   \   0001E9   EF           MOV     A,R7
   \   0001EA   3400         ADDC    A,#0x0
   \   0001EC   FD           MOV     R5,A
   \   0001ED   EE           MOV     A,R6
   \   0001EE   240F         ADD     A,#0xf
   \   0001F0   FA           MOV     R2,A
   \   0001F1   EF           MOV     A,R7
   \   0001F2   3400         ADDC    A,#0x0
   \   0001F4   FB           MOV     R3,A
   \   0001F5   12....       LCALL   ??ZDP_SendData?relay
   \   0001F8   7405         MOV     A,#0x5
   \   0001FA   12....       LCALL   ?DEALLOC_XSTACK8
   1021          }
   \   0001FD   740C         MOV     A,#0xc
   \   0001FF   12....       LCALL   ?DEALLOC_XSTACK8
   \   000202                REQUIRE ?Subroutine6
   \   000202                ; // Fall through to label ?Subroutine6

   \                                 In  segment BANKED_CODE, align 1, keep-with-next
   \                     ?Subroutine6:
   \   000000   7F09         MOV     R7,#0x9
   \   000002   02....       LJMP    ?BANKED_LEAVE_XDATA
   1022          
   1023          /*********************************************************************
   1024           * @fn      ZDO_UpdateAddrManager
   1025           *
   1026           * @brief   Update the Address Manager.
   1027           *
   1028           * @param   nwkAddr - network address
   1029           * @param   extAddr - extended address
   1030           *
   1031           * @return  none
   1032           */

   \                                 In  segment BANKED_CODE, align 1, keep-with-next
   1033          void ZDO_UpdateAddrManager( uint16 nwkAddr, uint8 *extAddr )
   \                     ZDO_UpdateAddrManager:
   1034          {
   \   000000   C082         PUSH    DPL
   \   000002   C083         PUSH    DPH
   \   000004                ; Saved register size: 2
   \   000004                ; Auto size: 13
   \   000004   74F3         MOV     A,#-0xd
   \   000006   12....       LCALL   ?ALLOC_XSTACK8
   1035            AddrMgrEntry_t addrEntry;
   1036          
   1037            // Update the address manager
   1038            addrEntry.user = ADDRMGR_USER_DEFAULT;
   \   000009   85..82       MOV     DPL,?XSP + 0
   \   00000C   85..83       MOV     DPH,?XSP + 1
   \   00000F   E4           CLR     A
   \   000010   F0           MOVX    @DPTR,A
   1039            addrEntry.nwkAddr = nwkAddr;
   \   000011   04           INC     A
   \   000012   12....       LCALL   ?XSTACK_DISP0_8
   \   000015   EA           MOV     A,R2
   \   000016   F0           MOVX    @DPTR,A
   \   000017   A3           INC     DPTR
   \   000018   EB           MOV     A,R3
   \   000019   F0           MOVX    @DPTR,A
   1040            AddrMgrExtAddrSet( addrEntry.extAddr, extAddr );
   \   00001A                ; Setup parameters for call to function AddrMgrExtAddrSet
   \   00001A   7403         MOV     A,#0x3
   \   00001C   12....       LCALL   ?XSTACK_DISP0_8
   \   00001F   AA82         MOV     R2,DPL
   \   000021   AB83         MOV     R3,DPH
   \   000023   12....       LCALL   ??AddrMgrExtAddrSet?relay
   1041            AddrMgrEntryUpdate( &addrEntry );
   \   000026                ; Setup parameters for call to function AddrMgrEntryUpdate
   \   000026   85..82       MOV     DPL,?XSP + 0
   \   000029   85..83       MOV     DPH,?XSP + 1
   \   00002C   AA82         MOV     R2,DPL
   \   00002E   AB83         MOV     R3,DPH
   \   000030   12....       LCALL   ??AddrMgrEntryUpdate?relay
   1042          }
   \   000033   740D         MOV     A,#0xd
   \   000035   12....       LCALL   ?DEALLOC_XSTACK8
   \   000038   02....       LJMP    ?Subroutine0 & 0xFFFF
   1043          
   1044          /*********************************************************************
   1045           * @fn      ZDO_ProcessServerDiscReq
   1046           *
   1047           * @brief   Process the Server_Discovery_req message.
   1048           *
   1049           * @param   inMsg  - incoming message (request)
   1050           *
   1051           * @return  none
   1052           */

   \                                 In  segment BANKED_CODE, align 1, keep-with-next
   1053          void ZDO_ProcessServerDiscReq( zdoIncomingMsg_t *inMsg )
   \                     ZDO_ProcessServerDiscReq:
   1054          {
   \   000000   74F6         MOV     A,#-0xa
   \   000002   12....       LCALL   ?BANKED_ENTER_XDATA
   \   000005                ; Saved register size: 10
   \   000005                ; Auto size: 0
   \   000005   EA           MOV     A,R2
   \   000006   FE           MOV     R6,A
   \   000007   EB           MOV     A,R3
   \   000008   FF           MOV     R7,A
   1055            uint16 serverMask = BUILD_UINT16( inMsg->asdu[0], inMsg->asdu[1] );
   1056            uint16 matchMask = serverMask & ZDO_Config_Node_Descriptor.ServerMask;
   \   000009   EE           MOV     A,R6
   \   00000A   2413         ADD     A,#0x13
   \   00000C   F582         MOV     DPL,A
   \   00000E   EF           MOV     A,R7
   \   00000F   3400         ADDC    A,#0x0
   \   000011   F583         MOV     DPH,A
   \   000013   E0           MOVX    A,@DPTR
   \   000014   F8           MOV     R0,A
   \   000015   A3           INC     DPTR
   \   000016   E0           MOVX    A,@DPTR
   \   000017   F9           MOV     R1,A
   \   000018   8882         MOV     DPL,R0
   \   00001A   8983         MOV     DPH,R1
   \   00001C   E0           MOVX    A,@DPTR
   \   00001D   FA           MOV     R2,A
   \   00001E   A3           INC     DPTR
   \   00001F   E0           MOVX    A,@DPTR
   \   000020   F9           MOV     R1,A
   \   000021   EA           MOV     A,R2
   \   000022   F8           MOV     R0,A
   \   000023   90....       MOV     DPTR,#ZDO_Config_Node_Descriptor + 8
   \   000026   E0           MOVX    A,@DPTR
   \   000027   58           ANL     A,R0
   \   000028   F5..         MOV     ?V0 + 0,A
   \   00002A   A3           INC     DPTR
   \   00002B   E0           MOVX    A,@DPTR
   \   00002C   59           ANL     A,R1
   \   00002D   F5..         MOV     ?V0 + 1,A
   1057          
   1058            if ( matchMask )
   \   00002F   E5..         MOV     A,?V0 + 0
   \   000031   45..         ORL     A,?V0 + 1
   \   000033   6035         JZ      ??ZDO_ProcessServerDiscReq_0
   1059            {
   1060              ZDP_ServerDiscRsp( inMsg->TransSeq, &(inMsg->srcAddr), ZSUCCESS,
   1061                          ZDAppNwkAddr.addr.shortAddr, matchMask, inMsg->SecurityUse );
   \   000035                ; Setup parameters for call to function ZDP_ServerDiscRsp
   \   000035   78..         MOV     R0,#?V0 + 0
   \   000037   12....       LCALL   ?PUSH_XSTACK_I_TWO
   \   00003A   90....       MOV     DPTR,#ZDAppNwkAddr
   \   00003D   12....       LCALL   ?PUSH_XSTACK8_X_TWO
   \   000040   EE           MOV     A,R6
   \   000041   240E         ADD     A,#0xe
   \   000043   F582         MOV     DPL,A
   \   000045   EF           MOV     A,R7
   \   000046   3400         ADDC    A,#0x0
   \   000048   F583         MOV     DPH,A
   \   00004A   E0           MOVX    A,@DPTR
   \   00004B   FD           MOV     R5,A
   \   00004C   7C00         MOV     R4,#0x0
   \   00004E   EE           MOV     A,R6
   \   00004F   2402         ADD     A,#0x2
   \   000051   FA           MOV     R2,A
   \   000052   EF           MOV     A,R7
   \   000053   3400         ADDC    A,#0x0
   \   000055   FB           MOV     R3,A
   \   000056   EE           MOV     A,R6
   \   000057   240F         ADD     A,#0xf
   \   000059   F582         MOV     DPL,A
   \   00005B   EF           MOV     A,R7
   \   00005C   3400         ADDC    A,#0x0
   \   00005E   F583         MOV     DPH,A
   \   000060   E0           MOVX    A,@DPTR
   \   000061   F9           MOV     R1,A
   \   000062   12....       LCALL   ??ZDP_ServerDiscRsp?relay
   \   000065   7404         MOV     A,#0x4
   \   000067   12....       LCALL   ?DEALLOC_XSTACK8
   1062            }
   1063          }
   \                     ??ZDO_ProcessServerDiscReq_0:
   \   00006A   02....       LJMP    ??Subroutine12_0 & 0xFFFF
   1064          
   1065          /*********************************************************************
   1066           * Call Back Functions from APS  - API
   1067           */
   1068          
   1069          /*********************************************************************
   1070           * @fn          ZDO_EndDeviceTimeoutCB
   1071           *
   1072           * @brief       This function handles the binding timer for the End
   1073           *              Device Bind command.
   1074           *
   1075           * @param       none
   1076           *
   1077           * @return      none
   1078           */

   \                                 In  segment BANKED_CODE, align 1, keep-with-next
   1079          void ZDO_EndDeviceTimeoutCB( void )
   \                     ZDO_EndDeviceTimeoutCB:
   1080          {
   \   000000   74F6         MOV     A,#-0xa
   \   000002   12....       LCALL   ?BANKED_ENTER_XDATA
   \   000005                ; Saved register size: 10
   \   000005                ; Auto size: 2
   \   000005   74FE         MOV     A,#-0x2
   \   000007   12....       LCALL   ?ALLOC_XSTACK8
   1081          #if defined ( REFLECTOR )
   1082            byte stat;
   1083            if ( ZDO_EDBind )
   \   00000A   90....       MOV     DPTR,#ZDO_EDBind
   \   00000D   E0           MOVX    A,@DPTR
   \   00000E   F8           MOV     R0,A
   \   00000F   A3           INC     DPTR
   \   000010   E0           MOVX    A,@DPTR
   \   000011   F9           MOV     R1,A
   \   000012   E8           MOV     A,R0
   \   000013   49           ORL     A,R1
   \   000014   7003         JNZ     $+5
   \   000016   02....       LJMP    ??ZDO_EndDeviceTimeoutCB_0 & 0xFFFF
   1084            {
   1085              stat = ZDO_EDBind->status;
   1086          
   1087              // Send the response message to the first sent
   1088              ZDO_SendEDBindRsp( ZDO_EDBind->SrcTransSeq, &(ZDO_EDBind->SrcAddr),
   1089                                  stat, ZDO_EDBind->SecurityUse );
   \   000019   90....       MOV     DPTR,#ZDO_EDBind
   \   00001C   E0           MOVX    A,@DPTR
   \   00001D   2415         ADD     A,#0x15
   \   00001F   F8           MOV     R0,A
   \   000020   A3           INC     DPTR
   \   000021   E0           MOVX    A,@DPTR
   \   000022   3400         ADDC    A,#0x0
   \   000024   F9           MOV     R1,A
   \   000025   8882         MOV     DPL,R0
   \   000027   8983         MOV     DPH,R1
   \   000029   E0           MOVX    A,@DPTR
   \   00002A   FA           MOV     R2,A
   \   00002B   90....       MOV     DPTR,#ZDO_EDBind
   \   00002E   E0           MOVX    A,@DPTR
   \   00002F   2416         ADD     A,#0x16
   \   000031   08           INC     R0
   \   000032   A3           INC     DPTR
   \   000033   E0           MOVX    A,@DPTR
   \   000034   3400         ADDC    A,#0x0
   \   000036   F9           MOV     R1,A
   \   000037   8882         MOV     DPL,R0
   \   000039   8983         MOV     DPH,R1
   \   00003B   E0           MOVX    A,@DPTR
   \   00003C   85..82       MOV     DPL,?XSP + 0
   \   00003F   85..83       MOV     DPH,?XSP + 1
   \   000042   F0           MOVX    @DPTR,A
   \   000043   90....       MOV     DPTR,#ZDO_EDBind
   \   000046   E0           MOVX    A,@DPTR
   \   000047   2401         ADD     A,#0x1
   \   000049   FC           MOV     R4,A
   \   00004A   A3           INC     DPTR
   \   00004B   E0           MOVX    A,@DPTR
   \   00004C   3400         ADDC    A,#0x0
   \   00004E   FD           MOV     R5,A
   \   00004F   90....       MOV     DPTR,#ZDO_EDBind
   \   000052   E0           MOVX    A,@DPTR
   \   000053   F8           MOV     R0,A
   \   000054   A3           INC     DPTR
   \   000055   E0           MOVX    A,@DPTR
   \   000056   F583         MOV     DPH,A
   \   000058   8882         MOV     DPL,R0
   \   00005A   E0           MOVX    A,@DPTR
   \   00005B   C0E0         PUSH    A
   \   00005D   7401         MOV     A,#0x1
   \   00005F   12....       LCALL   ?XSTACK_DISP0_8
   \   000062   D0E0         POP     A
   \   000064   F0           MOVX    @DPTR,A
   \   000065                ; Setup parameters for call to function ZDP_SendData
   \   000065   EA           MOV     A,R2
   \   000066   F5..         MOV     ?V0 + 0,A
   \   000068   78..         MOV     R0,#?V0 + 0
   \   00006A   12....       LCALL   ?PUSH_XSTACK_I_ONE
   \   00006D   7401         MOV     A,#0x1
   \   00006F   12....       LCALL   ?XSTACK_DISP0_8
   \   000072   8582..       MOV     ?V0 + 0,DPL
   \   000075   8583..       MOV     ?V0 + 1,DPH
   \   000078   78..         MOV     R0,#?V0 + 0
   \   00007A   12....       LCALL   ?PUSH_XSTACK_I_TWO
   \   00007D   75..20       MOV     ?V0 + 0,#0x20
   \   000080   75..80       MOV     ?V0 + 1,#-0x80
   \   000083   78..         MOV     R0,#?V0 + 0
   \   000085   12....       LCALL   ?PUSH_XSTACK_I_TWO
   \   000088   7901         MOV     R1,#0x1
   \   00008A   7406         MOV     A,#0x6
   \   00008C   12....       LCALL   ?XSTACK_DISP0_8
   \   00008F   AA82         MOV     R2,DPL
   \   000091   AB83         MOV     R3,DPH
   \   000093   12....       LCALL   ??ZDP_SendData?relay
   \   000096   7405         MOV     A,#0x5
   \   000098   12....       LCALL   ?DEALLOC_XSTACK8
   \   00009B                ; Setup parameters for call to function HalLcdWriteString
   \   00009B   7901         MOV     R1,#0x1
   \   00009D   7A..         MOV     R2,#`?<Constant "End Device Bind">` & 0xff
   \   00009F   7B..         MOV     R3,#(`?<Constant "End Device Bind">` >> 8) & 0xff
   \   0000A1   12....       LCALL   ??HalLcdWriteString?relay
   \   0000A4   85..82       MOV     DPL,?XSP + 0
   \   0000A7   85..83       MOV     DPH,?XSP + 1
   \   0000AA   E0           MOVX    A,@DPTR
   \   0000AB   7902         MOV     R1,#0x2
   \   0000AD   7006         JNZ     ??ZDO_EndDeviceTimeoutCB_1
   \   0000AF                ; Setup parameters for call to function HalLcdWriteString
   \   0000AF   7A..         MOV     R2,#`?<Constant "Success Sent">` & 0xff
   \   0000B1   7B..         MOV     R3,#(`?<Constant "Success Sent">` >> 8) & 0xff
   \   0000B3   8004         SJMP    ??ZDO_EndDeviceTimeoutCB_2
   \                     ??ZDO_EndDeviceTimeoutCB_1:
   \   0000B5                ; Setup parameters for call to function HalLcdWriteString
   \   0000B5   7A..         MOV     R2,#`?<Constant "Timeout">` & 0xff
   \   0000B7   7B..         MOV     R3,#(`?<Constant "Timeout">` >> 8) & 0xff
   \                     ??ZDO_EndDeviceTimeoutCB_2:
   \   0000B9   12....       LCALL   ??HalLcdWriteString?relay
   1090          
   1091              ZDO_RemoveEndDeviceBind();
   \   0000BC   90....       MOV     DPTR,#ZDO_EDBind
   \   0000BF   E0           MOVX    A,@DPTR
   \   0000C0   F8           MOV     R0,A
   \   0000C1   A3           INC     DPTR
   \   0000C2   E0           MOVX    A,@DPTR
   \   0000C3   F9           MOV     R1,A
   \   0000C4   E8           MOV     A,R0
   \   0000C5   49           ORL     A,R1
   \   0000C6   604A         JZ      ??ZDO_EndDeviceTimeoutCB_0
   \   0000C8   90....       MOV     DPTR,#ZDO_EDBind
   \   0000CB   E0           MOVX    A,@DPTR
   \   0000CC   2410         ADD     A,#0x10
   \   0000CE   F8           MOV     R0,A
   \   0000CF   A3           INC     DPTR
   \   0000D0   E0           MOVX    A,@DPTR
   \   0000D1   3400         ADDC    A,#0x0
   \   0000D3   F9           MOV     R1,A
   \   0000D4   8882         MOV     DPL,R0
   \   0000D6   8983         MOV     DPH,R1
   \   0000D8   E0           MOVX    A,@DPTR
   \   0000D9   FA           MOV     R2,A
   \   0000DA   A3           INC     DPTR
   \   0000DB   E0           MOVX    A,@DPTR
   \   0000DC   FB           MOV     R3,A
   \   0000DD   EA           MOV     A,R2
   \   0000DE   4B           ORL     A,R3
   \   0000DF   6003         JZ      ??ZDO_EndDeviceTimeoutCB_3
   \   0000E1                ; Setup parameters for call to function osal_mem_free
   \   0000E1   12....       LCALL   ??osal_mem_free?relay
   \                     ??ZDO_EndDeviceTimeoutCB_3:
   \   0000E4   90....       MOV     DPTR,#ZDO_EDBind
   \   0000E7   E0           MOVX    A,@DPTR
   \   0000E8   2413         ADD     A,#0x13
   \   0000EA   F8           MOV     R0,A
   \   0000EB   A3           INC     DPTR
   \   0000EC   E0           MOVX    A,@DPTR
   \   0000ED   3400         ADDC    A,#0x0
   \   0000EF   F9           MOV     R1,A
   \   0000F0   8882         MOV     DPL,R0
   \   0000F2   8983         MOV     DPH,R1
   \   0000F4   E0           MOVX    A,@DPTR
   \   0000F5   FA           MOV     R2,A
   \   0000F6   A3           INC     DPTR
   \   0000F7   E0           MOVX    A,@DPTR
   \   0000F8   FB           MOV     R3,A
   \   0000F9   EA           MOV     A,R2
   \   0000FA   4B           ORL     A,R3
   \   0000FB   6003         JZ      ??ZDO_EndDeviceTimeoutCB_4
   \   0000FD                ; Setup parameters for call to function osal_mem_free
   \   0000FD   12....       LCALL   ??osal_mem_free?relay
   \                     ??ZDO_EndDeviceTimeoutCB_4:
   \   000100                ; Setup parameters for call to function osal_mem_free
   \   000100   90....       MOV     DPTR,#ZDO_EDBind
   \   000103   E0           MOVX    A,@DPTR
   \   000104   FA           MOV     R2,A
   \   000105   A3           INC     DPTR
   \   000106   E0           MOVX    A,@DPTR
   \   000107   FB           MOV     R3,A
   \   000108   12....       LCALL   ??osal_mem_free?relay
   \   00010B   90....       MOV     DPTR,#ZDO_EDBind
   \   00010E   E4           CLR     A
   \   00010F   F0           MOVX    @DPTR,A
   \   000110   A3           INC     DPTR
   \   000111   F0           MOVX    @DPTR,A
   1092            }
   1093          #endif  // REFLECTOR
   1094          }
   \                     ??ZDO_EndDeviceTimeoutCB_0:
   \   000112   02....       LJMP    ?Subroutine3 & 0xFFFF
   1095          
   1096          /*********************************************************************
   1097           * Optional Management Messages
   1098           */
   1099          
   1100          /*********************************************************************
   1101           * @fn          ZDO_ProcessMgmtLqiReq
   1102           *
   1103           * @brief       This function handles parsing the incoming Management
   1104           *              LQI request and generate the response.
   1105           *
   1106           *   Note:      This function will limit the number of items returned
   1107           *              to ZDO_MAX_LQI_ITEMS items.
   1108           *
   1109           * @param       inMsg - incoming message (request)
   1110           *
   1111           * @return      none
   1112           */

   \                                 In  segment BANKED_CODE, align 1, keep-with-next
   1113          void ZDO_ProcessMgmtLqiReq( zdoIncomingMsg_t *inMsg )
   \                     ZDO_ProcessMgmtLqiReq:
   1114          {
   \   000000   74E8         MOV     A,#-0x18
   \   000002   12....       LCALL   ?BANKED_ENTER_XDATA
   \   000005                ; Saved register size: 24
   \   000005                ; Auto size: 37
   \   000005   74DB         MOV     A,#-0x25
   \   000007   12....       LCALL   ?ALLOC_XSTACK8
   \   00000A   8A..         MOV     ?V0 + 14,R2
   \   00000C   8B..         MOV     ?V0 + 15,R3
   1115            byte x;
   1116            byte index;
   1117            byte numItems;
   1118            byte maxItems;
   1119            ZDP_MgmtLqiItem_t* table = NULL;
   \   00000E   75..00       MOV     ?V0 + 10,#0x0
   \   000011   75..00       MOV     ?V0 + 11,#0x0
   1120            ZDP_MgmtLqiItem_t* item;
   1121            neighborEntry_t    entry;
   1122            byte aItems;
   1123            associated_devices_t *aDevice;
   1124            AddrMgrEntry_t  nwkEntry;
   1125            uint8 StartIndex = inMsg->asdu[0];
   \   000014   EA           MOV     A,R2
   \   000015   2413         ADD     A,#0x13
   \   000017   F582         MOV     DPL,A
   \   000019   EB           MOV     A,R3
   \   00001A   3400         ADDC    A,#0x0
   \   00001C   F583         MOV     DPH,A
   \   00001E   E0           MOVX    A,@DPTR
   \   00001F   F8           MOV     R0,A
   \   000020   A3           INC     DPTR
   \   000021   E0           MOVX    A,@DPTR
   \   000022   F583         MOV     DPH,A
   \   000024   8882         MOV     DPL,R0
   \   000026   E0           MOVX    A,@DPTR
   \   000027   F5..         MOV     ?V0 + 4,A
   1126          
   1127            // Get the number of neighbor items
   1128            NLME_GetRequest( nwkNumNeighborTableEntries, 0, &maxItems );
   \   000029                ; Setup parameters for call to function NLME_GetRequest
   \   000029   85..82       MOV     DPL,?XSP + 0
   \   00002C   85..83       MOV     DPH,?XSP + 1
   \   00002F   AC82         MOV     R4,DPL
   \   000031   AD83         MOV     R5,DPH
   \   000033   7A00         MOV     R2,#0x0
   \   000035   7B00         MOV     R3,#0x0
   \   000037   799C         MOV     R1,#-0x64
   \   000039   12....       LCALL   ??NLME_GetRequest?relay
   1129          
   1130            // Get the number of associated items
   1131            aItems = (uint8)AssocCount( PARENT, CHILD_FFD_RX_IDLE );
   \   00003C                ; Setup parameters for call to function AssocCount
   \   00003C   7A04         MOV     R2,#0x4
   \   00003E   7900         MOV     R1,#0x0
   \   000040   12....       LCALL   ??AssocCount?relay
   \   000043   EA           MOV     A,R2
   \   000044   F5..         MOV     ?V0 + 2,A
   1132          
   1133            // Total number of items
   1134            maxItems += aItems;
   \   000046   85..82       MOV     DPL,?XSP + 0
   \   000049   85..83       MOV     DPH,?XSP + 1
   \   00004C   E0           MOVX    A,@DPTR
   \   00004D   25..         ADD     A,?V0 + 2
   \   00004F   F0           MOVX    @DPTR,A
   1135          
   1136            // Start with the supplied index
   1137            if ( maxItems > StartIndex )
   \   000050   F8           MOV     R0,A
   \   000051   E5..         MOV     A,?V0 + 4
   \   000053   C3           CLR     C
   \   000054   98           SUBB    A,R0
   \   000055   4003         JC      $+5
   \   000057   02....       LJMP    ??ZDO_ProcessMgmtLqiReq_0 & 0xFFFF
   1138            {
   1139              numItems = maxItems - StartIndex;
   \   00005A   E0           MOVX    A,@DPTR
   \   00005B   C3           CLR     C
   \   00005C   95..         SUBB    A,?V0 + 4
   \   00005E   F5..         MOV     ?V0 + 1,A
   1140          
   1141              // limit the size of the list
   1142              if ( numItems > ZDO_MAX_LQI_ITEMS )
   \   000060   C3           CLR     C
   \   000061   9404         SUBB    A,#0x4
   \   000063   4003         JC      ??ZDO_ProcessMgmtLqiReq_1
   1143                numItems = ZDO_MAX_LQI_ITEMS;
   \   000065   75..03       MOV     ?V0 + 1,#0x3
   1144          
   1145              // Allocate the memory to build the table
   1146              table = (ZDP_MgmtLqiItem_t*)osal_mem_alloc( (short)
   1147                        ( numItems * sizeof( ZDP_MgmtLqiItem_t ) ) );
   \                     ??ZDO_ProcessMgmtLqiReq_1:
   \   000068                ; Setup parameters for call to function osal_mem_alloc
   \   000068   E5..         MOV     A,?V0 + 1
   \   00006A   75F01A       MOV     B,#0x1a
   \   00006D   A4           MUL     AB
   \   00006E   FA           MOV     R2,A
   \   00006F   ABF0         MOV     R3,B
   \   000071   12....       LCALL   ??osal_mem_alloc?relay
   \   000074   8A..         MOV     ?V0 + 10,R2
   \   000076   8B..         MOV     ?V0 + 11,R3
   1148          
   1149              if ( table != NULL )
   \   000078   EA           MOV     A,R2
   \   000079   45..         ORL     A,?V0 + 11
   \   00007B   7003         JNZ     $+5
   \   00007D   02....       LJMP    ??ZDO_ProcessMgmtLqiReq_2 & 0xFFFF
   1150              {
   1151                x = 0;
   \   000080   75..00       MOV     ?V0 + 3,#0x0
   1152                item = table;
   \   000083   AE..         MOV     R6,?V0 + 10
   \   000085   AF..         MOV     R7,?V0 + 11
   1153                index = StartIndex;
   \   000087   85....       MOV     ?V0 + 0,?V0 + 4
   \   00008A   02....       LJMP    ??ZDO_ProcessMgmtLqiReq_3 & 0xFFFF
   1154          
   1155                // Loop through associated items and build list
   1156                for ( ; x < numItems; x++ )
   1157                {
   1158                  if ( index < aItems )
   1159                  {
   1160                    // get next associated device
   1161                    aDevice = AssocFindDevice( index++ );
   1162          
   1163                    // set basic fields
   1164                    item->panID   = _NIB.nwkPanId;
   1165                    osal_cpyExtAddr( item->extPanID, _NIB.extendedPANID );
   1166                    item->nwkAddr = aDevice->shortAddr;
   1167                    item->permit  = ZDP_MGMT_BOOL_UNKNOWN;
   1168                    item->depth   = 0xFF;
   1169                    item->lqi     = aDevice->linkInfo.rxLqi;
   1170          
   1171                    // set extented address
   1172                    nwkEntry.user    = ADDRMGR_USER_DEFAULT;
   1173                    nwkEntry.nwkAddr = aDevice->shortAddr;
   1174          
   1175                    if ( AddrMgrEntryLookupNwk( &nwkEntry ) == TRUE )
   1176                    {
   1177                      osal_cpyExtAddr( item->extAddr, nwkEntry.extAddr );
   1178                    }
   1179                    else
   1180                    {
   1181                      osal_memset( item->extAddr, 0xFF, Z_EXTADDR_LEN );
   \                     ??ZDO_ProcessMgmtLqiReq_4:
   \   00008D                ; Setup parameters for call to function osal_memset
   \   00008D   7C08         MOV     R4,#0x8
   \   00008F   7D00         MOV     R5,#0x0
   \   000091   79FF         MOV     R1,#-0x1
   \   000093   AA..         MOV     R2,?V0 + 12
   \   000095   AB..         MOV     R3,?V0 + 13
   \   000097   12....       LCALL   ??osal_memset?relay
   1182                    }
   1183          
   1184                    // use association info to set other fields
   1185                    if ( aDevice->nodeRelation == PARENT )
   \                     ??ZDO_ProcessMgmtLqiReq_5:
   \   00009A   E5..         MOV     A,?V0 + 6
   \   00009C   2404         ADD     A,#0x4
   \   00009E   F8           MOV     R0,A
   \   00009F   E5..         MOV     A,?V0 + 7
   \   0000A1   3400         ADDC    A,#0x0
   \   0000A3   F9           MOV     R1,A
   \   0000A4   EE           MOV     A,R6
   \   0000A5   2414         ADD     A,#0x14
   \   0000A7   FA           MOV     R2,A
   \   0000A8   EF           MOV     A,R7
   \   0000A9   3400         ADDC    A,#0x0
   \   0000AB   FB           MOV     R3,A
   \   0000AC   8882         MOV     DPL,R0
   \   0000AE   8983         MOV     DPH,R1
   \   0000B0   E0           MOVX    A,@DPTR
   \   0000B1   7040         JNZ     ??ZDO_ProcessMgmtLqiReq_6
   1186                    {
   1187                      if (  aDevice->shortAddr == 0 )
   \   0000B3   85..82       MOV     DPL,?V0 + 6
   \   0000B6   85..83       MOV     DPH,?V0 + 7
   \   0000B9   E0           MOVX    A,@DPTR
   \   0000BA   F8           MOV     R0,A
   \   0000BB   A3           INC     DPTR
   \   0000BC   E0           MOVX    A,@DPTR
   \   0000BD   F9           MOV     R1,A
   \   0000BE   E8           MOV     A,R0
   \   0000BF   49           ORL     A,R1
   \   0000C0   8A82         MOV     DPL,R2
   \   0000C2   8B83         MOV     DPH,R3
   \   0000C4   7004         JNZ     ??ZDO_ProcessMgmtLqiReq_7
   1188                      {
   1189                        item->devType = ZDP_MGMT_DT_COORD;
   \   0000C6   E4           CLR     A
   \   0000C7   F0           MOVX    @DPTR,A
   1190                        item->depth = 0;
   \   0000C8   8008         SJMP    ??ZDO_ProcessMgmtLqiReq_8
   1191                      }
   1192                      else
   1193                      {
   1194                        item->devType = ZDP_MGMT_DT_ROUTER;
   \                     ??ZDO_ProcessMgmtLqiReq_7:
   \   0000CA   7401         MOV     A,#0x1
   \   0000CC   F0           MOVX    @DPTR,A
   1195                        item->depth = _NIB.nodeDepth - 1;
   \   0000CD   90....       MOV     DPTR,#_NIB + 52
   \   0000D0   E0           MOVX    A,@DPTR
   \   0000D1   14           DEC     A
   \                     ??ZDO_ProcessMgmtLqiReq_8:
   \   0000D2   85..82       MOV     DPL,?V0 + 8
   \   0000D5   85..83       MOV     DPH,?V0 + 9
   \   0000D8   F0           MOVX    @DPTR,A
   1196                      }
   1197          
   1198                      item->rxOnIdle = ZDP_MGMT_BOOL_UNKNOWN;
   \   0000D9   EE           MOV     A,R6
   \   0000DA   2415         ADD     A,#0x15
   \   0000DC   F582         MOV     DPL,A
   \   0000DE   EF           MOV     A,R7
   \   0000DF   3400         ADDC    A,#0x0
   \   0000E1   F583         MOV     DPH,A
   \   0000E3   7402         MOV     A,#0x2
   \   0000E5   F0           MOVX    @DPTR,A
   1199                      item->relation = ZDP_MGMT_REL_PARENT;
   \   0000E6   EE           MOV     A,R6
   \   0000E7   2416         ADD     A,#0x16
   \   0000E9   F582         MOV     DPL,A
   \   0000EB   EF           MOV     A,R7
   \   0000EC   3400         ADDC    A,#0x0
   \   0000EE   F583         MOV     DPH,A
   \   0000F0   E4           CLR     A
   \   0000F1   8044         SJMP    ??ZDO_ProcessMgmtLqiReq_9
   1200                    }
   1201                    else
   1202                    {
   1203                      // If not parent, then it's a child
   1204                      item->depth = _NIB.nodeDepth + 1;
   \                     ??ZDO_ProcessMgmtLqiReq_6:
   \   0000F3   90....       MOV     DPTR,#_NIB + 52
   \   0000F6   E0           MOVX    A,@DPTR
   \   0000F7   04           INC     A
   \   0000F8   85..82       MOV     DPL,?V0 + 8
   \   0000FB   85..83       MOV     DPH,?V0 + 9
   \   0000FE   F0           MOVX    @DPTR,A
   1205          
   1206                      if ( aDevice->nodeRelation < CHILD_FFD )
   \   0000FF   8882         MOV     DPL,R0
   \   000101   8983         MOV     DPH,R1
   \   000103   E0           MOVX    A,@DPTR
   \   000104   C3           CLR     C
   \   000105   9403         SUBB    A,#0x3
   \   000107   8A82         MOV     DPL,R2
   \   000109   8B83         MOV     DPH,R3
   \   00010B   4003         JC      $+5
   \   00010D   02....       LJMP    ??ZDO_ProcessMgmtLqiReq_10 & 0xFFFF
   1207                      {
   1208                        item->devType = ZDP_MGMT_DT_ENDDEV;
   \   000110   7402         MOV     A,#0x2
   \   000112   F0           MOVX    @DPTR,A
   1209          
   1210                        if ( aDevice->nodeRelation == CHILD_RFD )
   \   000113   8882         MOV     DPL,R0
   \   000115   8983         MOV     DPH,R1
   \   000117   E0           MOVX    A,@DPTR
   \   000118   6401         XRL     A,#0x1
   \   00011A   6003         JZ      $+5
   \   00011C   02....       LJMP    ??ZDO_ProcessMgmtLqiReq_11 & 0xFFFF
   1211                        {
   1212                          item->rxOnIdle = FALSE;
   \                     ??ZDO_ProcessMgmtLqiReq_12:
   \   00011F   EE           MOV     A,R6
   \   000120   2415         ADD     A,#0x15
   \   000122   F582         MOV     DPL,A
   \   000124   EF           MOV     A,R7
   \   000125   3400         ADDC    A,#0x0
   \   000127   F583         MOV     DPH,A
   \   000129   E4           CLR     A
   \                     ??ZDO_ProcessMgmtLqiReq_13:
   \   00012A   F0           MOVX    @DPTR,A
   1213                        }
   1214                        else
   1215                        {
   1216                          item->rxOnIdle = TRUE;
   1217                        }
   1218                      }
   1219                      else
   1220                      {
   1221                        item->devType = ZDP_MGMT_DT_ROUTER;
   1222          
   1223                        if ( aDevice->nodeRelation == CHILD_FFD )
   1224                        {
   1225                          item->rxOnIdle = FALSE;
   1226                        }
   1227                        else
   1228                        {
   1229                          item->rxOnIdle = TRUE;
   1230                        }
   1231                      }
   1232          
   1233                      item->relation = ZDP_MGMT_REL_CHILD;
   \   00012B   EE           MOV     A,R6
   \   00012C   2416         ADD     A,#0x16
   \   00012E   F582         MOV     DPL,A
   \   000130   EF           MOV     A,R7
   \   000131   3400         ADDC    A,#0x0
   \   000133   F583         MOV     DPH,A
   \   000135   7401         MOV     A,#0x1
   \                     ??ZDO_ProcessMgmtLqiReq_9:
   \   000137   F0           MOVX    @DPTR,A
   1234                    }
   1235          
   1236                    item++;
   \   000138   EE           MOV     A,R6
   \   000139   241A         ADD     A,#0x1a
   \   00013B   FE           MOV     R6,A
   \   00013C   EF           MOV     A,R7
   \   00013D   3400         ADDC    A,#0x0
   \   00013F   FF           MOV     R7,A
   \   000140   05..         INC     ?V0 + 3
   \                     ??ZDO_ProcessMgmtLqiReq_3:
   \   000142   E5..         MOV     A,?V0 + 3
   \   000144   C3           CLR     C
   \   000145   95..         SUBB    A,?V0 + 1
   \   000147   4003         JC      $+5
   \   000149   02....       LJMP    ??ZDO_ProcessMgmtLqiReq_2 & 0xFFFF
   \   00014C   E5..         MOV     A,?V0 + 0
   \   00014E   C3           CLR     C
   \   00014F   95..         SUBB    A,?V0 + 2
   \   000151   4003         JC      $+5
   \   000153   02....       LJMP    ??ZDO_ProcessMgmtLqiReq_14 & 0xFFFF
   \   000156                ; Setup parameters for call to function AssocFindDevice
   \   000156   A9..         MOV     R1,?V0 + 0
   \   000158   12....       LCALL   ??AssocFindDevice?relay
   \   00015B   8A..         MOV     ?V0 + 6,R2
   \   00015D   8B..         MOV     ?V0 + 7,R3
   \   00015F   05..         INC     ?V0 + 0
   \   000161   90....       MOV     DPTR,#_NIB + 33
   \   000164   E0           MOVX    A,@DPTR
   \   000165   F8           MOV     R0,A
   \   000166   A3           INC     DPTR
   \   000167   E0           MOVX    A,@DPTR
   \   000168   F9           MOV     R1,A
   \   000169   8E82         MOV     DPL,R6
   \   00016B   8F83         MOV     DPH,R7
   \   00016D   E8           MOV     A,R0
   \   00016E   F0           MOVX    @DPTR,A
   \   00016F   A3           INC     DPTR
   \   000170   E9           MOV     A,R1
   \   000171   F0           MOVX    @DPTR,A
   \   000172                ; Setup parameters for call to function sAddrExtCpy
   \   000172   7C..         MOV     R4,#(_NIB + 53) & 0xff
   \   000174   7D..         MOV     R5,#((_NIB + 53) >> 8) & 0xff
   \   000176   EE           MOV     A,R6
   \   000177   2402         ADD     A,#0x2
   \   000179   FA           MOV     R2,A
   \   00017A   EF           MOV     A,R7
   \   00017B   3400         ADDC    A,#0x0
   \   00017D   FB           MOV     R3,A
   \   00017E   12....       LCALL   ??sAddrExtCpy?relay
   \   000181   85..82       MOV     DPL,?V0 + 6
   \   000184   85..83       MOV     DPH,?V0 + 7
   \   000187   E0           MOVX    A,@DPTR
   \   000188   F8           MOV     R0,A
   \   000189   A3           INC     DPTR
   \   00018A   E0           MOVX    A,@DPTR
   \   00018B   F9           MOV     R1,A
   \   00018C   EE           MOV     A,R6
   \   00018D   2412         ADD     A,#0x12
   \   00018F   F582         MOV     DPL,A
   \   000191   EF           MOV     A,R7
   \   000192   3400         ADDC    A,#0x0
   \   000194   F583         MOV     DPH,A
   \   000196   E8           MOV     A,R0
   \   000197   F0           MOVX    @DPTR,A
   \   000198   A3           INC     DPTR
   \   000199   E9           MOV     A,R1
   \   00019A   F0           MOVX    @DPTR,A
   \   00019B   EE           MOV     A,R6
   \   00019C   2417         ADD     A,#0x17
   \   00019E   F582         MOV     DPL,A
   \   0001A0   EF           MOV     A,R7
   \   0001A1   3400         ADDC    A,#0x0
   \   0001A3   F583         MOV     DPH,A
   \   0001A5   7402         MOV     A,#0x2
   \   0001A7   F0           MOVX    @DPTR,A
   \   0001A8   EE           MOV     A,R6
   \   0001A9   2418         ADD     A,#0x18
   \   0001AB   F5..         MOV     ?V0 + 8,A
   \   0001AD   EF           MOV     A,R7
   \   0001AE   3400         ADDC    A,#0x0
   \   0001B0   F5..         MOV     ?V0 + 9,A
   \   0001B2   85..82       MOV     DPL,?V0 + 8
   \   0001B5   F583         MOV     DPH,A
   \   0001B7   74FF         MOV     A,#-0x1
   \   0001B9   F0           MOVX    @DPTR,A
   \   0001BA   85..82       MOV     DPL,?V0 + 6
   \   0001BD   85..83       MOV     DPH,?V0 + 7
   \   0001C0   A3           INC     DPTR
   \   0001C1   A3           INC     DPTR
   \   0001C2   A3           INC     DPTR
   \   0001C3   A3           INC     DPTR
   \   0001C4   A3           INC     DPTR
   \   0001C5   A3           INC     DPTR
   \   0001C6   A3           INC     DPTR
   \   0001C7   A3           INC     DPTR
   \   0001C8   A3           INC     DPTR
   \   0001C9   A3           INC     DPTR
   \   0001CA   E0           MOVX    A,@DPTR
   \   0001CB   C0E0         PUSH    A
   \   0001CD   EE           MOV     A,R6
   \   0001CE   2419         ADD     A,#0x19
   \   0001D0   F582         MOV     DPL,A
   \   0001D2   EF           MOV     A,R7
   \   0001D3   3400         ADDC    A,#0x0
   \   0001D5   F583         MOV     DPH,A
   \   0001D7   D0E0         POP     A
   \   0001D9   F0           MOVX    @DPTR,A
   \   0001DA   7401         MOV     A,#0x1
   \   0001DC   12....       LCALL   ?XSTACK_DISP0_8
   \   0001DF   E4           CLR     A
   \   0001E0   F0           MOVX    @DPTR,A
   \   0001E1   85..82       MOV     DPL,?V0 + 6
   \   0001E4   85..83       MOV     DPH,?V0 + 7
   \   0001E7   E0           MOVX    A,@DPTR
   \   0001E8   F8           MOV     R0,A
   \   0001E9   A3           INC     DPTR
   \   0001EA   E0           MOVX    A,@DPTR
   \   0001EB   F9           MOV     R1,A
   \   0001EC   7402         MOV     A,#0x2
   \   0001EE   12....       LCALL   ?XSTACK_DISP0_8
   \   0001F1   E8           MOV     A,R0
   \   0001F2   F0           MOVX    @DPTR,A
   \   0001F3   A3           INC     DPTR
   \   0001F4   E9           MOV     A,R1
   \   0001F5   F0           MOVX    @DPTR,A
   \   0001F6   EE           MOV     A,R6
   \   0001F7   240A         ADD     A,#0xa
   \   0001F9   F5..         MOV     ?V0 + 12,A
   \   0001FB   EF           MOV     A,R7
   \   0001FC   3400         ADDC    A,#0x0
   \   0001FE   F5..         MOV     ?V0 + 13,A
   \   000200                ; Setup parameters for call to function AddrMgrEntryLookupNwk
   \   000200   7401         MOV     A,#0x1
   \   000202   12....       LCALL   ?XSTACK_DISP0_8
   \   000205   AA82         MOV     R2,DPL
   \   000207   AB83         MOV     R3,DPH
   \   000209   12....       LCALL   ??AddrMgrEntryLookupNwk?relay
   \   00020C   E9           MOV     A,R1
   \   00020D   6401         XRL     A,#0x1
   \   00020F   6003         JZ      $+5
   \   000211   02....       LJMP    ??ZDO_ProcessMgmtLqiReq_4 & 0xFFFF
   \   000214                ; Setup parameters for call to function sAddrExtCpy
   \   000214   7404         MOV     A,#0x4
   \   000216   12....       LCALL   ?XSTACK_DISP0_8
   \   000219   AC82         MOV     R4,DPL
   \   00021B   AD83         MOV     R5,DPH
   \   00021D   AA..         MOV     R2,?V0 + 12
   \   00021F   AB..         MOV     R3,?V0 + 13
   \   000221   12....       LCALL   ??sAddrExtCpy?relay
   \   000224   02....       LJMP    ??ZDO_ProcessMgmtLqiReq_5 & 0xFFFF
   \                     ??ZDO_ProcessMgmtLqiReq_10:
   \   000227   7401         MOV     A,#0x1
   \   000229   F0           MOVX    @DPTR,A
   \   00022A   8882         MOV     DPL,R0
   \   00022C   8983         MOV     DPH,R1
   \   00022E   E0           MOVX    A,@DPTR
   \   00022F   6403         XRL     A,#0x3
   \   000231   7003         JNZ     $+5
   \   000233   02....       LJMP    ??ZDO_ProcessMgmtLqiReq_12 & 0xFFFF
   \                     ??ZDO_ProcessMgmtLqiReq_11:
   \   000236   EE           MOV     A,R6
   \   000237   2415         ADD     A,#0x15
   \   000239   F582         MOV     DPL,A
   \   00023B   EF           MOV     A,R7
   \   00023C   3400         ADDC    A,#0x0
   \   00023E   F583         MOV     DPH,A
   \   000240   7401         MOV     A,#0x1
   \   000242   02....       LJMP    ??ZDO_ProcessMgmtLqiReq_13 & 0xFFFF
   1237                  }
   1238                  else
   1239                  {
   1240                    if ( StartIndex <= aItems )
   \                     ??ZDO_ProcessMgmtLqiReq_14:
   \   000245   E5..         MOV     A,?V0 + 2
   \   000247   C3           CLR     C
   \   000248   95..         SUBB    A,?V0 + 4
   \   00024A   4005         JC      ??ZDO_ProcessMgmtLqiReq_15
   1241                      // Start with 1st neighbor
   1242                      index = 0;
   \   00024C   75..00       MOV     ?V0 + 0,#0x0
   \   00024F   8007         SJMP    ??ZDO_ProcessMgmtLqiReq_16
   1243                    else
   1244                      // Start with >1st neighbor
   1245                      index = StartIndex - aItems;
   \                     ??ZDO_ProcessMgmtLqiReq_15:
   \   000251   E5..         MOV     A,?V0 + 4
   \   000253   C3           CLR     C
   \   000254   95..         SUBB    A,?V0 + 2
   \   000256   F5..         MOV     ?V0 + 0,A
   1246                    break;
   1247                  }
   1248                }
   1249          
   1250                // Loop through neighbor items and finish list
   1251                for ( ; x < numItems; x++ )
   1252                {
   1253                  // Add next neighbor table item
   1254                  NLME_GetRequest( nwkNeighborTable, index++, &entry );
   \                     ??ZDO_ProcessMgmtLqiReq_16:
   \   000258                ; Setup parameters for call to function NLME_GetRequest
   \   000258   740E         MOV     A,#0xe
   \   00025A   12....       LCALL   ?XSTACK_DISP0_8
   \   00025D   AC82         MOV     R4,DPL
   \   00025F   AD83         MOV     R5,DPH
   \   000261   85....       MOV     ?V0 + 6,?V0 + 0
   \   000264   AA..         MOV     R2,?V0 + 6
   \   000266   7B00         MOV     R3,#0x0
   \   000268   7987         MOV     R1,#-0x79
   \   00026A   12....       LCALL   ??NLME_GetRequest?relay
   \   00026D   05..         INC     ?V0 + 0
   1255          
   1256                  // set ZDP_MgmtLqiItem_t fields
   1257                  item->panID    = entry.panId;
   \   00026F   7418         MOV     A,#0x18
   \   000271   12....       LCALL   ?XSTACK_DISP0_8
   \   000274   E0           MOVX    A,@DPTR
   \   000275   F8           MOV     R0,A
   \   000276   A3           INC     DPTR
   \   000277   E0           MOVX    A,@DPTR
   \   000278   F9           MOV     R1,A
   \   000279   8E82         MOV     DPL,R6
   \   00027B   8F83         MOV     DPH,R7
   \   00027D   E8           MOV     A,R0
   \   00027E   F0           MOVX    @DPTR,A
   \   00027F   A3           INC     DPTR
   \   000280   E9           MOV     A,R1
   \   000281   F0           MOVX    @DPTR,A
   1258                  osal_cpyExtAddr( item->extPanID, _NIB.extendedPANID );
   \   000282                ; Setup parameters for call to function sAddrExtCpy
   \   000282   7C..         MOV     R4,#(_NIB + 53) & 0xff
   \   000284   7D..         MOV     R5,#((_NIB + 53) >> 8) & 0xff
   \   000286   EE           MOV     A,R6
   \   000287   2402         ADD     A,#0x2
   \   000289   FA           MOV     R2,A
   \   00028A   EF           MOV     A,R7
   \   00028B   3400         ADDC    A,#0x0
   \   00028D   FB           MOV     R3,A
   \   00028E   12....       LCALL   ??sAddrExtCpy?relay
   1259                  osal_memset( item->extAddr, 0xFF, Z_EXTADDR_LEN );
   \   000291                ; Setup parameters for call to function osal_memset
   \   000291   7C08         MOV     R4,#0x8
   \   000293   7D00         MOV     R5,#0x0
   \   000295   79FF         MOV     R1,#-0x1
   \   000297   EE           MOV     A,R6
   \   000298   240A         ADD     A,#0xa
   \   00029A   FA           MOV     R2,A
   \   00029B   EF           MOV     A,R7
   \   00029C   3400         ADDC    A,#0x0
   \   00029E   FB           MOV     R3,A
   \   00029F   12....       LCALL   ??osal_memset?relay
   1260                  item->nwkAddr  = entry.neighborAddress;
   \   0002A2   EE           MOV     A,R6
   \   0002A3   2412         ADD     A,#0x12
   \   0002A5   F8           MOV     R0,A
   \   0002A6   EF           MOV     A,R7
   \   0002A7   3400         ADDC    A,#0x0
   \   0002A9   F9           MOV     R1,A
   \   0002AA   740E         MOV     A,#0xe
   \   0002AC   12....       LCALL   ?XSTACK_DISP0_8
   \   0002AF   E0           MOVX    A,@DPTR
   \   0002B0   FA           MOV     R2,A
   \   0002B1   A3           INC     DPTR
   \   0002B2   E0           MOVX    A,@DPTR
   \   0002B3   FB           MOV     R3,A
   \   0002B4   8882         MOV     DPL,R0
   \   0002B6   8983         MOV     DPH,R1
   \   0002B8   EA           MOV     A,R2
   \   0002B9   F0           MOVX    @DPTR,A
   \   0002BA   A3           INC     DPTR
   \   0002BB   EB           MOV     A,R3
   \   0002BC   F0           MOVX    @DPTR,A
   1261                  item->rxOnIdle = ZDP_MGMT_BOOL_UNKNOWN;
   \   0002BD   EE           MOV     A,R6
   \   0002BE   2415         ADD     A,#0x15
   \   0002C0   F582         MOV     DPL,A
   \   0002C2   EF           MOV     A,R7
   \   0002C3   3400         ADDC    A,#0x0
   \   0002C5   F583         MOV     DPH,A
   \   0002C7   7402         MOV     A,#0x2
   \   0002C9   F0           MOVX    @DPTR,A
   1262                  item->relation = ZDP_MGMT_REL_UNKNOWN;
   \   0002CA   EE           MOV     A,R6
   \   0002CB   2416         ADD     A,#0x16
   \   0002CD   F582         MOV     DPL,A
   \   0002CF   EF           MOV     A,R7
   \   0002D0   3400         ADDC    A,#0x0
   \   0002D2   F583         MOV     DPH,A
   \   0002D4   7403         MOV     A,#0x3
   \   0002D6   F0           MOVX    @DPTR,A
   1263                  item->permit   = ZDP_MGMT_BOOL_UNKNOWN;
   \   0002D7   EE           MOV     A,R6
   \   0002D8   2417         ADD     A,#0x17
   \   0002DA   F582         MOV     DPL,A
   \   0002DC   EF           MOV     A,R7
   \   0002DD   3400         ADDC    A,#0x0
   \   0002DF   F583         MOV     DPH,A
   \   0002E1   7402         MOV     A,#0x2
   \   0002E3   F0           MOVX    @DPTR,A
   1264                  item->depth    = 0xFF;
   \   0002E4   EE           MOV     A,R6
   \   0002E5   2418         ADD     A,#0x18
   \   0002E7   F582         MOV     DPL,A
   \   0002E9   EF           MOV     A,R7
   \   0002EA   3400         ADDC    A,#0x0
   \   0002EC   F583         MOV     DPH,A
   \   0002EE   74FF         MOV     A,#-0x1
   \   0002F0   F0           MOVX    @DPTR,A
   1265                  item->lqi      = entry.linkInfo.rxLqi;
   \   0002F1   741D         MOV     A,#0x1d
   \   0002F3   12....       LCALL   ?XSTACK_DISP0_8
   \   0002F6   E0           MOVX    A,@DPTR
   \   0002F7   C0E0         PUSH    A
   \   0002F9   EE           MOV     A,R6
   \   0002FA   2419         ADD     A,#0x19
   \   0002FC   F582         MOV     DPL,A
   \   0002FE   EF           MOV     A,R7
   \   0002FF   3400         ADDC    A,#0x0
   \   000301   F583         MOV     DPH,A
   \   000303   D0E0         POP     A
   \   000305   F0           MOVX    @DPTR,A
   1266          
   1267                  if ( item->nwkAddr == 0 )
   \   000306   EE           MOV     A,R6
   \   000307   2414         ADD     A,#0x14
   \   000309   FA           MOV     R2,A
   \   00030A   EF           MOV     A,R7
   \   00030B   3400         ADDC    A,#0x0
   \   00030D   FB           MOV     R3,A
   \   00030E   8882         MOV     DPL,R0
   \   000310   8983         MOV     DPH,R1
   \   000312   E0           MOVX    A,@DPTR
   \   000313   F8           MOV     R0,A
   \   000314   A3           INC     DPTR
   \   000315   E0           MOVX    A,@DPTR
   \   000316   F9           MOV     R1,A
   \   000317   E8           MOV     A,R0
   \   000318   49           ORL     A,R1
   \   000319   8A82         MOV     DPL,R2
   \   00031B   8B83         MOV     DPH,R3
   \   00031D   7003         JNZ     ??ZDO_ProcessMgmtLqiReq_17
   1268                  {
   1269                    item->devType = ZDP_MGMT_DT_COORD;
   \   00031F   E4           CLR     A
   \   000320   8002         SJMP    ??ZDO_ProcessMgmtLqiReq_18
   1270                  }
   1271                  else
   1272                  {
   1273                    item->devType = ZDP_MGMT_DT_ROUTER;
   \                     ??ZDO_ProcessMgmtLqiReq_17:
   \   000322   7401         MOV     A,#0x1
   \                     ??ZDO_ProcessMgmtLqiReq_18:
   \   000324   F0           MOVX    @DPTR,A
   1274                  }
   1275          
   1276                  item++;
   \   000325   EE           MOV     A,R6
   \   000326   241A         ADD     A,#0x1a
   \   000328   FE           MOV     R6,A
   \   000329   EF           MOV     A,R7
   \   00032A   3400         ADDC    A,#0x0
   \   00032C   FF           MOV     R7,A
   1277                }
   \   00032D   05..         INC     ?V0 + 3
   \   00032F   E5..         MOV     A,?V0 + 3
   \   000331   C3           CLR     C
   \   000332   95..         SUBB    A,?V0 + 1
   \   000334   5006         JNC     ??ZDO_ProcessMgmtLqiReq_2
   \   000336   02....       LJMP    ??ZDO_ProcessMgmtLqiReq_16 & 0xFFFF
   1278              }
   1279            }
   1280            else
   1281            {
   1282              numItems = 0;
   \                     ??ZDO_ProcessMgmtLqiReq_0:
   \   000339   75..00       MOV     ?V0 + 1,#0x0
   1283            }
   1284          
   1285            // Send response
   1286            ZDP_MgmtLqiRsp( inMsg->TransSeq, &(inMsg->srcAddr), ZSuccess, maxItems,
   1287                            StartIndex, numItems, table, false );
   \                     ??ZDO_ProcessMgmtLqiReq_2:
   \   00033C                ; Setup parameters for call to function ZDP_MgmtLqiRsp
   \   00033C   75..00       MOV     ?V0 + 2,#0x0
   \   00033F   78..         MOV     R0,#?V0 + 2
   \   000341   12....       LCALL   ?PUSH_XSTACK_I_ONE
   \   000344   78..         MOV     R0,#?V0 + 10
   \   000346   12....       LCALL   ?PUSH_XSTACK_I_TWO
   \   000349   78..         MOV     R0,#?V0 + 1
   \   00034B   12....       LCALL   ?PUSH_XSTACK_I_ONE
   \   00034E   E5..         MOV     A,?V0 + 4
   \   000350   F5..         MOV     ?V0 + 1,A
   \   000352   78..         MOV     R0,#?V0 + 1
   \   000354   12....       LCALL   ?PUSH_XSTACK_I_ONE
   \   000357   7405         MOV     A,#0x5
   \   000359   12....       LCALL   ?XSTACK_DISP0_8
   \   00035C   E0           MOVX    A,@DPTR
   \   00035D   FD           MOV     R5,A
   \   00035E   7C00         MOV     R4,#0x0
   \   000360   E5..         MOV     A,?V0 + 14
   \   000362   2402         ADD     A,#0x2
   \   000364   FA           MOV     R2,A
   \   000365   E5..         MOV     A,?V0 + 15
   \   000367   3400         ADDC    A,#0x0
   \   000369   FB           MOV     R3,A
   \   00036A   E5..         MOV     A,?V0 + 14
   \   00036C   240F         ADD     A,#0xf
   \   00036E   F582         MOV     DPL,A
   \   000370   E5..         MOV     A,?V0 + 15
   \   000372   3400         ADDC    A,#0x0
   \   000374   F583         MOV     DPH,A
   \   000376   E0           MOVX    A,@DPTR
   \   000377   F9           MOV     R1,A
   \   000378   12....       LCALL   ??ZDP_MgmtLqiRsp?relay
   \   00037B   7405         MOV     A,#0x5
   \   00037D   12....       LCALL   ?DEALLOC_XSTACK8
   1288          
   1289            if ( table )
   \   000380   E5..         MOV     A,?V0 + 10
   \   000382   45..         ORL     A,?V0 + 11
   \   000384   6007         JZ      ??ZDO_ProcessMgmtLqiReq_19
   1290            {
   1291              osal_mem_free( table );
   \   000386                ; Setup parameters for call to function osal_mem_free
   \   000386   AA..         MOV     R2,?V0 + 10
   \   000388   AB..         MOV     R3,?V0 + 11
   \   00038A   12....       LCALL   ??osal_mem_free?relay
   1292            }
   1293          }
   \                     ??ZDO_ProcessMgmtLqiReq_19:
   \   00038D   7425         MOV     A,#0x25
   \   00038F   02....       LJMP    ?Subroutine5 & 0xFFFF
   1294          
   1295          /*********************************************************************
   1296           * @fn          ZDO_ProcessMgmtNwkDiscReq
   1297           *
   1298           * @brief       This function handles parsing the incoming Management
   1299           *              Network Discover request and starts the request.
   1300           *
   1301           * @param       inMsg - incoming message (request)
   1302           *
   1303           * @return      none
   1304           */

   \                                 In  segment BANKED_CODE, align 1, keep-with-next
   1305          void ZDO_ProcessMgmtNwkDiscReq( zdoIncomingMsg_t *inMsg )
   \                     ZDO_ProcessMgmtNwkDiscReq:
   1306          {
   \   000000   74F6         MOV     A,#-0xa
   \   000002   12....       LCALL   ?BANKED_ENTER_XDATA
   \   000005                ; Saved register size: 10
   \   000005                ; Auto size: 7
   \   000005   74F9         MOV     A,#-0x7
   \   000007   12....       LCALL   ?ALLOC_XSTACK8
   \   00000A   8A..         MOV     ?V0 + 0,R2
   \   00000C   8B..         MOV     ?V0 + 1,R3
   1307            NLME_ScanFields_t scan;
   1308            uint8             index;
   1309            uint8             *msg;
   1310          
   1311            msg = inMsg->asdu;
   \   00000E   EA           MOV     A,R2
   \   00000F   2413         ADD     A,#0x13
   \   000011   F582         MOV     DPL,A
   \   000013   EB           MOV     A,R3
   \   000014   3400         ADDC    A,#0x0
   \   000016   F583         MOV     DPH,A
   \   000018   E0           MOVX    A,@DPTR
   \   000019   FE           MOV     R6,A
   \   00001A   A3           INC     DPTR
   \   00001B   E0           MOVX    A,@DPTR
   \   00001C   FF           MOV     R7,A
   1312            scan.channels = osal_build_uint32( msg, 4 );
   \   00001D                ; Setup parameters for call to function osal_build_uint32
   \   00001D   7904         MOV     R1,#0x4
   \   00001F   EE           MOV     A,R6
   \   000020   FA           MOV     R2,A
   \   000021   EF           MOV     A,R7
   \   000022   FB           MOV     R3,A
   \   000023   12....       LCALL   ??osal_build_uint32?relay
   \   000026   85..82       MOV     DPL,?XSP + 0
   \   000029   85..83       MOV     DPH,?XSP + 1
   \   00002C   12....       LCALL   ?XSTORE_R2345
   1313            msg += 4;
   \   00002F   EE           MOV     A,R6
   \   000030   2404         ADD     A,#0x4
   \   000032   FE           MOV     R6,A
   \   000033   EF           MOV     A,R7
   \   000034   3400         ADDC    A,#0x0
   \   000036   FF           MOV     R7,A
   1314            scan.duration = *msg++;
   \   000037   8E82         MOV     DPL,R6
   \   000039   8F83         MOV     DPH,R7
   \   00003B   E0           MOVX    A,@DPTR
   \   00003C   C0E0         PUSH    A
   \   00003E   7404         MOV     A,#0x4
   \   000040   12....       LCALL   ?XSTACK_DISP0_8
   \   000043   D0E0         POP     A
   \   000045   F0           MOVX    @DPTR,A
   \   000046   8E82         MOV     DPL,R6
   \   000048   8F83         MOV     DPH,R7
   \   00004A   A3           INC     DPTR
   1315            index         = *msg;
   \   00004B   E0           MOVX    A,@DPTR
   \   00004C   FA           MOV     R2,A
   1316            scan.scanType = ZMAC_ACTIVE_SCAN;
   \   00004D   7405         MOV     A,#0x5
   \   00004F   12....       LCALL   ?XSTACK_DISP0_8
   \   000052   7401         MOV     A,#0x1
   \   000054   F0           MOVX    @DPTR,A
   1317            scan.scanApp  = NLME_DISC_SCAN;
   \   000055   7406         MOV     A,#0x6
   \   000057   12....       LCALL   ?XSTACK_DISP0_8
   \   00005A   7401         MOV     A,#0x1
   \   00005C   F0           MOVX    @DPTR,A
   1318          
   1319            // Save off the information to be used for the response
   1320            zdappMgmtNwkDiscReqInProgress          = true;
   \   00005D   90....       MOV     DPTR,#zdappMgmtNwkDiscReqInProgress
   \   000060   F0           MOVX    @DPTR,A
   1321            zdappMgmtNwkDiscRspAddr.addrMode       = Addr16Bit;
   \   000061   90....       MOV     DPTR,#zdappMgmtNwkDiscRspAddr + 8
   \   000064   04           INC     A
   \   000065   F0           MOVX    @DPTR,A
   1322            zdappMgmtNwkDiscRspAddr.addr.shortAddr = inMsg->srcAddr.addr.shortAddr;
   \   000066   85..82       MOV     DPL,?V0 + 0
   \   000069   85..83       MOV     DPH,?V0 + 1
   \   00006C   A3           INC     DPTR
   \   00006D   A3           INC     DPTR
   \   00006E   E0           MOVX    A,@DPTR
   \   00006F   F8           MOV     R0,A
   \   000070   A3           INC     DPTR
   \   000071   E0           MOVX    A,@DPTR
   \   000072   F9           MOV     R1,A
   \   000073   90....       MOV     DPTR,#zdappMgmtNwkDiscRspAddr
   \   000076   E8           MOV     A,R0
   \   000077   F0           MOVX    @DPTR,A
   \   000078   A3           INC     DPTR
   \   000079   E9           MOV     A,R1
   \   00007A   F0           MOVX    @DPTR,A
   1323            zdappMgmtNwkDiscStartIndex             = index;
   \   00007B   EA           MOV     A,R2
   \   00007C   90....       MOV     DPTR,#zdappMgmtNwkDiscStartIndex
   \   00007F   F0           MOVX    @DPTR,A
   1324            zdappMgmtNwkDiscRspTransSeq            = inMsg->TransSeq;
   \   000080   E5..         MOV     A,?V0 + 0
   \   000082   240F         ADD     A,#0xf
   \   000084   F582         MOV     DPL,A
   \   000086   E5..         MOV     A,?V0 + 1
   \   000088   3400         ADDC    A,#0x0
   \   00008A   F583         MOV     DPH,A
   \   00008C   E0           MOVX    A,@DPTR
   \   00008D   90....       MOV     DPTR,#zdappMgmtNwkDiscRspTransSeq
   \   000090   F0           MOVX    @DPTR,A
   1325          
   1326            if ( NLME_NwkDiscReq2( &scan ) != ZSuccess )
   \   000091                ; Setup parameters for call to function NLME_NwkDiscReq2
   \   000091   85..82       MOV     DPL,?XSP + 0
   \   000094   85..83       MOV     DPH,?XSP + 1
   \   000097   AA82         MOV     R2,DPL
   \   000099   AB83         MOV     R3,DPH
   \   00009B   12....       LCALL   ??NLME_NwkDiscReq2?relay
   \   00009E   E9           MOV     A,R1
   \   00009F   6003         JZ      ??ZDO_ProcessMgmtNwkDiscReq_0
   1327            {
   1328              NLME_NwkDiscTerm();
   \   0000A1                ; Setup parameters for call to function NLME_NwkDiscTerm
   \   0000A1   12....       LCALL   ??NLME_NwkDiscTerm?relay
   1329          
   1330              // zdappMgmtNwkDiscReqInProgress will be reset in the confirm callback
   1331            }
   1332          }
   \                     ??ZDO_ProcessMgmtNwkDiscReq_0:
   \   0000A4   7407         MOV     A,#0x7
   \   0000A6   02....       LJMP    ??Subroutine11_0 & 0xFFFF
   1333          
   1334          #if defined ( ZDO_MGMT_NWKDISC_RESPONSE )
   1335          /*********************************************************************
   1336           * @fn          ZDO_FinishProcessingMgmtNwkDiscReq
   1337           *
   1338           * @brief       This function finishes the processing of the Management
   1339           *              Network Discover Request and generates the response.
   1340           *
   1341           *   Note:      This function will limit the number of items returned
   1342           *              to ZDO_MAX_NWKDISC_ITEMS items.
   1343           *
   1344           * @param       ResultCountSrcAddr - source of the request
   1345           * @param       msg - pointer to incoming message
   1346           * @param       SecurityUse -
   1347           *
   1348           * @return      none
   1349           */
   1350          void ZDO_FinishProcessingMgmtNwkDiscReq( byte ResultCount,
   1351                                                   networkDesc_t *NetworkList )
   1352          {
   1353            byte count, i;
   1354            networkDesc_t *newDesc = NULL, *pList = NetworkList;
   1355          
   1356            if ( ZSTACK_ROUTER_BUILD )
   1357            {
   1358              // Look for my PanID.
   1359              while ( pList )
   1360              {
   1361                if ( pList->panId == _NIB.nwkPanId )
   1362                {
   1363                  break;
   1364                }
   1365          
   1366          
   1367                if ( !pList->nextDesc )
   1368                {
   1369                  break;
   1370                }
   1371                pList = pList->nextDesc;
   1372              }
   1373          
   1374          
   1375              // If my Pan not present (query to a star network ZC or an isolated ZR?),
   1376              // prepend it.
   1377              if ( !pList || (pList->panId != _NIB.nwkPanId) )
   1378              {
   1379                newDesc = (networkDesc_t *)osal_mem_alloc( sizeof( networkDesc_t ) );
   1380                if ( newDesc )
   1381                {
   1382                  byte pJoin;
   1383          
   1384                  newDesc->panId = _NIB.nwkPanId;
   1385                  newDesc->logicalChannel = _NIB.nwkLogicalChannel;
   1386                  newDesc->beaconOrder = _NIB.beaconOrder;
   1387                  newDesc->superFrameOrder = _NIB.superFrameOrder;
   1388                  newDesc->version = NLME_GetProtocolVersion();
   1389                  newDesc->stackProfile = zgStackProfile;
   1390                  //Extended PanID
   1391                  osal_cpyExtAddr( newDesc->extendedPANID, _NIB.extendedPANID);
   1392          
   1393                  ZMacGetReq( ZMacAssociationPermit, &pJoin );
   1394                  newDesc->chosenRouter = ((pJoin) ? ZDAppNwkAddr.addr.shortAddr :
   1395                                                     INVALID_NODE_ADDR);
   1396          
   1397                  newDesc->nextDesc = NetworkList;
   1398                  NetworkList = newDesc;
   1399                  ResultCount++;
   1400                }
   1401              }
   1402            }
   1403          
   1404            // Calc the count and apply a max count.
   1405            if ( zdappMgmtNwkDiscStartIndex > ResultCount )
   1406            {
   1407              count = 0;
   1408            }
   1409            else
   1410            {
   1411              count = ResultCount - zdappMgmtNwkDiscStartIndex;
   1412              if ( count > ZDO_MAX_NWKDISC_ITEMS )
   1413              {
   1414                count = ZDO_MAX_NWKDISC_ITEMS;
   1415              }
   1416          
   1417              // Move the list pointer up to the start index.
   1418              for ( i = 0; i < zdappMgmtNwkDiscStartIndex; i++ )
   1419              {
   1420                NetworkList = NetworkList->nextDesc;
   1421              }
   1422            }
   1423          
   1424            ZDP_MgmtNwkDiscRsp( zdappMgmtNwkDiscRspTransSeq,
   1425                               &zdappMgmtNwkDiscRspAddr, ZSuccess, ResultCount,
   1426                                zdappMgmtNwkDiscStartIndex,
   1427                                count,
   1428                                NetworkList,
   1429                                false );
   1430          
   1431            if ( ZSTACK_ROUTER_BUILD )
   1432            {
   1433              if ( newDesc != NULL )
   1434              {
   1435                osal_mem_free( newDesc );
   1436              }
   1437            }
   1438          
   1439            NLME_NwkDiscTerm();
   1440          }
   1441          #endif
   1442          
   1443          /*********************************************************************
   1444           * @fn          ZDO_ProcessMgmtRtgReq
   1445           *
   1446           * @brief       This function finishes the processing of the Management
   1447           *              Routing Request and generates the response.
   1448           *
   1449           *   Note:      This function will limit the number of items returned
   1450           *              to ZDO_MAX_RTG_ITEMS items.
   1451           *
   1452           * @param       inMsg - incoming message (request)
   1453           *
   1454           * @return      none
   1455           */

   \                                 In  segment BANKED_CODE, align 1, keep-with-next
   1456          void ZDO_ProcessMgmtRtgReq( zdoIncomingMsg_t *inMsg )
   \                     ZDO_ProcessMgmtRtgReq:
   1457          {
   \   000000   74EC         MOV     A,#-0x14
   \   000002   12....       LCALL   ?BANKED_ENTER_XDATA
   \   000005                ; Saved register size: 20
   \   000005                ; Auto size: 1
   \   000005   74FF         MOV     A,#-0x1
   \   000007   12....       LCALL   ?ALLOC_XSTACK8
   \   00000A   8A..         MOV     ?V0 + 4,R2
   \   00000C   8B..         MOV     ?V0 + 5,R3
   1458            byte x;
   1459            byte maxNumItems;
   1460            byte numItems = 0;
   \   00000E   7F00         MOV     R7,#0x0
   1461            uint8 *pBuf = NULL;
   \   000010   8F..         MOV     ?V0 + 8,R7
   \   000012   8F..         MOV     ?V0 + 9,R7
   1462            rtgItem_t *pList;
   1463            uint8 StartIndex = inMsg->asdu[0];
   \   000014   EA           MOV     A,R2
   \   000015   2413         ADD     A,#0x13
   \   000017   F582         MOV     DPL,A
   \   000019   EB           MOV     A,R3
   \   00001A   3400         ADDC    A,#0x0
   \   00001C   F583         MOV     DPH,A
   \   00001E   E0           MOVX    A,@DPTR
   \   00001F   F8           MOV     R0,A
   \   000020   A3           INC     DPTR
   \   000021   E0           MOVX    A,@DPTR
   \   000022   F583         MOV     DPH,A
   \   000024   8882         MOV     DPL,R0
   \   000026   E0           MOVX    A,@DPTR
   \   000027   FE           MOV     R6,A
   1464          
   1465            // Get the number of table items
   1466            NLME_GetRequest( nwkNumRoutingTableEntries, 0, &maxNumItems );
   \   000028                ; Setup parameters for call to function NLME_GetRequest
   \   000028   85..82       MOV     DPL,?XSP + 0
   \   00002B   85..83       MOV     DPH,?XSP + 1
   \   00002E   AC82         MOV     R4,DPL
   \   000030   AD83         MOV     R5,DPH
   \   000032   7A00         MOV     R2,#0x0
   \   000034   7B00         MOV     R3,#0x0
   \   000036   799D         MOV     R1,#-0x63
   \   000038   12....       LCALL   ??NLME_GetRequest?relay
   1467          
   1468            if ( maxNumItems > StartIndex )
   \   00003B   85..82       MOV     DPL,?XSP + 0
   \   00003E   85..83       MOV     DPH,?XSP + 1
   \   000041   E0           MOVX    A,@DPTR
   \   000042   F8           MOV     R0,A
   \   000043   EE           MOV     A,R6
   \   000044   C3           CLR     C
   \   000045   98           SUBB    A,R0
   \   000046   4003         JC      $+5
   \   000048   02....       LJMP    ??ZDO_ProcessMgmtRtgReq_0 & 0xFFFF
   1469            {
   1470              numItems = maxNumItems - StartIndex;    // Start at the passed in index
   \   00004B   E0           MOVX    A,@DPTR
   \   00004C   C3           CLR     C
   \   00004D   9E           SUBB    A,R6
   \   00004E   FF           MOV     R7,A
   1471          
   1472              // limit the size of the list
   1473              if ( numItems > ZDO_MAX_RTG_ITEMS )
   \   00004F   C3           CLR     C
   \   000050   940B         SUBB    A,#0xb
   \   000052   4002         JC      ??ZDO_ProcessMgmtRtgReq_1
   1474              {
   1475                numItems = ZDO_MAX_RTG_ITEMS;
   \   000054   7F0A         MOV     R7,#0xa
   1476              }
   1477          
   1478              // Allocate the memory to build the table
   1479              pBuf = osal_mem_alloc( (short)(sizeof( rtgItem_t ) * numItems) );
   \                     ??ZDO_ProcessMgmtRtgReq_1:
   \   000056                ; Setup parameters for call to function osal_mem_alloc
   \   000056   EF           MOV     A,R7
   \   000057   75F006       MOV     B,#0x6
   \   00005A   A4           MUL     AB
   \   00005B   FA           MOV     R2,A
   \   00005C   ABF0         MOV     R3,B
   \   00005E   12....       LCALL   ??osal_mem_alloc?relay
   \   000061   8A..         MOV     ?V0 + 0,R2
   \   000063   8B..         MOV     ?V0 + 1,R3
   \   000065   8A..         MOV     ?V0 + 8,R2
   \   000067   8B..         MOV     ?V0 + 9,R3
   1480          
   1481              if ( pBuf != NULL )
   \   000069   EA           MOV     A,R2
   \   00006A   45..         ORL     A,?V0 + 9
   \   00006C   605B         JZ      ??ZDO_ProcessMgmtRtgReq_2
   1482              {
   1483                // Convert buffer to list
   1484                pList = (rtgItem_t *)pBuf;
   1485          
   1486                // Loop through items and build list
   1487                for ( x = 0; x < numItems; x++ )
   \   00006E   75..00       MOV     ?V0 + 6,#0x0
   \   000071   EF           MOV     A,R7
   \   000072   6057         JZ      ??ZDO_ProcessMgmtRtgReq_0
   \   000074   8E82         MOV     DPL,R6
   \   000076   8582..       MOV     ?V0 + 2,DPL
   1488                {
   1489                  NLME_GetRequest( nwkRoutingTable, (uint16)(x + StartIndex), (void*)pList );
   \                     ??ZDO_ProcessMgmtRtgReq_3:
   \   000079                ; Setup parameters for call to function NLME_GetRequest
   \   000079   AC..         MOV     R4,?V0 + 0
   \   00007B   AD..         MOV     R5,?V0 + 1
   \   00007D   85....       MOV     ?V0 + 10,?V0 + 6
   \   000080   E5..         MOV     A,?V0 + 10
   \   000082   25..         ADD     A,?V0 + 2
   \   000084   FA           MOV     R2,A
   \   000085   E4           CLR     A
   \   000086   3400         ADDC    A,#0x0
   \   000088   FB           MOV     R3,A
   \   000089   798B         MOV     R1,#-0x75
   \   00008B   12....       LCALL   ??NLME_GetRequest?relay
   1490          
   1491                  // Remap the status to the RoutingTableList Record Format defined in the ZigBee spec
   1492                  switch( pList->status )
   \   00008E   E5..         MOV     A,?V0 + 0
   \   000090   2405         ADD     A,#0x5
   \   000092   F582         MOV     DPL,A
   \   000094   E5..         MOV     A,?V0 + 1
   \   000096   3400         ADDC    A,#0x0
   \   000098   F583         MOV     DPH,A
   \   00009A   E0           MOVX    A,@DPTR
   \   00009B   14           DEC     A
   \   00009C   6008         JZ      ??ZDO_ProcessMgmtRtgReq_4
   \   00009E   14           DEC     A
   \   00009F   6008         JZ      ??ZDO_ProcessMgmtRtgReq_5
   \   0000A1   14           DEC     A
   \   0000A2   6009         JZ      ??ZDO_ProcessMgmtRtgReq_6
   \   0000A4   800A         SJMP    ??ZDO_ProcessMgmtRtgReq_7
   1493                  {
   1494                    case RT_ACTIVE:
   1495                      pList->status = ZDO_MGMT_RTG_ENTRY_ACTIVE;
   \                     ??ZDO_ProcessMgmtRtgReq_4:
   \   0000A6   E4           CLR     A
   \   0000A7   8009         SJMP    ??ZDO_ProcessMgmtRtgReq_8
   1496                      break;
   1497          
   1498                    case RT_DISC:
   1499                      pList->status = ZDO_MGMT_RTG_ENTRY_DISCOVERY_UNDERWAY;
   \                     ??ZDO_ProcessMgmtRtgReq_5:
   \   0000A9   7401         MOV     A,#0x1
   \   0000AB   8005         SJMP    ??ZDO_ProcessMgmtRtgReq_8
   1500                      break;
   1501          
   1502                    case RT_LINK_FAIL:
   1503                      pList->status = ZDO_MGMT_RTG_ENTRY_DISCOVERY_FAILED;
   \                     ??ZDO_ProcessMgmtRtgReq_6:
   \   0000AD   7402         MOV     A,#0x2
   \   0000AF   F0           MOVX    @DPTR,A
   1504          
   1505                    case RT_INIT:
   1506                    case RT_REPAIR:
   1507                    default:
   1508                      pList->status = ZDO_MGMT_RTG_ENTRY_INACTIVE;
   \                     ??ZDO_ProcessMgmtRtgReq_7:
   \   0000B0   7403         MOV     A,#0x3
   \                     ??ZDO_ProcessMgmtRtgReq_8:
   \   0000B2   F0           MOVX    @DPTR,A
   1509                      break;
   1510                  }
   1511          
   1512                  // Increment pointer to next record
   1513                  pList++;
   \   0000B3   E5..         MOV     A,?V0 + 0
   \   0000B5   2406         ADD     A,#0x6
   \   0000B7   F5..         MOV     ?V0 + 0,A
   \   0000B9   E5..         MOV     A,?V0 + 1
   \   0000BB   3400         ADDC    A,#0x0
   \   0000BD   F5..         MOV     ?V0 + 1,A
   1514                }
   \   0000BF   05..         INC     ?V0 + 6
   \   0000C1   E5..         MOV     A,?V0 + 6
   \   0000C3   C3           CLR     C
   \   0000C4   9F           SUBB    A,R7
   \   0000C5   5004         JNC     ??ZDO_ProcessMgmtRtgReq_0
   \   0000C7   80B0         SJMP    ??ZDO_ProcessMgmtRtgReq_3
   1515              }
   1516              else
   1517              {
   1518                numItems = 0;
   \                     ??ZDO_ProcessMgmtRtgReq_2:
   \   0000C9   7F00         MOV     R7,#0x0
   1519              }
   1520            }
   1521          
   1522            // Send response
   1523            ZDP_MgmtRtgRsp( inMsg->TransSeq, &(inMsg->srcAddr), ZSuccess, maxNumItems, StartIndex, numItems,
   1524                                  (rtgItem_t *)pBuf, false );
   \                     ??ZDO_ProcessMgmtRtgReq_0:
   \   0000CB                ; Setup parameters for call to function ZDP_MgmtRtgRsp
   \   0000CB   75..00       MOV     ?V0 + 0,#0x0
   \   0000CE   78..         MOV     R0,#?V0 + 0
   \   0000D0   12....       LCALL   ?PUSH_XSTACK_I_ONE
   \   0000D3   78..         MOV     R0,#?V0 + 8
   \   0000D5   12....       LCALL   ?PUSH_XSTACK_I_TWO
   \   0000D8   EF           MOV     A,R7
   \   0000D9   F5..         MOV     ?V0 + 0,A
   \   0000DB   78..         MOV     R0,#?V0 + 0
   \   0000DD   12....       LCALL   ?PUSH_XSTACK_I_ONE
   \   0000E0   EE           MOV     A,R6
   \   0000E1   F5..         MOV     ?V0 + 0,A
   \   0000E3   78..         MOV     R0,#?V0 + 0
   \   0000E5   12....       LCALL   ?PUSH_XSTACK_I_ONE
   \   0000E8   7405         MOV     A,#0x5
   \   0000EA   12....       LCALL   ?XSTACK_DISP0_8
   \   0000ED   E0           MOVX    A,@DPTR
   \   0000EE   FD           MOV     R5,A
   \   0000EF   7C00         MOV     R4,#0x0
   \   0000F1   E5..         MOV     A,?V0 + 4
   \   0000F3   2402         ADD     A,#0x2
   \   0000F5   FA           MOV     R2,A
   \   0000F6   E5..         MOV     A,?V0 + 5
   \   0000F8   3400         ADDC    A,#0x0
   \   0000FA   FB           MOV     R3,A
   \   0000FB   E5..         MOV     A,?V0 + 4
   \   0000FD   240F         ADD     A,#0xf
   \   0000FF   F582         MOV     DPL,A
   \   000101   E5..         MOV     A,?V0 + 5
   \   000103   3400         ADDC    A,#0x0
   \   000105   F583         MOV     DPH,A
   \   000107   E0           MOVX    A,@DPTR
   \   000108   F9           MOV     R1,A
   \   000109   12....       LCALL   ??ZDP_MgmtRtgRsp?relay
   \   00010C   7405         MOV     A,#0x5
   \   00010E   12....       LCALL   ?DEALLOC_XSTACK8
   1525          
   1526            if ( pBuf )
   \   000111   E5..         MOV     A,?V0 + 8
   \   000113   45..         ORL     A,?V0 + 9
   \   000115   6007         JZ      ??ZDO_ProcessMgmtRtgReq_9
   1527            {
   1528              osal_mem_free( pBuf );
   \   000117                ; Setup parameters for call to function osal_mem_free
   \   000117   AA..         MOV     R2,?V0 + 8
   \   000119   AB..         MOV     R3,?V0 + 9
   \   00011B   12....       LCALL   ??osal_mem_free?relay
   1529            }
   1530          }
   \                     ??ZDO_ProcessMgmtRtgReq_9:
   \   00011E   7401         MOV     A,#0x1
   \   000120                REQUIRE ?Subroutine7
   \   000120                ; // Fall through to label ?Subroutine7

   \                                 In  segment BANKED_CODE, align 1, keep-with-next
   \                     ?Subroutine7:
   \   000000   12....       LCALL   ?DEALLOC_XSTACK8
   \   000003                REQUIRE ??Subroutine14_0
   \   000003                ; // Fall through to label ??Subroutine14_0

   \                                 In  segment BANKED_CODE, align 1, keep-with-next
   \                     ??Subroutine14_0:
   \   000000   7F0C         MOV     R7,#0xc
   \   000002   02....       LJMP    ?BANKED_LEAVE_XDATA
   1531          
   1532          /*********************************************************************
   1533           * @fn          ZDO_ProcessMgmtBindReq
   1534           *
   1535           * @brief       This function finishes the processing of the Management
   1536           *              Bind Request and generates the response.
   1537           *
   1538           *   Note:      This function will limit the number of items returned
   1539           *              to ZDO_MAX_BIND_ITEMS items.
   1540           *
   1541           * @param       inMsg - incoming message (request)
   1542           *
   1543           * @return      none
   1544           */

   \                                 In  segment BANKED_CODE, align 1, keep-with-next
   1545          void ZDO_ProcessMgmtBindReq( zdoIncomingMsg_t *inMsg )
   \                     ZDO_ProcessMgmtBindReq:
   1546          {
   \   000000   74EA         MOV     A,#-0x16
   \   000002   12....       LCALL   ?BANKED_ENTER_XDATA
   \   000005                ; Saved register size: 22
   \   000005                ; Auto size: 2
   \   000005   74FE         MOV     A,#-0x2
   \   000007   12....       LCALL   ?ALLOC_XSTACK8
   \   00000A   8A..         MOV     ?V0 + 12,R2
   \   00000C   8B..         MOV     ?V0 + 13,R3
   1547          #if defined ( REFLECTOR )
   1548            byte x;
   1549            uint16 maxNumItems;
   1550            uint16 numItems;
   1551            uint8 *pBuf = NULL;
   \   00000E   75..00       MOV     ?V0 + 0,#0x0
   \   000011   75..00       MOV     ?V0 + 1,#0x0
   1552            apsBindingItem_t *pList;
   1553            uint8 StartIndex = inMsg->asdu[0];
   \   000014   EA           MOV     A,R2
   \   000015   2413         ADD     A,#0x13
   \   000017   F582         MOV     DPL,A
   \   000019   EB           MOV     A,R3
   \   00001A   3400         ADDC    A,#0x0
   \   00001C   F583         MOV     DPH,A
   \   00001E   E0           MOVX    A,@DPTR
   \   00001F   F8           MOV     R0,A
   \   000020   A3           INC     DPTR
   \   000021   E0           MOVX    A,@DPTR
   \   000022   F583         MOV     DPH,A
   \   000024   8882         MOV     DPL,R0
   \   000026   E0           MOVX    A,@DPTR
   \   000027   F5..         MOV     ?V0 + 4,A
   1554            uint8 status;
   1555          
   1556            // Get the number of table items
   1557            APSME_GetRequest( apsNumBindingTableEntries, 0, (byte*)(&maxNumItems) );
   \   000029                ; Setup parameters for call to function APSME_GetRequest
   \   000029   85..82       MOV     DPL,?XSP + 0
   \   00002C   85..83       MOV     DPH,?XSP + 1
   \   00002F   AC82         MOV     R4,DPL
   \   000031   AD83         MOV     R5,DPH
   \   000033   7A00         MOV     R2,#0x0
   \   000035   7B00         MOV     R3,#0x0
   \   000037   79A3         MOV     R1,#-0x5d
   \   000039   12....       LCALL   ??APSME_GetRequest?relay
   1558          
   1559            if ( maxNumItems > StartIndex )
   \   00003C   85..82       MOV     DPL,?V0 + 4
   \   00003F   AA82         MOV     R2,DPL
   \   000041   85..82       MOV     DPL,?XSP + 0
   \   000044   85..83       MOV     DPH,?XSP + 1
   \   000047   E0           MOVX    A,@DPTR
   \   000048   F8           MOV     R0,A
   \   000049   A3           INC     DPTR
   \   00004A   E0           MOVX    A,@DPTR
   \   00004B   F9           MOV     R1,A
   \   00004C   C3           CLR     C
   \   00004D   EA           MOV     A,R2
   \   00004E   98           SUBB    A,R0
   \   00004F   E4           CLR     A
   \   000050   99           SUBB    A,R1
   \   000051   4003         JC      $+5
   \   000053   02....       LJMP    ??ZDO_ProcessMgmtBindReq_0 & 0xFFFF
   1560            {
   1561              numItems = maxNumItems - StartIndex;    // Start at the passed in index
   \   000056   85..82       MOV     DPL,?XSP + 0
   \   000059   85..83       MOV     DPH,?XSP + 1
   \   00005C   E0           MOVX    A,@DPTR
   \   00005D   C3           CLR     C
   \   00005E   9A           SUBB    A,R2
   \   00005F   FE           MOV     R6,A
   \   000060   A3           INC     DPTR
   \   000061   E0           MOVX    A,@DPTR
   \   000062   9400         SUBB    A,#0x0
   \   000064   FF           MOV     R7,A
   1562            }
   1563            else
   1564            {
   1565              numItems = 0;
   1566            }
   1567          
   1568            // limit the size of the list
   1569            if ( numItems > ZDO_MAX_BIND_ITEMS )
   \   000065   C3           CLR     C
   \   000066   EE           MOV     A,R6
   \   000067   9404         SUBB    A,#0x4
   \   000069   EF           MOV     A,R7
   \   00006A   9400         SUBB    A,#0x0
   \   00006C   4006         JC      ??ZDO_ProcessMgmtBindReq_1
   1570            {
   1571              numItems = ZDO_MAX_BIND_ITEMS;
   \   00006E   7E03         MOV     R6,#0x3
   \   000070   7F00         MOV     R7,#0x0
   \   000072   8004         SJMP    ??ZDO_ProcessMgmtBindReq_2
   1572            }
   1573          
   1574            // Allocate the memory to build the table
   1575            if ( numItems && (pBuf = osal_mem_alloc( sizeof( apsBindingItem_t ) * numItems )) )
   \                     ??ZDO_ProcessMgmtBindReq_1:
   \   000074   EE           MOV     A,R6
   \   000075   4F           ORL     A,R7
   \   000076   605F         JZ      ??ZDO_ProcessMgmtBindReq_0
   \                     ??ZDO_ProcessMgmtBindReq_2:
   \   000078                ; Setup parameters for call to function osal_mem_alloc
   \   000078   EE           MOV     A,R6
   \   000079   FA           MOV     R2,A
   \   00007A   EF           MOV     A,R7
   \   00007B   FB           MOV     R3,A
   \   00007C   EA           MOV     A,R2
   \   00007D   75F015       MOV     B,#0x15
   \   000080   A4           MUL     AB
   \   000081   FA           MOV     R2,A
   \   000082   A8F0         MOV     R0,B
   \   000084   75F015       MOV     B,#0x15
   \   000087   EB           MOV     A,R3
   \   000088   A4           MUL     AB
   \   000089   28           ADD     A,R0
   \   00008A   FB           MOV     R3,A
   \   00008B   12....       LCALL   ??osal_mem_alloc?relay
   \   00008E   8A..         MOV     ?V0 + 2,R2
   \   000090   8B..         MOV     ?V0 + 3,R3
   \   000092   8A..         MOV     ?V0 + 0,R2
   \   000094   8B..         MOV     ?V0 + 1,R3
   \   000096   EA           MOV     A,R2
   \   000097   45..         ORL     A,?V0 + 1
   \   000099   603C         JZ      ??ZDO_ProcessMgmtBindReq_0
   1576            {
   1577              status = ZSuccess;
   \   00009B   75..00       MOV     ?V0 + 5,#0x0
   1578          
   1579              // Convert buffer to list
   1580              pList = (apsBindingItem_t *)pBuf;
   1581          
   1582              // Loop through items and build list
   1583              for ( x = 0; x < numItems; x++ )
   \   00009E   75..00       MOV     ?V0 + 6,#0x0
   \   0000A1   85..82       MOV     DPL,?V0 + 4
   \   0000A4   8582..       MOV     ?V0 + 8,DPL
   1584              {
   1585                APSME_GetRequest( apsBindingTable, (x + StartIndex), (void*)pList );
   \                     ??ZDO_ProcessMgmtBindReq_3:
   \   0000A7                ; Setup parameters for call to function APSME_GetRequest
   \   0000A7   AC..         MOV     R4,?V0 + 2
   \   0000A9   AD..         MOV     R5,?V0 + 3
   \   0000AB   85....       MOV     ?V0 + 10,?V0 + 6
   \   0000AE   E5..         MOV     A,?V0 + 10
   \   0000B0   25..         ADD     A,?V0 + 8
   \   0000B2   FA           MOV     R2,A
   \   0000B3   E4           CLR     A
   \   0000B4   3400         ADDC    A,#0x0
   \   0000B6   FB           MOV     R3,A
   \   0000B7   79A2         MOV     R1,#-0x5e
   \   0000B9   12....       LCALL   ??APSME_GetRequest?relay
   1586                pList++;
   \   0000BC   E5..         MOV     A,?V0 + 2
   \   0000BE   2415         ADD     A,#0x15
   \   0000C0   F5..         MOV     ?V0 + 2,A
   \   0000C2   E5..         MOV     A,?V0 + 3
   \   0000C4   3400         ADDC    A,#0x0
   \   0000C6   F5..         MOV     ?V0 + 3,A
   1587              }
   \   0000C8   05..         INC     ?V0 + 6
   \   0000CA   85....       MOV     ?V0 + 10,?V0 + 6
   \   0000CD   C3           CLR     C
   \   0000CE   E5..         MOV     A,?V0 + 10
   \   0000D0   9E           SUBB    A,R6
   \   0000D1   E4           CLR     A
   \   0000D2   9F           SUBB    A,R7
   \   0000D3   5007         JNC     ??ZDO_ProcessMgmtBindReq_4
   \   0000D5   80D0         SJMP    ??ZDO_ProcessMgmtBindReq_3
   1588          
   1589            }
   1590            else
   1591            {
   1592              status = ZDP_NOT_PERMITTED;
   \                     ??ZDO_ProcessMgmtBindReq_0:
   \   0000D7   75..8B       MOV     ?V0 + 5,#-0x75
   1593              numItems = 0;
   \   0000DA   7E00         MOV     R6,#0x0
   1594            }
   1595          
   1596            // Send response
   1597            ZDP_MgmtBindRsp( inMsg->TransSeq, &(inMsg->srcAddr), status, (byte)maxNumItems, StartIndex,
   1598                             (byte)numItems, (apsBindingItem_t *)pBuf, false );
   \                     ??ZDO_ProcessMgmtBindReq_4:
   \   0000DC                ; Setup parameters for call to function ZDP_MgmtBindRsp
   \   0000DC   75..00       MOV     ?V0 + 2,#0x0
   \   0000DF   78..         MOV     R0,#?V0 + 2
   \   0000E1   12....       LCALL   ?PUSH_XSTACK_I_ONE
   \   0000E4   78..         MOV     R0,#?V0 + 0
   \   0000E6   12....       LCALL   ?PUSH_XSTACK_I_TWO
   \   0000E9   EE           MOV     A,R6
   \   0000EA   F5..         MOV     ?V0 + 2,A
   \   0000EC   78..         MOV     R0,#?V0 + 2
   \   0000EE   12....       LCALL   ?PUSH_XSTACK_I_ONE
   \   0000F1   E5..         MOV     A,?V0 + 4
   \   0000F3   F5..         MOV     ?V0 + 2,A
   \   0000F5   78..         MOV     R0,#?V0 + 2
   \   0000F7   12....       LCALL   ?PUSH_XSTACK_I_ONE
   \   0000FA   7405         MOV     A,#0x5
   \   0000FC   12....       LCALL   ?XSTACK_DISP0_8
   \   0000FF   E0           MOVX    A,@DPTR
   \   000100   FD           MOV     R5,A
   \   000101   AC..         MOV     R4,?V0 + 5
   \   000103   E5..         MOV     A,?V0 + 12
   \   000105   2402         ADD     A,#0x2
   \   000107   FA           MOV     R2,A
   \   000108   E5..         MOV     A,?V0 + 13
   \   00010A   3400         ADDC    A,#0x0
   \   00010C   FB           MOV     R3,A
   \   00010D   E5..         MOV     A,?V0 + 12
   \   00010F   240F         ADD     A,#0xf
   \   000111   F582         MOV     DPL,A
   \   000113   E5..         MOV     A,?V0 + 13
   \   000115   3400         ADDC    A,#0x0
   \   000117   F583         MOV     DPH,A
   \   000119   E0           MOVX    A,@DPTR
   \   00011A   F9           MOV     R1,A
   \   00011B   12....       LCALL   ??ZDP_MgmtBindRsp?relay
   \   00011E   7405         MOV     A,#0x5
   \   000120   12....       LCALL   ?DEALLOC_XSTACK8
   1599          
   1600            if ( pBuf )
   \   000123   E5..         MOV     A,?V0 + 0
   \   000125   45..         ORL     A,?V0 + 1
   \   000127   6007         JZ      ??ZDO_ProcessMgmtBindReq_5
   1601            {
   1602              osal_mem_free( pBuf );
   \   000129                ; Setup parameters for call to function osal_mem_free
   \   000129   AA..         MOV     R2,?V0 + 0
   \   00012B   AB..         MOV     R3,?V0 + 1
   \   00012D   12....       LCALL   ??osal_mem_free?relay
   1603            }
   1604          #else
   1605            (void)inMsg;
   1606          #endif
   1607          }
   \                     ??ZDO_ProcessMgmtBindReq_5:
   \   000130   7402         MOV     A,#0x2
   \   000132   12....       LCALL   ?DEALLOC_XSTACK8
   \   000135   7F0E         MOV     R7,#0xe
   \   000137   02....       LJMP    ?BANKED_LEAVE_XDATA
   1608          
   1609          /*********************************************************************
   1610           * @fn          ZDO_ProcessMgmtDirectJoinReq
   1611           *
   1612           * @brief       This function finishes the processing of the Management
   1613           *              Direct Join Request and generates the response.
   1614           *
   1615           * @param       inMsg - incoming message (request)
   1616           *
   1617           * @return      none
   1618           */

   \                                 In  segment BANKED_CODE, align 1, keep-with-next
   1619          void ZDO_ProcessMgmtDirectJoinReq( zdoIncomingMsg_t *inMsg )
   \                     ZDO_ProcessMgmtDirectJoinReq:
   1620          {
   \   000000   74F6         MOV     A,#-0xa
   \   000002   12....       LCALL   ?BANKED_ENTER_XDATA
   \   000005                ; Saved register size: 10
   \   000005                ; Auto size: 1
   \   000005   74FF         MOV     A,#-0x1
   \   000007   12....       LCALL   ?ALLOC_XSTACK8
   \   00000A   EA           MOV     A,R2
   \   00000B   FE           MOV     R6,A
   \   00000C   EB           MOV     A,R3
   \   00000D   FF           MOV     R7,A
   1621            uint8 *deviceAddr;
   1622            uint8 capInfo;
   1623            uint8 stat;
   1624          
   1625            // Parse the message
   1626            deviceAddr = inMsg->asdu;
   1627            capInfo = inMsg->asdu[Z_EXTADDR_LEN];
   1628          
   1629            stat = (byte) NLME_DirectJoinRequest( deviceAddr, capInfo );
   \   00000E   EE           MOV     A,R6
   \   00000F   2413         ADD     A,#0x13
   \   000011   F582         MOV     DPL,A
   \   000013   EF           MOV     A,R7
   \   000014   3400         ADDC    A,#0x0
   \   000016   F583         MOV     DPH,A
   \   000018   E0           MOVX    A,@DPTR
   \   000019   FA           MOV     R2,A
   \   00001A   A3           INC     DPTR
   \   00001B   E0           MOVX    A,@DPTR
   \   00001C   FB           MOV     R3,A
   \   00001D                ; Setup parameters for call to function NLME_DirectJoinRequest
   \   00001D   8A82         MOV     DPL,R2
   \   00001F   8B83         MOV     DPH,R3
   \   000021   A3           INC     DPTR
   \   000022   A3           INC     DPTR
   \   000023   A3           INC     DPTR
   \   000024   A3           INC     DPTR
   \   000025   A3           INC     DPTR
   \   000026   A3           INC     DPTR
   \   000027   A3           INC     DPTR
   \   000028   A3           INC     DPTR
   \   000029   E0           MOVX    A,@DPTR
   \   00002A   F9           MOV     R1,A
   \   00002B   12....       LCALL   ??NLME_DirectJoinRequest?relay
   \   00002E   E9           MOV     A,R1
   \   00002F   85..82       MOV     DPL,?XSP + 0
   \   000032   85..83       MOV     DPH,?XSP + 1
   \   000035   F0           MOVX    @DPTR,A
   1630          
   1631            ZDP_MgmtDirectJoinRsp( inMsg->TransSeq, &(inMsg->srcAddr), stat, false );
   \   000036                ; Setup parameters for call to function ZDP_SendData
   \   000036   75..00       MOV     ?V0 + 0,#0x0
   \   000039   78..         MOV     R0,#?V0 + 0
   \   00003B   12....       LCALL   ?PUSH_XSTACK_I_ONE
   \   00003E   7401         MOV     A,#0x1
   \   000040   12....       LCALL   ?XSTACK_DISP0_8
   \   000043   8582..       MOV     ?V0 + 0,DPL
   \   000046   8583..       MOV     ?V0 + 1,DPH
   \   000049   78..         MOV     R0,#?V0 + 0
   \   00004B   12....       LCALL   ?PUSH_XSTACK_I_TWO
   \   00004E   75..35       MOV     ?V0 + 0,#0x35
   \   000051   75..80       MOV     ?V0 + 1,#-0x80
   \   000054   78..         MOV     R0,#?V0 + 0
   \   000056   12....       LCALL   ?PUSH_XSTACK_I_TWO
   \   000059   7901         MOV     R1,#0x1
   \   00005B   EE           MOV     A,R6
   \   00005C   2402         ADD     A,#0x2
   \   00005E   FC           MOV     R4,A
   \   00005F   EF           MOV     A,R7
   \   000060   3400         ADDC    A,#0x0
   \   000062   FD           MOV     R5,A
   \   000063   EE           MOV     A,R6
   \   000064   240F         ADD     A,#0xf
   \   000066   FA           MOV     R2,A
   \   000067   EF           MOV     A,R7
   \   000068   3400         ADDC    A,#0x0
   \   00006A   FB           MOV     R3,A
   \   00006B   12....       LCALL   ??ZDP_SendData?relay
   \   00006E   7405         MOV     A,#0x5
   \   000070   12....       LCALL   ?DEALLOC_XSTACK8
   1632          }
   \   000073                REQUIRE ?Subroutine10
   \   000073                ; // Fall through to label ?Subroutine10

   \                                 In  segment BANKED_CODE, align 1, keep-with-next
   \                     ?Subroutine10:
   \   000000   7401         MOV     A,#0x1
   \   000002   02....       LJMP    ??Subroutine11_0 & 0xFFFF
   1633          
   1634          /*********************************************************************
   1635           * @fn          ZDO_ProcessMgmtLeaveReq
   1636           *
   1637           * @brief       This function processes a Management Leave Request
   1638           *              and generates the response.
   1639           *
   1640           * @param       inMsg - incoming message (request)
   1641           *
   1642           * @return      none
   1643           */

   \                                 In  segment BANKED_CODE, align 1, keep-with-next
   1644          void ZDO_ProcessMgmtLeaveReq( zdoIncomingMsg_t *inMsg )
   \                     ZDO_ProcessMgmtLeaveReq:
   1645          {
   \   000000   74F4         MOV     A,#-0xc
   \   000002   12....       LCALL   ?BANKED_ENTER_XDATA
   \   000005                ; Saved register size: 12
   \   000005                ; Auto size: 6
   \   000005   74FA         MOV     A,#-0x6
   \   000007   12....       LCALL   ?ALLOC_XSTACK8
   \   00000A   8A..         MOV     ?V0 + 0,R2
   \   00000C   8B..         MOV     ?V0 + 1,R3
   1646            NLME_LeaveReq_t req;
   1647            ZStatus_t       status;
   1648            uint8           option;
   1649            uint8 *msg = inMsg->asdu;
   \   00000E   EA           MOV     A,R2
   \   00000F   2413         ADD     A,#0x13
   \   000011   F582         MOV     DPL,A
   \   000013   EB           MOV     A,R3
   \   000014   3400         ADDC    A,#0x0
   \   000016   F583         MOV     DPH,A
   \   000018   E0           MOVX    A,@DPTR
   \   000019   FE           MOV     R6,A
   \   00001A   A3           INC     DPTR
   \   00001B   E0           MOVX    A,@DPTR
   \   00001C   FF           MOV     R7,A
   1650          
   1651            if ( ( AddrMgrExtAddrValid( msg ) == FALSE                 ) ||
   1652                 ( osal_ExtAddrEqual( msg, NLME_GetExtAddr() ) == TRUE )    )
   \   00001D                ; Setup parameters for call to function AddrMgrExtAddrValid
   \   00001D   EE           MOV     A,R6
   \   00001E   FA           MOV     R2,A
   \   00001F   EF           MOV     A,R7
   \   000020   FB           MOV     R3,A
   \   000021   12....       LCALL   ??AddrMgrExtAddrValid?relay
   \   000024   E9           MOV     A,R1
   \   000025   6013         JZ      ??ZDO_ProcessMgmtLeaveReq_0
   \   000027                ; Setup parameters for call to function sAddrExtCmp
   \   000027                ; Setup parameters for call to function NLME_GetExtAddr
   \   000027   12....       LCALL   ??NLME_GetExtAddr?relay
   \   00002A   EA           MOV     A,R2
   \   00002B   FC           MOV     R4,A
   \   00002C   EB           MOV     A,R3
   \   00002D   FD           MOV     R5,A
   \   00002E   EE           MOV     A,R6
   \   00002F   FA           MOV     R2,A
   \   000030   EF           MOV     A,R7
   \   000031   FB           MOV     R3,A
   \   000032   12....       LCALL   ??sAddrExtCmp?relay
   \   000035   E9           MOV     A,R1
   \   000036   6401         XRL     A,#0x1
   \   000038   700A         JNZ     ??ZDO_ProcessMgmtLeaveReq_1
   1653            {
   1654              // Remove this device
   1655              req.extAddr = NULL;
   \                     ??ZDO_ProcessMgmtLeaveReq_0:
   \   00003A   7401         MOV     A,#0x1
   \   00003C   12....       LCALL   ?XSTACK_DISP0_8
   \   00003F   E4           CLR     A
   \   000040   F0           MOVX    @DPTR,A
   \   000041   A3           INC     DPTR
   \   000042   8009         SJMP    ??ZDO_ProcessMgmtLeaveReq_2
   1656            }
   1657            else
   1658            {
   1659              // Remove child device
   1660              req.extAddr = msg;
   \                     ??ZDO_ProcessMgmtLeaveReq_1:
   \   000044   7401         MOV     A,#0x1
   \   000046   12....       LCALL   ?XSTACK_DISP0_8
   \   000049   EE           MOV     A,R6
   \   00004A   F0           MOVX    @DPTR,A
   \   00004B   A3           INC     DPTR
   \   00004C   EF           MOV     A,R7
   \                     ??ZDO_ProcessMgmtLeaveReq_2:
   \   00004D   F0           MOVX    @DPTR,A
   1661            }
   1662          
   1663            option = msg[Z_EXTADDR_LEN];
   \   00004E   8E82         MOV     DPL,R6
   \   000050   8F83         MOV     DPH,R7
   \   000052   A3           INC     DPTR
   \   000053   A3           INC     DPTR
   \   000054   A3           INC     DPTR
   \   000055   A3           INC     DPTR
   \   000056   A3           INC     DPTR
   \   000057   A3           INC     DPTR
   \   000058   A3           INC     DPTR
   \   000059   A3           INC     DPTR
   \   00005A   E0           MOVX    A,@DPTR
   \   00005B   F8           MOV     R0,A
   1664            if ( option & ZDP_MGMT_LEAVE_REQ_RC )
   \   00005C   A2E6         MOV     C,0xE0 /* A   */.6
   \   00005E   5008         JNC     ??ZDO_ProcessMgmtLeaveReq_3
   1665            {
   1666              req.removeChildren = TRUE;
   \   000060   7403         MOV     A,#0x3
   \   000062   12....       LCALL   ?XSTACK_DISP0_8
   \   000065   7401         MOV     A,#0x1
   \   000067   F0           MOVX    @DPTR,A
   1667            }
   1668          
   1669            if ( option & ZDP_MGMT_LEAVE_REQ_REJOIN )
   \                     ??ZDO_ProcessMgmtLeaveReq_3:
   \   000068   E8           MOV     A,R0
   \   000069   A2E7         MOV     C,0xE0 /* A   */.7
   \   00006B   5008         JNC     ??ZDO_ProcessMgmtLeaveReq_4
   1670            {
   1671               req.rejoin = TRUE;
   \   00006D   7404         MOV     A,#0x4
   \   00006F   12....       LCALL   ?XSTACK_DISP0_8
   \   000072   7401         MOV     A,#0x1
   \   000074   F0           MOVX    @DPTR,A
   1672            }
   1673          
   1674            req.silent = FALSE;
   \                     ??ZDO_ProcessMgmtLeaveReq_4:
   \   000075   7405         MOV     A,#0x5
   \   000077   12....       LCALL   ?XSTACK_DISP0_8
   \   00007A   E4           CLR     A
   \   00007B   F0           MOVX    @DPTR,A
   1675          
   1676            status = NLME_LeaveReq( &req );
   \   00007C                ; Setup parameters for call to function NLME_LeaveReq
   \   00007C   04           INC     A
   \   00007D   12....       LCALL   ?XSTACK_DISP0_8
   \   000080   AA82         MOV     R2,DPL
   \   000082   AB83         MOV     R3,DPH
   \   000084   12....       LCALL   ??NLME_LeaveReq?relay
   \   000087   E9           MOV     A,R1
   \   000088   85..82       MOV     DPL,?XSP + 0
   \   00008B   85..83       MOV     DPH,?XSP + 1
   \   00008E   F0           MOVX    @DPTR,A
   1677          
   1678            ZDP_MgmtLeaveRsp( inMsg->TransSeq, &(inMsg->srcAddr), status, FALSE );
   \   00008F                ; Setup parameters for call to function ZDP_SendData
   \   00008F   75..00       MOV     ?V0 + 2,#0x0
   \   000092   78..         MOV     R0,#?V0 + 2
   \   000094   12....       LCALL   ?PUSH_XSTACK_I_ONE
   \   000097   7401         MOV     A,#0x1
   \   000099   12....       LCALL   ?XSTACK_DISP0_8
   \   00009C   8582..       MOV     ?V0 + 2,DPL
   \   00009F   8583..       MOV     ?V0 + 3,DPH
   \   0000A2   78..         MOV     R0,#?V0 + 2
   \   0000A4   12....       LCALL   ?PUSH_XSTACK_I_TWO
   \   0000A7   75..34       MOV     ?V0 + 2,#0x34
   \   0000AA   75..80       MOV     ?V0 + 3,#-0x80
   \   0000AD   78..         MOV     R0,#?V0 + 2
   \   0000AF   12....       LCALL   ?PUSH_XSTACK_I_TWO
   \   0000B2   7901         MOV     R1,#0x1
   \   0000B4   E5..         MOV     A,?V0 + 0
   \   0000B6   2402         ADD     A,#0x2
   \   0000B8   FC           MOV     R4,A
   \   0000B9   E5..         MOV     A,?V0 + 1
   \   0000BB   3400         ADDC    A,#0x0
   \   0000BD   FD           MOV     R5,A
   \   0000BE   E5..         MOV     A,?V0 + 0
   \   0000C0   240F         ADD     A,#0xf
   \   0000C2   FA           MOV     R2,A
   \   0000C3   E5..         MOV     A,?V0 + 1
   \   0000C5   3400         ADDC    A,#0x0
   \   0000C7   FB           MOV     R3,A
   \   0000C8   12....       LCALL   ??ZDP_SendData?relay
   \   0000CB   7405         MOV     A,#0x5
   \   0000CD   12....       LCALL   ?DEALLOC_XSTACK8
   1679          }
   \   0000D0   7406         MOV     A,#0x6
   \   0000D2                REQUIRE ?Subroutine2
   \   0000D2                ; // Fall through to label ?Subroutine2

   \                                 In  segment BANKED_CODE, align 1, keep-with-next
   \                     ?Subroutine2:
   \   000000   12....       LCALL   ?DEALLOC_XSTACK8
   \   000003                REQUIRE ??Subroutine15_0
   \   000003                ; // Fall through to label ??Subroutine15_0
   1680          
   1681          
   1682          /*********************************************************************
   1683           * @fn          ZDO_ProcessMgmtPermitJoinReq
   1684           *
   1685           * @brief       This function processes a Management Permit Join Request
   1686           *              and generates the response.
   1687           *
   1688           * @param       inMsg - incoming message (request)
   1689           *
   1690           * @return      none
   1691           */

   \                                 In  segment BANKED_CODE, align 1, keep-with-next
   1692          void ZDO_ProcessMgmtPermitJoinReq( zdoIncomingMsg_t *inMsg )
   \                     ZDO_ProcessMgmtPermitJoinReq:
   1693          {
   \   000000   74F6         MOV     A,#-0xa
   \   000002   12....       LCALL   ?BANKED_ENTER_XDATA
   \   000005                ; Saved register size: 10
   \   000005                ; Auto size: 1
   \   000005   74FF         MOV     A,#-0x1
   \   000007   12....       LCALL   ?ALLOC_XSTACK8
   \   00000A   EA           MOV     A,R2
   \   00000B   FE           MOV     R6,A
   \   00000C   EB           MOV     A,R3
   \   00000D   FF           MOV     R7,A
   1694            uint8 stat;
   1695            uint8 duration;
   1696            uint8 tcsig;
   1697          
   1698            duration = inMsg->asdu[ZDP_MGMT_PERMIT_JOIN_REQ_DURATION];
   1699            tcsig    = inMsg->asdu[ZDP_MGMT_PERMIT_JOIN_REQ_TC_SIG];
   1700          
   1701            // Set the network layer permit join duration
   1702            stat = (byte) NLME_PermitJoiningRequest( duration );
   \   00000E                ; Setup parameters for call to function NLME_PermitJoiningRequest
   \   00000E   EE           MOV     A,R6
   \   00000F   2413         ADD     A,#0x13
   \   000011   F582         MOV     DPL,A
   \   000013   EF           MOV     A,R7
   \   000014   3400         ADDC    A,#0x0
   \   000016   F583         MOV     DPH,A
   \   000018   E0           MOVX    A,@DPTR
   \   000019   F8           MOV     R0,A
   \   00001A   A3           INC     DPTR
   \   00001B   E0           MOVX    A,@DPTR
   \   00001C   F583         MOV     DPH,A
   \   00001E   8882         MOV     DPL,R0
   \   000020   E0           MOVX    A,@DPTR
   \   000021   F9           MOV     R1,A
   \   000022   12....       LCALL   ??NLME_PermitJoiningRequest?relay
   \   000025   E9           MOV     A,R1
   \   000026   85..82       MOV     DPL,?XSP + 0
   \   000029   85..83       MOV     DPH,?XSP + 1
   \   00002C   F0           MOVX    @DPTR,A
   1703          
   1704            // Handle the Trust Center Significance
   1705            if ( ZG_SECURE_ENABLED && ZG_BUILD_COORDINATOR_TYPE && ZG_DEVICE_COORDINATOR_TYPE )
   1706            {
   1707              if ( tcsig == TRUE )
   1708              {
   1709                ZDSecMgrPermitJoining( duration );
   1710              }
   1711            }
   1712          
   1713            // Send a response if unicast
   1714            if (inMsg->srcAddr.addr.shortAddr != NWK_BROADCAST_SHORTADDR)
   \   00002D   EE           MOV     A,R6
   \   00002E   2402         ADD     A,#0x2
   \   000030   FC           MOV     R4,A
   \   000031   EF           MOV     A,R7
   \   000032   3400         ADDC    A,#0x0
   \   000034   FD           MOV     R5,A
   \   000035   8C82         MOV     DPL,R4
   \   000037   8D83         MOV     DPH,R5
   \   000039   E0           MOVX    A,@DPTR
   \   00003A   F4           CPL     A
   \   00003B   7003         JNZ     ??ZDO_ProcessMgmtPermitJoinReq_0
   \   00003D   A3           INC     DPTR
   \   00003E   E0           MOVX    A,@DPTR
   \   00003F   F4           CPL     A
   \                     ??ZDO_ProcessMgmtPermitJoinReq_0:
   \   000040   6035         JZ      ??ZDO_ProcessMgmtPermitJoinReq_1
   1715            {
   1716              ZDP_MgmtPermitJoinRsp( inMsg->TransSeq, &(inMsg->srcAddr), stat, false );
   \   000042                ; Setup parameters for call to function ZDP_SendData
   \   000042   75..00       MOV     ?V0 + 0,#0x0
   \   000045   78..         MOV     R0,#?V0 + 0
   \   000047   12....       LCALL   ?PUSH_XSTACK_I_ONE
   \   00004A   7401         MOV     A,#0x1
   \   00004C   12....       LCALL   ?XSTACK_DISP0_8
   \   00004F   8582..       MOV     ?V0 + 0,DPL
   \   000052   8583..       MOV     ?V0 + 1,DPH
   \   000055   78..         MOV     R0,#?V0 + 0
   \   000057   12....       LCALL   ?PUSH_XSTACK_I_TWO
   \   00005A   75..36       MOV     ?V0 + 0,#0x36
   \   00005D   75..80       MOV     ?V0 + 1,#-0x80
   \   000060   78..         MOV     R0,#?V0 + 0
   \   000062   12....       LCALL   ?PUSH_XSTACK_I_TWO
   \   000065   7901         MOV     R1,#0x1
   \   000067   EE           MOV     A,R6
   \   000068   240F         ADD     A,#0xf
   \   00006A   FA           MOV     R2,A
   \   00006B   EF           MOV     A,R7
   \   00006C   3400         ADDC    A,#0x0
   \   00006E   FB           MOV     R3,A
   \   00006F   12....       LCALL   ??ZDP_SendData?relay
   \   000072   7405         MOV     A,#0x5
   \   000074   12....       LCALL   ?DEALLOC_XSTACK8
   1717            }
   1718          }
   \                     ??ZDO_ProcessMgmtPermitJoinReq_1:
   \   000077   02....       LJMP    ?Subroutine10 & 0xFFFF
   1719          
   1720          /*
   1721           * This function stub allows the next higher layer to be notified of
   1722           * a permit joining timeout.
   1723           */
   1724          /*********************************************************************
   1725           * @fn          ZDO_ProcessMgmtPermitJoinTimeout
   1726           *
   1727           * @brief       This function stub allows the next higher layer to be
   1728           *              notified of a permit joining timeout. Currently, this
   1729           *              directly bypasses the APS layer.
   1730           *
   1731           * @param       none
   1732           *
   1733           * @return      none
   1734           */

   \                                 In  segment BANKED_CODE, align 1, keep-with-next
   1735          void ZDO_ProcessMgmtPermitJoinTimeout( void )
   \                     NLME_PermitJoiningTimeout:
   1736          {
   \   000000                ; Saved register size: 0
   \   000000                ; Auto size: 0
   1737            #if defined( ZDO_MGMT_PERMIT_JOIN_RESPONSE )
   1738            // Currently, only the ZDSecMgr needs to be notified
   1739            if ( ZG_SECURE_ENABLED && ZG_BUILD_COORDINATOR_TYPE && ZG_DEVICE_COORDINATOR_TYPE )
   1740            {
   1741              ZDSecMgrPermitJoiningTimeout();
   1742            }
   1743            #endif
   1744          }
   \   000000   02....       LJMP    ?BRET
   1745          
   1746          /*********************************************************************
   1747           * @fn          ZDO_ProcessUserDescReq
   1748           *
   1749           * @brief       This function finishes the processing of the User
   1750           *              Descriptor Request and generates the response.
   1751           *
   1752           * @param       inMsg - incoming message (request)
   1753           *
   1754           * @return      none
   1755           */

   \                                 In  segment BANKED_CODE, align 1, keep-with-next
   1756          void ZDO_ProcessUserDescReq( zdoIncomingMsg_t *inMsg )
   \                     ZDO_ProcessUserDescReq:
   1757          {
   \   000000   74F4         MOV     A,#-0xc
   \   000002   12....       LCALL   ?BANKED_ENTER_XDATA
   \   000005                ; Saved register size: 12
   \   000005                ; Auto size: 17
   \   000005   74EF         MOV     A,#-0x11
   \   000007   12....       LCALL   ?ALLOC_XSTACK8
   \   00000A   EA           MOV     A,R2
   \   00000B   FE           MOV     R6,A
   \   00000C   EB           MOV     A,R3
   \   00000D   FF           MOV     R7,A
   1758            uint16 aoi = BUILD_UINT16( inMsg->asdu[0], inMsg->asdu[1] );
   \   00000E   EE           MOV     A,R6
   \   00000F   2413         ADD     A,#0x13
   \   000011   F582         MOV     DPL,A
   \   000013   EF           MOV     A,R7
   \   000014   3400         ADDC    A,#0x0
   \   000016   F583         MOV     DPH,A
   \   000018   E0           MOVX    A,@DPTR
   \   000019   F8           MOV     R0,A
   \   00001A   A3           INC     DPTR
   \   00001B   E0           MOVX    A,@DPTR
   \   00001C   F9           MOV     R1,A
   \   00001D   8882         MOV     DPL,R0
   \   00001F   8983         MOV     DPH,R1
   \   000021   E0           MOVX    A,@DPTR
   \   000022   FA           MOV     R2,A
   \   000023   A3           INC     DPTR
   \   000024   E0           MOVX    A,@DPTR
   \   000025   F9           MOV     R1,A
   \   000026   EA           MOV     A,R2
   \   000027   2400         ADD     A,#0x0
   \   000029   F5..         MOV     ?V0 + 0,A
   \   00002B   E4           CLR     A
   \   00002C   39           ADDC    A,R1
   \   00002D   F5..         MOV     ?V0 + 1,A
   1759            UserDescriptorFormat_t userDesc;
   1760          
   1761            if ( (aoi == ZDAppNwkAddr.addr.shortAddr) && (ZSUCCESS == osal_nv_read(
   1762                       ZCD_NV_USERDESC, 0, sizeof(UserDescriptorFormat_t), &userDesc )) )
   \   00002F   90....       MOV     DPTR,#ZDAppNwkAddr
   \   000032   E0           MOVX    A,@DPTR
   \   000033   65..         XRL     A,?V0 + 0
   \   000035   7004         JNZ     ??ZDO_ProcessUserDescReq_0
   \   000037   A3           INC     DPTR
   \   000038   E0           MOVX    A,@DPTR
   \   000039   65..         XRL     A,?V0 + 1
   \                     ??ZDO_ProcessUserDescReq_0:
   \   00003B   7069         JNZ     ??ZDO_ProcessUserDescReq_1
   \   00003D                ; Setup parameters for call to function osal_nv_read
   \   00003D   85..82       MOV     DPL,?XSP + 0
   \   000040   85..83       MOV     DPH,?XSP + 1
   \   000043   8582..       MOV     ?V0 + 2,DPL
   \   000046   8583..       MOV     ?V0 + 3,DPH
   \   000049   78..         MOV     R0,#?V0 + 2
   \   00004B   12....       LCALL   ?PUSH_XSTACK_I_TWO
   \   00004E   75..11       MOV     ?V0 + 2,#0x11
   \   000051   75..00       MOV     ?V0 + 3,#0x0
   \   000054   78..         MOV     R0,#?V0 + 2
   \   000056   12....       LCALL   ?PUSH_XSTACK_I_TWO
   \   000059   7C00         MOV     R4,#0x0
   \   00005B   7D00         MOV     R5,#0x0
   \   00005D   7A81         MOV     R2,#-0x7f
   \   00005F   7B00         MOV     R3,#0x0
   \   000061   12....       LCALL   ??osal_nv_read?relay
   \   000064   7404         MOV     A,#0x4
   \   000066   12....       LCALL   ?DEALLOC_XSTACK8
   \   000069   E9           MOV     A,R1
   \   00006A   703A         JNZ     ??ZDO_ProcessUserDescReq_1
   1763            {
   1764              ZDP_UserDescRsp( inMsg->TransSeq, &(inMsg->srcAddr), aoi, &userDesc, false );
   \   00006C                ; Setup parameters for call to function ZDP_UserDescRsp
   \   00006C   75..00       MOV     ?V0 + 2,#0x0
   \   00006F   78..         MOV     R0,#?V0 + 2
   \   000071   12....       LCALL   ?PUSH_XSTACK_I_ONE
   \   000074   7401         MOV     A,#0x1
   \   000076   12....       LCALL   ?XSTACK_DISP0_8
   \   000079   8582..       MOV     ?V0 + 2,DPL
   \   00007C   8583..       MOV     ?V0 + 3,DPH
   \   00007F   78..         MOV     R0,#?V0 + 2
   \   000081   12....       LCALL   ?PUSH_XSTACK_I_TWO
   \   000084   AC..         MOV     R4,?V0 + 0
   \   000086   AD..         MOV     R5,?V0 + 1
   \   000088   EE           MOV     A,R6
   \   000089   2402         ADD     A,#0x2
   \   00008B   FA           MOV     R2,A
   \   00008C   EF           MOV     A,R7
   \   00008D   3400         ADDC    A,#0x0
   \   00008F   FB           MOV     R3,A
   \   000090   EE           MOV     A,R6
   \   000091   240F         ADD     A,#0xf
   \   000093   F582         MOV     DPL,A
   \   000095   EF           MOV     A,R7
   \   000096   3400         ADDC    A,#0x0
   \   000098   F583         MOV     DPH,A
   \   00009A   E0           MOVX    A,@DPTR
   \   00009B   F9           MOV     R1,A
   \   00009C   12....       LCALL   ??ZDP_UserDescRsp?relay
   \   00009F   7403         MOV     A,#0x3
   \   0000A1   12....       LCALL   ?DEALLOC_XSTACK8
   \   0000A4   803A         SJMP    ??ZDO_ProcessUserDescReq_2
   1765            }
   1766            else
   1767            {
   1768              ZDP_GenericRsp(inMsg->TransSeq, &(inMsg->srcAddr),
   1769                     ZDP_NOT_SUPPORTED, aoi, User_Desc_rsp, inMsg->SecurityUse );
   \                     ??ZDO_ProcessUserDescReq_1:
   \   0000A6                ; Setup parameters for call to function ZDP_GenericRsp
   \   0000A6   75..11       MOV     ?V0 + 2,#0x11
   \   0000A9   75..80       MOV     ?V0 + 3,#-0x80
   \   0000AC   78..         MOV     R0,#?V0 + 2
   \   0000AE   12....       LCALL   ?PUSH_XSTACK_I_TWO
   \   0000B1   78..         MOV     R0,#?V0 + 0
   \   0000B3   12....       LCALL   ?PUSH_XSTACK_I_TWO
   \   0000B6   EE           MOV     A,R6
   \   0000B7   240E         ADD     A,#0xe
   \   0000B9   F582         MOV     DPL,A
   \   0000BB   EF           MOV     A,R7
   \   0000BC   3400         ADDC    A,#0x0
   \   0000BE   F583         MOV     DPH,A
   \   0000C0   E0           MOVX    A,@DPTR
   \   0000C1   FD           MOV     R5,A
   \   0000C2   7C84         MOV     R4,#-0x7c
   \   0000C4   EE           MOV     A,R6
   \   0000C5   2402         ADD     A,#0x2
   \   0000C7   FA           MOV     R2,A
   \   0000C8   EF           MOV     A,R7
   \   0000C9   3400         ADDC    A,#0x0
   \   0000CB   FB           MOV     R3,A
   \   0000CC   EE           MOV     A,R6
   \   0000CD   240F         ADD     A,#0xf
   \   0000CF   F582         MOV     DPL,A
   \   0000D1   EF           MOV     A,R7
   \   0000D2   3400         ADDC    A,#0x0
   \   0000D4   F583         MOV     DPH,A
   \   0000D6   E0           MOVX    A,@DPTR
   \   0000D7   F9           MOV     R1,A
   \   0000D8   12....       LCALL   ??ZDP_GenericRsp?relay
   \   0000DB   7404         MOV     A,#0x4
   \   0000DD   12....       LCALL   ?DEALLOC_XSTACK8
   1770            }
   1771          }
   \                     ??ZDO_ProcessUserDescReq_2:
   \   0000E0   7411         MOV     A,#0x11
   \   0000E2   02....       LJMP    ?Subroutine2 & 0xFFFF
   1772          
   1773          /*********************************************************************
   1774           * @fn          ZDO_ProcessUserDescSet
   1775           *
   1776           * @brief       This function finishes the processing of the User
   1777           *              Descriptor Set and generates the response.
   1778           *
   1779           * @param       inMsg - incoming message (request)
   1780           *
   1781           * @return      none
   1782           */

   \                                 In  segment BANKED_CODE, align 1, keep-with-next
   1783          void ZDO_ProcessUserDescSet( zdoIncomingMsg_t *inMsg )
   \                     ZDO_ProcessUserDescSet:
   1784          {
   \   000000   74F1         MOV     A,#-0xf
   \   000002   12....       LCALL   ?BANKED_ENTER_XDATA
   \   000005                ; Saved register size: 15
   \   000005                ; Auto size: 21
   \   000005   74EB         MOV     A,#-0x15
   \   000007   12....       LCALL   ?ALLOC_XSTACK8
   \   00000A   8A..         MOV     ?V0 + 2,R2
   \   00000C   8B..         MOV     ?V0 + 3,R3
   1785            uint8 *msg;
   1786            uint16 aoi;
   1787            UserDescriptorFormat_t userDesc;
   1788            uint8 outMsg[3];
   1789            uint8 status;
   1790          
   1791            msg = inMsg->asdu;
   \   00000E   EA           MOV     A,R2
   \   00000F   2413         ADD     A,#0x13
   \   000011   F582         MOV     DPL,A
   \   000013   EB           MOV     A,R3
   \   000014   3400         ADDC    A,#0x0
   \   000016   F583         MOV     DPH,A
   \   000018   E0           MOVX    A,@DPTR
   \   000019   F8           MOV     R0,A
   \   00001A   A3           INC     DPTR
   \   00001B   E0           MOVX    A,@DPTR
   \   00001C   F9           MOV     R1,A
   1792            aoi = BUILD_UINT16( msg[0], msg[1] );
   \   00001D   8882         MOV     DPL,R0
   \   00001F   8983         MOV     DPH,R1
   \   000021   E0           MOVX    A,@DPTR
   \   000022   FC           MOV     R4,A
   \   000023   A3           INC     DPTR
   \   000024   E0           MOVX    A,@DPTR
   \   000025   FB           MOV     R3,A
   \   000026   EC           MOV     A,R4
   \   000027   2400         ADD     A,#0x0
   \   000029   FE           MOV     R6,A
   \   00002A   E4           CLR     A
   \   00002B   3B           ADDC    A,R3
   \   00002C   FF           MOV     R7,A
   1793          
   1794            if ( aoi == ZDAppNwkAddr.addr.shortAddr )
   \   00002D   90....       MOV     DPTR,#ZDAppNwkAddr
   \   000030   E0           MOVX    A,@DPTR
   \   000031   6E           XRL     A,R6
   \   000032   7003         JNZ     ??ZDO_ProcessUserDescSet_0
   \   000034   A3           INC     DPTR
   \   000035   E0           MOVX    A,@DPTR
   \   000036   6F           XRL     A,R7
   \                     ??ZDO_ProcessUserDescSet_0:
   \   000037   6003         JZ      $+5
   \   000039   02....       LJMP    ??ZDO_ProcessUserDescSet_1 & 0xFFFF
   1795            {
   1796              userDesc.len = (msg[2] < AF_MAX_USER_DESCRIPTOR_LEN) ? msg[2] : AF_MAX_USER_DESCRIPTOR_LEN;
   \   00003C   8882         MOV     DPL,R0
   \   00003E   8983         MOV     DPH,R1
   \   000040   A3           INC     DPTR
   \   000041   A3           INC     DPTR
   \   000042   E0           MOVX    A,@DPTR
   \   000043   FA           MOV     R2,A
   \   000044   9410         SUBB    A,#0x10
   \   000046   5004         JNC     ??ZDO_ProcessUserDescSet_2
   \   000048   8A..         MOV     ?V0 + 0,R2
   \   00004A   8003         SJMP    ??ZDO_ProcessUserDescSet_3
   \                     ??ZDO_ProcessUserDescSet_2:
   \   00004C   75..10       MOV     ?V0 + 0,#0x10
   \                     ??ZDO_ProcessUserDescSet_3:
   \   00004F   7404         MOV     A,#0x4
   \   000051   12....       LCALL   ?XSTACK_DISP0_8
   \   000054   E5..         MOV     A,?V0 + 0
   \   000056   F0           MOVX    @DPTR,A
   1797              msg ++;  // increment one for the length field
   1798          
   1799              osal_memcpy( userDesc.desc, &msg[2], userDesc.len );
   \   000057                ; Setup parameters for call to function osal_memcpy
   \   000057   8882         MOV     DPL,R0
   \   000059   8983         MOV     DPH,R1
   \   00005B   A3           INC     DPTR
   \   00005C   A3           INC     DPTR
   \   00005D   A3           INC     DPTR
   \   00005E   A982         MOV     R1,DPL
   \   000060   AA83         MOV     R2,DPH
   \   000062   89..         MOV     ?V0 + 4,R1
   \   000064   8A..         MOV     ?V0 + 5,R2
   \   000066   75..00       MOV     ?V0 + 6,#0x0
   \   000069   78..         MOV     R0,#?V0 + 4
   \   00006B   12....       LCALL   ?PUSH_XSTACK_I_THREE
   \   00006E   7407         MOV     A,#0x7
   \   000070   12....       LCALL   ?XSTACK_DISP0_8
   \   000073   E0           MOVX    A,@DPTR
   \   000074   FC           MOV     R4,A
   \   000075   7D00         MOV     R5,#0x0
   \   000077   7408         MOV     A,#0x8
   \   000079   12....       LCALL   ?XSTACK_DISP0_8
   \   00007C   AA82         MOV     R2,DPL
   \   00007E   AB83         MOV     R3,DPH
   \   000080   12....       LCALL   ??osal_memcpy?relay
   \   000083   7403         MOV     A,#0x3
   \   000085   12....       LCALL   ?DEALLOC_XSTACK8
   1800              osal_nv_write( ZCD_NV_USERDESC, 0, sizeof(UserDescriptorFormat_t), &userDesc );
   \   000088                ; Setup parameters for call to function osal_nv_write
   \   000088   7404         MOV     A,#0x4
   \   00008A   12....       LCALL   ?XSTACK_DISP0_8
   \   00008D   8582..       MOV     ?V0 + 4,DPL
   \   000090   8583..       MOV     ?V0 + 5,DPH
   \   000093   78..         MOV     R0,#?V0 + 4
   \   000095   12....       LCALL   ?PUSH_XSTACK_I_TWO
   \   000098   75..11       MOV     ?V0 + 4,#0x11
   \   00009B   75..00       MOV     ?V0 + 5,#0x0
   \   00009E   78..         MOV     R0,#?V0 + 4
   \   0000A0   12....       LCALL   ?PUSH_XSTACK_I_TWO
   \   0000A3   7C00         MOV     R4,#0x0
   \   0000A5   7D00         MOV     R5,#0x0
   \   0000A7   7A81         MOV     R2,#-0x7f
   \   0000A9   7B00         MOV     R3,#0x0
   \   0000AB   12....       LCALL   ??osal_nv_write?relay
   \   0000AE   7404         MOV     A,#0x4
   \   0000B0   12....       LCALL   ?DEALLOC_XSTACK8
   1801              if ( userDesc.len != 0 )
   \   0000B3   7404         MOV     A,#0x4
   \   0000B5   12....       LCALL   ?XSTACK_DISP0_8
   \   0000B8   E0           MOVX    A,@DPTR
   \   0000B9   90....       MOV     DPTR,#ZDO_Config_Node_Descriptor
   \   0000BC   6005         JZ      ??ZDO_ProcessUserDescSet_4
   1802              {
   1803                ZDO_Config_Node_Descriptor.UserDescAvail = TRUE;
   \   0000BE   E0           MOVX    A,@DPTR
   \   0000BF   D2E4         SETB    0xE0 /* A   */.4
   \   0000C1   8003         SJMP    ??ZDO_ProcessUserDescSet_5
   1804              }
   1805              else
   1806              {
   1807                ZDO_Config_Node_Descriptor.UserDescAvail = FALSE;
   \                     ??ZDO_ProcessUserDescSet_4:
   \   0000C3   E0           MOVX    A,@DPTR
   \   0000C4   C2E4         CLR     0xE0 /* A   */.4
   \                     ??ZDO_ProcessUserDescSet_5:
   \   0000C6   F0           MOVX    @DPTR,A
   1808              }
   1809          
   1810              status = ZDP_SUCCESS;
   \   0000C7   85..82       MOV     DPL,?XSP + 0
   \   0000CA   85..83       MOV     DPH,?XSP + 1
   \   0000CD   E4           CLR     A
   \   0000CE   8008         SJMP    ??ZDO_ProcessUserDescSet_6
   1811            }
   1812            else
   1813            {
   1814              status =  ZDP_NOT_SUPPORTED;
   \                     ??ZDO_ProcessUserDescSet_1:
   \   0000D0   85..82       MOV     DPL,?XSP + 0
   \   0000D3   85..83       MOV     DPH,?XSP + 1
   \   0000D6   7484         MOV     A,#-0x7c
   \                     ??ZDO_ProcessUserDescSet_6:
   \   0000D8   F0           MOVX    @DPTR,A
   1815            }
   1816          
   1817            outMsg[0] = status;
   \   0000D9   E0           MOVX    A,@DPTR
   \   0000DA   C0E0         PUSH    A
   \   0000DC   7401         MOV     A,#0x1
   \   0000DE   12....       LCALL   ?XSTACK_DISP0_8
   \   0000E1   D0E0         POP     A
   \   0000E3   F0           MOVX    @DPTR,A
   1818            outMsg[1] = LO_UINT16( aoi );
   \   0000E4   7402         MOV     A,#0x2
   \   0000E6   12....       LCALL   ?XSTACK_DISP0_8
   \   0000E9   EE           MOV     A,R6
   \   0000EA   F0           MOVX    @DPTR,A
   1819            outMsg[2] = LO_UINT16( aoi );
   \   0000EB   7403         MOV     A,#0x3
   \   0000ED   12....       LCALL   ?XSTACK_DISP0_8
   \   0000F0   EE           MOV     A,R6
   \   0000F1   F0           MOVX    @DPTR,A
   1820          
   1821            ZDP_SendData( &(inMsg->TransSeq), &(inMsg->srcAddr), User_Desc_conf, 3, outMsg,
   1822                         inMsg->SecurityUse );
   \   0000F2                ; Setup parameters for call to function ZDP_SendData
   \   0000F2   E5..         MOV     A,?V0 + 2
   \   0000F4   240E         ADD     A,#0xe
   \   0000F6   F582         MOV     DPL,A
   \   0000F8   E5..         MOV     A,?V0 + 3
   \   0000FA   3400         ADDC    A,#0x0
   \   0000FC   F583         MOV     DPH,A
   \   0000FE   E0           MOVX    A,@DPTR
   \   0000FF   F5..         MOV     ?V0 + 1,A
   \   000101   78..         MOV     R0,#?V0 + 1
   \   000103   12....       LCALL   ?PUSH_XSTACK_I_ONE
   \   000106   7402         MOV     A,#0x2
   \   000108   12....       LCALL   ?XSTACK_DISP0_8
   \   00010B   8582..       MOV     ?V0 + 4,DPL
   \   00010E   8583..       MOV     ?V0 + 5,DPH
   \   000111   78..         MOV     R0,#?V0 + 4
   \   000113   12....       LCALL   ?PUSH_XSTACK_I_TWO
   \   000116   75..14       MOV     ?V0 + 4,#0x14
   \   000119   75..80       MOV     ?V0 + 5,#-0x80
   \   00011C   78..         MOV     R0,#?V0 + 4
   \   00011E   12....       LCALL   ?PUSH_XSTACK_I_TWO
   \   000121   7903         MOV     R1,#0x3
   \   000123   E5..         MOV     A,?V0 + 2
   \   000125   2402         ADD     A,#0x2
   \   000127   FC           MOV     R4,A
   \   000128   E5..         MOV     A,?V0 + 3
   \   00012A   3400         ADDC    A,#0x0
   \   00012C   FD           MOV     R5,A
   \   00012D   E5..         MOV     A,?V0 + 2
   \   00012F   240F         ADD     A,#0xf
   \   000131   FA           MOV     R2,A
   \   000132   E5..         MOV     A,?V0 + 3
   \   000134   3400         ADDC    A,#0x0
   \   000136   FB           MOV     R3,A
   \   000137   12....       LCALL   ??ZDP_SendData?relay
   \   00013A   7405         MOV     A,#0x5
   \   00013C   12....       LCALL   ?DEALLOC_XSTACK8
   1823          }
   \   00013F   7415         MOV     A,#0x15
   \   000141   12....       LCALL   ?DEALLOC_XSTACK8
   \   000144   7F07         MOV     R7,#0x7
   \   000146   02....       LJMP    ?BANKED_LEAVE_XDATA
   1824          
   1825          /*********************************************************************
   1826           * @fn          ZDO_ProcessDeviceAnnce
   1827           *
   1828           * @brief       This function processes a device annouce message.
   1829           *
   1830           * @param       inMsg - incoming message
   1831           *
   1832           * @return      none
   1833           */

   \                                 In  segment BANKED_CODE, align 1, keep-with-next
   1834          void ZDO_ProcessDeviceAnnce( zdoIncomingMsg_t *inMsg )
   \                     ZDO_ProcessDeviceAnnce:
   1835          {
   \   000000   74F6         MOV     A,#-0xa
   \   000002   12....       LCALL   ?BANKED_ENTER_XDATA
   \   000005                ; Saved register size: 10
   \   000005                ; Auto size: 32
   \   000005   74E0         MOV     A,#-0x20
   \   000007   12....       LCALL   ?ALLOC_XSTACK8
   \   00000A   EA           MOV     A,R2
   \   00000B   FE           MOV     R6,A
   \   00000C   EB           MOV     A,R3
   \   00000D   FF           MOV     R7,A
   1836            ZDO_DeviceAnnce_t Annce;
   1837            AddrMgrEntry_t addrEntry;
   1838            uint8 parentExt[Z_EXTADDR_LEN];
   1839          
   1840            // Parse incoming message
   1841            ZDO_ParseDeviceAnnce( inMsg, &Annce );
   \   00000E   EE           MOV     A,R6
   \   00000F   2413         ADD     A,#0x13
   \   000011   F582         MOV     DPL,A
   \   000013   EF           MOV     A,R7
   \   000014   3400         ADDC    A,#0x0
   \   000016   F583         MOV     DPH,A
   \   000018   E0           MOVX    A,@DPTR
   \   000019   F5..         MOV     ?V0 + 0,A
   \   00001B   A3           INC     DPTR
   \   00001C   E0           MOVX    A,@DPTR
   \   00001D   F5..         MOV     ?V0 + 1,A
   \   00001F   85..82       MOV     DPL,?V0 + 0
   \   000022   F583         MOV     DPH,A
   \   000024   E0           MOVX    A,@DPTR
   \   000025   FA           MOV     R2,A
   \   000026   A3           INC     DPTR
   \   000027   E0           MOVX    A,@DPTR
   \   000028   F9           MOV     R1,A
   \   000029   EA           MOV     A,R2
   \   00002A   85..82       MOV     DPL,?XSP + 0
   \   00002D   85..83       MOV     DPH,?XSP + 1
   \   000030   F0           MOVX    @DPTR,A
   \   000031   A3           INC     DPTR
   \   000032   E9           MOV     A,R1
   \   000033   F0           MOVX    @DPTR,A
   \   000034   E5..         MOV     A,?V0 + 0
   \   000036   2402         ADD     A,#0x2
   \   000038   F5..         MOV     ?V0 + 0,A
   \   00003A   E5..         MOV     A,?V0 + 1
   \   00003C   3400         ADDC    A,#0x0
   \   00003E   F5..         MOV     ?V0 + 1,A
   \   000040                ; Setup parameters for call to function sAddrExtCpy
   \   000040   AC..         MOV     R4,?V0 + 0
   \   000042   FD           MOV     R5,A
   \   000043   7402         MOV     A,#0x2
   \   000045   12....       LCALL   ?XSTACK_DISP0_8
   \   000048   AA82         MOV     R2,DPL
   \   00004A   AB83         MOV     R3,DPH
   \   00004C   12....       LCALL   ??sAddrExtCpy?relay
   \   00004F   85..82       MOV     DPL,?V0 + 0
   \   000052   85..83       MOV     DPH,?V0 + 1
   \   000055   A3           INC     DPTR
   \   000056   A3           INC     DPTR
   \   000057   A3           INC     DPTR
   \   000058   A3           INC     DPTR
   \   000059   A3           INC     DPTR
   \   00005A   A3           INC     DPTR
   \   00005B   A3           INC     DPTR
   \   00005C   A3           INC     DPTR
   \   00005D   E0           MOVX    A,@DPTR
   \   00005E   C0E0         PUSH    A
   \   000060   740A         MOV     A,#0xa
   \   000062   12....       LCALL   ?XSTACK_DISP0_8
   \   000065   D0E0         POP     A
   \   000067   F0           MOVX    @DPTR,A
   1842          
   1843            if ( ZSTACK_END_DEVICE_BUILD )
   1844            {
   1845              // Make sure the message didn't come from myself - end device only
   1846              if ( osal_ExtAddrEqual( NLME_GetExtAddr(), Annce.extAddr ) && Annce.nwkAddr == NLME_GetShortAddr() )
   1847              {
   1848                return;
   1849              }
   1850            }
   1851          
   1852          #if defined ( ZIGBEE_STOCHASTIC_ADDRESSING )
   1853            // Clean up the neighbor table
   1854            nwkNeighborRemoveAllStranded();
   \   000068                ; Setup parameters for call to function nwkNeighborRemoveAllStranded
   \   000068   12....       LCALL   ??nwkNeighborRemoveAllStranded?relay
   1855          
   1856            // If address conflict is detected, no need to update the address manager
   1857            if ( NLME_CheckNewAddrSet( Annce.nwkAddr, Annce.extAddr )== ZFailure )
   \   00006B                ; Setup parameters for call to function NLME_CheckNewAddrSet
   \   00006B   7402         MOV     A,#0x2
   \   00006D   12....       LCALL   ?XSTACK_DISP0_8
   \   000070   AC82         MOV     R4,DPL
   \   000072   AD83         MOV     R5,DPH
   \   000074   85..82       MOV     DPL,?XSP + 0
   \   000077   85..83       MOV     DPH,?XSP + 1
   \   00007A   E0           MOVX    A,@DPTR
   \   00007B   FA           MOV     R2,A
   \   00007C   A3           INC     DPTR
   \   00007D   E0           MOVX    A,@DPTR
   \   00007E   FB           MOV     R3,A
   \   00007F   12....       LCALL   ??NLME_CheckNewAddrSet?relay
   \   000082   E9           MOV     A,R1
   \   000083   6401         XRL     A,#0x1
   \   000085   7003         JNZ     $+5
   \   000087   02....       LJMP    ??ZDO_ProcessDeviceAnnce_0 & 0xFFFF
   1858            {
   1859              return;
   1860            }
   1861          #endif
   1862          
   1863          #if defined ( ZIGBEE_STOCHASTIC_ADDRESSING )
   1864            // Check for parent's address
   1865            NLME_GetCoordExtAddr( parentExt );
   \   00008A                ; Setup parameters for call to function NLME_GetCoordExtAddr
   \   00008A   740B         MOV     A,#0xb
   \   00008C   12....       LCALL   ?XSTACK_DISP0_8
   \   00008F   AA82         MOV     R2,DPL
   \   000091   AB83         MOV     R3,DPH
   \   000093   12....       LCALL   ??NLME_GetCoordExtAddr?relay
   1866            if ( osal_ExtAddrEqual( parentExt, Annce.extAddr ) )
   \   000096                ; Setup parameters for call to function sAddrExtCmp
   \   000096   7402         MOV     A,#0x2
   \   000098   12....       LCALL   ?XSTACK_DISP0_8
   \   00009B   AC82         MOV     R4,DPL
   \   00009D   AD83         MOV     R5,DPH
   \   00009F   740B         MOV     A,#0xb
   \   0000A1   12....       LCALL   ?XSTACK_DISP0_8
   \   0000A4   AA82         MOV     R2,DPL
   \   0000A6   AB83         MOV     R3,DPH
   \   0000A8   12....       LCALL   ??sAddrExtCmp?relay
   \   0000AB   E9           MOV     A,R1
   \   0000AC   6036         JZ      ??ZDO_ProcessDeviceAnnce_1
   1867            {
   1868              if ( Annce.nwkAddr != NLME_GetCoordShortAddr() )
   \   0000AE                ; Setup parameters for call to function NLME_GetCoordShortAddr
   \   0000AE   12....       LCALL   ??NLME_GetCoordShortAddr?relay
   \   0000B1   8A..         MOV     ?V0 + 0,R2
   \   0000B3   8B..         MOV     ?V0 + 1,R3
   \   0000B5   A8..         MOV     R0,?V0 + 0
   \   0000B7   A9..         MOV     R1,?V0 + 1
   \   0000B9   85..82       MOV     DPL,?XSP + 0
   \   0000BC   85..83       MOV     DPH,?XSP + 1
   \   0000BF   E0           MOVX    A,@DPTR
   \   0000C0   68           XRL     A,R0
   \   0000C1   7003         JNZ     ??ZDO_ProcessDeviceAnnce_2
   \   0000C3   A3           INC     DPTR
   \   0000C4   E0           MOVX    A,@DPTR
   \   0000C5   69           XRL     A,R1
   \                     ??ZDO_ProcessDeviceAnnce_2:
   \   0000C6   601C         JZ      ??ZDO_ProcessDeviceAnnce_1
   1869              {
   1870                // Set the Parent's MAC's new short address
   1871                _NIB.nwkCoordAddress = Annce.nwkAddr;
   \   0000C8   85..82       MOV     DPL,?XSP + 0
   \   0000CB   85..83       MOV     DPH,?XSP + 1
   \   0000CE   E0           MOVX    A,@DPTR
   \   0000CF   F8           MOV     R0,A
   \   0000D0   A3           INC     DPTR
   \   0000D1   E0           MOVX    A,@DPTR
   \   0000D2   F9           MOV     R1,A
   \   0000D3   90....       MOV     DPTR,#_NIB + 23
   \   0000D6   E8           MOV     A,R0
   \   0000D7   F0           MOVX    @DPTR,A
   \   0000D8   A3           INC     DPTR
   \   0000D9   E9           MOV     A,R1
   \   0000DA   F0           MOVX    @DPTR,A
   1872                ZMacSetReq( ZMacCoordShortAddress, (byte*)&(_NIB.nwkCoordAddress) );
   \   0000DB                ; Setup parameters for call to function ZMacSetReq
   \   0000DB   7A..         MOV     R2,#(_NIB + 23) & 0xff
   \   0000DD   7B..         MOV     R3,#((_NIB + 23) >> 8) & 0xff
   \   0000DF   794B         MOV     R1,#0x4b
   \   0000E1   12....       LCALL   ??ZMacSetReq?relay
   1873              }
   1874            }
   1875          
   1876            if ( ZSTACK_ROUTER_BUILD )
   1877            {
   1878              // If the device annce comes from a end device child that has moved
   1879              // to another parent, remove it from associated device list
   1880          
   1881              // If the dev annce is coming from other device's children,
   1882              // (The dev annce from its own children shall be unicast to itself,
   1883              // So check the mac destination address)
   1884              // Remove it from the associated device list. If it is not
   1885              // a child, no action will be taken in AssocRemove() anyway.
   1886              if ( inMsg->macDestAddr != NLME_GetShortAddr() )
   \                     ??ZDO_ProcessDeviceAnnce_1:
   \   0000E4   EE           MOV     A,R6
   \   0000E5   2411         ADD     A,#0x11
   \   0000E7   F582         MOV     DPL,A
   \   0000E9   EF           MOV     A,R7
   \   0000EA   3400         ADDC    A,#0x0
   \   0000EC   F583         MOV     DPH,A
   \   0000EE   C082         PUSH    DPL
   \   0000F0   C083         PUSH    DPH
   \   0000F2                ; Setup parameters for call to function NLME_GetShortAddr
   \   0000F2   12....       LCALL   ??NLME_GetShortAddr?relay
   \   0000F5   8A..         MOV     ?V0 + 0,R2
   \   0000F7   8B..         MOV     ?V0 + 1,R3
   \   0000F9   D083         POP     DPH
   \   0000FB   D082         POP     DPL
   \   0000FD   E0           MOVX    A,@DPTR
   \   0000FE   65..         XRL     A,?V0 + 0
   \   000100   7004         JNZ     ??ZDO_ProcessDeviceAnnce_3
   \   000102   A3           INC     DPTR
   \   000103   E0           MOVX    A,@DPTR
   \   000104   65..         XRL     A,?V0 + 1
   \                     ??ZDO_ProcessDeviceAnnce_3:
   \   000106   6032         JZ      ??ZDO_ProcessDeviceAnnce_4
   1887              {
   1888                associated_devices_t *dev_ptr;
   1889          
   1890                // If it's an end device child
   1891                dev_ptr = AssocGetWithExt( Annce.extAddr );
   \   000108                ; Setup parameters for call to function AssocGetWithExt
   \   000108   7402         MOV     A,#0x2
   \   00010A   12....       LCALL   ?XSTACK_DISP0_8
   \   00010D   AA82         MOV     R2,DPL
   \   00010F   AB83         MOV     R3,DPH
   \   000111   12....       LCALL   ??AssocGetWithExt?relay
   \   000114   8A82         MOV     DPL,R2
   \   000116   8B83         MOV     DPH,R3
   1892                if ( dev_ptr )
   \   000118   E582         MOV     A,DPL
   \   00011A   4583         ORL     A,DPH
   \   00011C   601C         JZ      ??ZDO_ProcessDeviceAnnce_4
   1893                {
   1894                  if ( dev_ptr->nodeRelation == CHILD_RFD ||
   1895                       dev_ptr->nodeRelation == CHILD_RFD_RX_IDLE )
   \   00011E   A3           INC     DPTR
   \   00011F   A3           INC     DPTR
   \   000120   A3           INC     DPTR
   \   000121   A3           INC     DPTR
   \   000122   E0           MOVX    A,@DPTR
   \   000123   F8           MOV     R0,A
   \   000124   7401         MOV     A,#0x1
   \   000126   68           XRL     A,R0
   \   000127   6005         JZ      ??ZDO_ProcessDeviceAnnce_5
   \   000129   7402         MOV     A,#0x2
   \   00012B   68           XRL     A,R0
   \   00012C   700C         JNZ     ??ZDO_ProcessDeviceAnnce_4
   1896                  {
   1897                    AssocRemove( Annce.extAddr );
   \                     ??ZDO_ProcessDeviceAnnce_5:
   \   00012E                ; Setup parameters for call to function AssocRemove
   \   00012E   7402         MOV     A,#0x2
   \   000130   12....       LCALL   ?XSTACK_DISP0_8
   \   000133   AA82         MOV     R2,DPL
   \   000135   AB83         MOV     R3,DPH
   \   000137   12....       LCALL   ??AssocRemove?relay
   1898                  }
   1899                }
   1900              }
   1901          
   1902              if ( Annce.nwkAddr != NLME_GetShortAddr() )
   \                     ??ZDO_ProcessDeviceAnnce_4:
   \   00013A                ; Setup parameters for call to function NLME_GetShortAddr
   \   00013A   12....       LCALL   ??NLME_GetShortAddr?relay
   \   00013D   8A..         MOV     ?V0 + 0,R2
   \   00013F   8B..         MOV     ?V0 + 1,R3
   \   000141   A8..         MOV     R0,?V0 + 0
   \   000143   A9..         MOV     R1,?V0 + 1
   \   000145   85..82       MOV     DPL,?XSP + 0
   \   000148   85..83       MOV     DPH,?XSP + 1
   \   00014B   E0           MOVX    A,@DPTR
   \   00014C   68           XRL     A,R0
   \   00014D   7003         JNZ     ??ZDO_ProcessDeviceAnnce_6
   \   00014F   A3           INC     DPTR
   \   000150   E0           MOVX    A,@DPTR
   \   000151   69           XRL     A,R1
   \                     ??ZDO_ProcessDeviceAnnce_6:
   \   000152   6034         JZ      ??ZDO_ProcessDeviceAnnce_7
   1903              {
   1904                // If an associated device is found with matched extended Address,
   1905                // update its short address
   1906                if ( AssocChangeNwkAddr( Annce.nwkAddr, Annce.extAddr ) )
   \   000154                ; Setup parameters for call to function AssocChangeNwkAddr
   \   000154   7402         MOV     A,#0x2
   \   000156   12....       LCALL   ?XSTACK_DISP0_8
   \   000159   AC82         MOV     R4,DPL
   \   00015B   AD83         MOV     R5,DPH
   \   00015D   85..82       MOV     DPL,?XSP + 0
   \   000160   85..83       MOV     DPH,?XSP + 1
   \   000163   E0           MOVX    A,@DPTR
   \   000164   FA           MOV     R2,A
   \   000165   A3           INC     DPTR
   \   000166   E0           MOVX    A,@DPTR
   \   000167   FB           MOV     R3,A
   \   000168   12....       LCALL   ??AssocChangeNwkAddr?relay
   \   00016B   E9           MOV     A,R1
   \   00016C   601A         JZ      ??ZDO_ProcessDeviceAnnce_7
   1907                {
   1908                  // Update the neighbor table
   1909                  nwkNeighborUpdateNwkAddr( Annce.nwkAddr, Annce.extAddr );
   \   00016E                ; Setup parameters for call to function nwkNeighborUpdateNwkAddr
   \   00016E   7402         MOV     A,#0x2
   \   000170   12....       LCALL   ?XSTACK_DISP0_8
   \   000173   AC82         MOV     R4,DPL
   \   000175   AD83         MOV     R5,DPH
   \   000177   85..82       MOV     DPL,?XSP + 0
   \   00017A   85..83       MOV     DPH,?XSP + 1
   \   00017D   E0           MOVX    A,@DPTR
   \   00017E   FA           MOV     R2,A
   \   00017F   A3           INC     DPTR
   \   000180   E0           MOVX    A,@DPTR
   \   000181   FB           MOV     R3,A
   \   000182   12....       LCALL   ??nwkNeighborUpdateNwkAddr?relay
   1910          
   1911                  // Set event to save NV
   1912                  ZDApp_NVUpdate();
   \   000185                ; Setup parameters for call to function ZDApp_NVUpdate
   \   000185   12....       LCALL   ??ZDApp_NVUpdate?relay
   1913                }
   1914              }
   1915            }
   1916            
   1917            // Assume that the device has moved, remove existing routing entries
   1918            RTG_RemoveRtgEntry( Annce.nwkAddr, 0 );
   \                     ??ZDO_ProcessDeviceAnnce_7:
   \   000188                ; Setup parameters for call to function RTG_RemoveRtgEntry
   \   000188   7900         MOV     R1,#0x0
   \   00018A   85..82       MOV     DPL,?XSP + 0
   \   00018D   85..83       MOV     DPH,?XSP + 1
   \   000190   E0           MOVX    A,@DPTR
   \   000191   FA           MOV     R2,A
   \   000192   A3           INC     DPTR
   \   000193   E0           MOVX    A,@DPTR
   \   000194   FB           MOV     R3,A
   \   000195   12....       LCALL   ??RTG_RemoveRtgEntry?relay
   1919            
   1920          #endif // ZIGBEE_STOCHASTIC_ADDRESSING
   1921          
   1922          
   1923            // Fill in the extended address in address manager if we don't have it already.
   1924            addrEntry.user = ADDRMGR_USER_DEFAULT;
   \   000198   7413         MOV     A,#0x13
   \   00019A   12....       LCALL   ?XSTACK_DISP0_8
   \   00019D   E4           CLR     A
   \   00019E   F0           MOVX    @DPTR,A
   1925            addrEntry.nwkAddr = Annce.nwkAddr;
   \   00019F   85..82       MOV     DPL,?XSP + 0
   \   0001A2   85..83       MOV     DPH,?XSP + 1
   \   0001A5   E0           MOVX    A,@DPTR
   \   0001A6   F8           MOV     R0,A
   \   0001A7   A3           INC     DPTR
   \   0001A8   E0           MOVX    A,@DPTR
   \   0001A9   F9           MOV     R1,A
   \   0001AA   7414         MOV     A,#0x14
   \   0001AC   12....       LCALL   ?XSTACK_DISP0_8
   \   0001AF   E8           MOV     A,R0
   \   0001B0   F0           MOVX    @DPTR,A
   \   0001B1   A3           INC     DPTR
   \   0001B2   E9           MOV     A,R1
   \   0001B3   F0           MOVX    @DPTR,A
   1926            if ( AddrMgrEntryLookupNwk( &addrEntry ) )
   \   0001B4                ; Setup parameters for call to function AddrMgrEntryLookupNwk
   \   0001B4   7413         MOV     A,#0x13
   \   0001B6   12....       LCALL   ?XSTACK_DISP0_8
   \   0001B9   AA82         MOV     R2,DPL
   \   0001BB   AB83         MOV     R3,DPH
   \   0001BD   12....       LCALL   ??AddrMgrEntryLookupNwk?relay
   \   0001C0   E9           MOV     A,R1
   \   0001C1   604B         JZ      ??ZDO_ProcessDeviceAnnce_0
   1927            {
   1928              osal_memset( parentExt, 0, Z_EXTADDR_LEN );
   \   0001C3                ; Setup parameters for call to function osal_memset
   \   0001C3   7C08         MOV     R4,#0x8
   \   0001C5   7D00         MOV     R5,#0x0
   \   0001C7   7900         MOV     R1,#0x0
   \   0001C9   740B         MOV     A,#0xb
   \   0001CB   12....       LCALL   ?XSTACK_DISP0_8
   \   0001CE   AA82         MOV     R2,DPL
   \   0001D0   AB83         MOV     R3,DPH
   \   0001D2   12....       LCALL   ??osal_memset?relay
   1929              if ( osal_ExtAddrEqual( parentExt, addrEntry.extAddr ) )
   \   0001D5                ; Setup parameters for call to function sAddrExtCmp
   \   0001D5   7416         MOV     A,#0x16
   \   0001D7   12....       LCALL   ?XSTACK_DISP0_8
   \   0001DA   AC82         MOV     R4,DPL
   \   0001DC   AD83         MOV     R5,DPH
   \   0001DE   740B         MOV     A,#0xb
   \   0001E0   12....       LCALL   ?XSTACK_DISP0_8
   \   0001E3   AA82         MOV     R2,DPL
   \   0001E5   AB83         MOV     R3,DPH
   \   0001E7   12....       LCALL   ??sAddrExtCmp?relay
   \   0001EA   E9           MOV     A,R1
   \   0001EB   6021         JZ      ??ZDO_ProcessDeviceAnnce_0
   1930              {
   1931                AddrMgrExtAddrSet( addrEntry.extAddr, Annce.extAddr );
   \   0001ED                ; Setup parameters for call to function AddrMgrExtAddrSet
   \   0001ED   7402         MOV     A,#0x2
   \   0001EF   12....       LCALL   ?XSTACK_DISP0_8
   \   0001F2   AC82         MOV     R4,DPL
   \   0001F4   AD83         MOV     R5,DPH
   \   0001F6   7416         MOV     A,#0x16
   \   0001F8   12....       LCALL   ?XSTACK_DISP0_8
   \   0001FB   AA82         MOV     R2,DPL
   \   0001FD   AB83         MOV     R3,DPH
   \   0001FF   12....       LCALL   ??AddrMgrExtAddrSet?relay
   1932                AddrMgrEntryUpdate( &addrEntry );
   \   000202                ; Setup parameters for call to function AddrMgrEntryUpdate
   \   000202   7413         MOV     A,#0x13
   \   000204   12....       LCALL   ?XSTACK_DISP0_8
   \   000207   AA82         MOV     R2,DPL
   \   000209   AB83         MOV     R3,DPH
   \   00020B   12....       LCALL   ??AddrMgrEntryUpdate?relay
   \                     ??ZDO_ProcessDeviceAnnce_0:
   \   00020E   7420         MOV     A,#0x20
   1933              }
   1934            }
   \   000210   02....       LJMP    ??Subroutine11_0 & 0xFFFF
   1935          }
   1936          
   1937          /*********************************************************************
   1938           * @fn          ZDO_BuildSimpleDescBuf
   1939           *
   1940           * @brief       Build a byte sequence representation of a Simple Descriptor.
   1941           *
   1942           * @param       buf  - pointer to a byte array big enough for data.
   1943           * @param       desc - SimpleDescriptionFormat_t *
   1944           *
   1945           * @return      none
   1946           */

   \                                 In  segment BANKED_CODE, align 1, keep-with-next
   1947          void ZDO_BuildSimpleDescBuf( uint8 *buf, SimpleDescriptionFormat_t *desc )
   \                     ZDO_BuildSimpleDescBuf:
   1948          {
   \   000000   74F5         MOV     A,#-0xb
   \   000002   12....       LCALL   ?BANKED_ENTER_XDATA
   \   000005                ; Saved register size: 11
   \   000005                ; Auto size: 0
   1949            byte cnt;
   1950            uint16 *ptr;
   1951          
   1952            *buf++ = desc->EndPoint;
   \   000005   8C82         MOV     DPL,R4
   \   000007   8D83         MOV     DPH,R5
   \   000009   E0           MOVX    A,@DPTR
   \   00000A   8A82         MOV     DPL,R2
   \   00000C   8B83         MOV     DPH,R3
   \   00000E   F0           MOVX    @DPTR,A
   \   00000F   A3           INC     DPTR
   \   000010   AA82         MOV     R2,DPL
   \   000012   AB83         MOV     R3,DPH
   1953            *buf++ = HI_UINT16( desc->AppProfId );
   \   000014   8C82         MOV     DPL,R4
   \   000016   8D83         MOV     DPH,R5
   \   000018   A3           INC     DPTR
   \   000019   A882         MOV     R0,DPL
   \   00001B   A983         MOV     R1,DPH
   \   00001D   A3           INC     DPTR
   \   00001E   E0           MOVX    A,@DPTR
   \   00001F   8A82         MOV     DPL,R2
   \   000021   8B83         MOV     DPH,R3
   \   000023   F0           MOVX    @DPTR,A
   \   000024   A3           INC     DPTR
   \   000025   0A           INC     R2
   \   000026   AB83         MOV     R3,DPH
   1954            *buf++ = LO_UINT16( desc->AppProfId );
   \   000028   8882         MOV     DPL,R0
   \   00002A   8983         MOV     DPH,R1
   \   00002C   E0           MOVX    A,@DPTR
   \   00002D   8A82         MOV     DPL,R2
   \   00002F   8B83         MOV     DPH,R3
   \   000031   F0           MOVX    @DPTR,A
   \   000032   A3           INC     DPTR
   \   000033   0A           INC     R2
   \   000034   AB83         MOV     R3,DPH
   1955            *buf++ = HI_UINT16( desc->AppDeviceId );
   \   000036   EC           MOV     A,R4
   \   000037   2403         ADD     A,#0x3
   \   000039   F8           MOV     R0,A
   \   00003A   ED           MOV     A,R5
   \   00003B   3400         ADDC    A,#0x0
   \   00003D   F9           MOV     R1,A
   \   00003E   8882         MOV     DPL,R0
   \   000040   8983         MOV     DPH,R1
   \   000042   A3           INC     DPTR
   \   000043   E0           MOVX    A,@DPTR
   \   000044   8A82         MOV     DPL,R2
   \   000046   8B83         MOV     DPH,R3
   \   000048   F0           MOVX    @DPTR,A
   \   000049   A3           INC     DPTR
   \   00004A   0A           INC     R2
   \   00004B   AB83         MOV     R3,DPH
   1956            *buf++ = LO_UINT16( desc->AppDeviceId );
   \   00004D   8882         MOV     DPL,R0
   \   00004F   8983         MOV     DPH,R1
   \   000051   E0           MOVX    A,@DPTR
   \   000052   8A82         MOV     DPL,R2
   \   000054   8B83         MOV     DPH,R3
   \   000056   F0           MOVX    @DPTR,A
   \   000057   A3           INC     DPTR
   \   000058   0A           INC     R2
   \   000059   AB83         MOV     R3,DPH
   1957          
   1958            *buf++ = (byte)(desc->AppDevVer << 4);
   \   00005B   8C82         MOV     DPL,R4
   \   00005D   8D83         MOV     DPH,R5
   \   00005F   A3           INC     DPTR
   \   000060   A3           INC     DPTR
   \   000061   A3           INC     DPTR
   \   000062   A3           INC     DPTR
   \   000063   A3           INC     DPTR
   \   000064   E0           MOVX    A,@DPTR
   \   000065   C4           SWAP    A
   \   000066   54F0         ANL     A,#0xf0
   \   000068   8A82         MOV     DPL,R2
   \   00006A   8B83         MOV     DPH,R3
   \   00006C   F0           MOVX    @DPTR,A
   \   00006D   A3           INC     DPTR
   \   00006E   0A           INC     R2
   \   00006F   AB83         MOV     R3,DPH
   1959          
   1960            *buf++ = desc->AppNumInClusters;
   \   000071   EC           MOV     A,R4
   \   000072   2406         ADD     A,#0x6
   \   000074   08           INC     R0
   \   000075   08           INC     R0
   \   000076   08           INC     R0
   \   000077   ED           MOV     A,R5
   \   000078   3400         ADDC    A,#0x0
   \   00007A   F9           MOV     R1,A
   \   00007B   E8           MOV     A,R0
   \   00007C   FE           MOV     R6,A
   \   00007D   E9           MOV     A,R1
   \   00007E   FF           MOV     R7,A
   \   00007F   8E82         MOV     DPL,R6
   \   000081   8F83         MOV     DPH,R7
   \   000083   E0           MOVX    A,@DPTR
   \   000084   8A82         MOV     DPL,R2
   \   000086   8B83         MOV     DPH,R3
   \   000088   F0           MOVX    @DPTR,A
   \   000089   A3           INC     DPTR
   \   00008A   0A           INC     R2
   \   00008B   AB83         MOV     R3,DPH
   1961            ptr = desc->pAppInClusterList;
   \   00008D   8C82         MOV     DPL,R4
   \   00008F   8D83         MOV     DPH,R5
   \   000091   A3           INC     DPTR
   \   000092   A3           INC     DPTR
   \   000093   A3           INC     DPTR
   \   000094   A3           INC     DPTR
   \   000095   A3           INC     DPTR
   \   000096   A3           INC     DPTR
   \   000097   A3           INC     DPTR
   \   000098   E0           MOVX    A,@DPTR
   \   000099   F8           MOV     R0,A
   \   00009A   A3           INC     DPTR
   \   00009B   E0           MOVX    A,@DPTR
   \   00009C   F9           MOV     R1,A
   1962            for ( cnt = 0; cnt < desc->AppNumInClusters; ptr++, cnt++ )
   \   00009D   75..00       MOV     ?V0 + 2,#0x0
   \   0000A0   8E82         MOV     DPL,R6
   \   0000A2   8F83         MOV     DPH,R7
   \   0000A4   E0           MOVX    A,@DPTR
   \   0000A5   6037         JZ      ??ZDO_BuildSimpleDescBuf_0
   1963            {
   1964              *buf++ = HI_UINT16( *ptr );
   \                     ??ZDO_BuildSimpleDescBuf_1:
   \   0000A7   8882         MOV     DPL,R0
   \   0000A9   8983         MOV     DPH,R1
   \   0000AB   A3           INC     DPTR
   \   0000AC   E0           MOVX    A,@DPTR
   \   0000AD   8A82         MOV     DPL,R2
   \   0000AF   8B83         MOV     DPH,R3
   \   0000B1   F0           MOVX    @DPTR,A
   \   0000B2   A3           INC     DPTR
   \   0000B3   AA82         MOV     R2,DPL
   \   0000B5   AB83         MOV     R3,DPH
   1965              *buf++ = LO_UINT16( *ptr );
   \   0000B7   8882         MOV     DPL,R0
   \   0000B9   8983         MOV     DPH,R1
   \   0000BB   E0           MOVX    A,@DPTR
   \   0000BC   8A82         MOV     DPL,R2
   \   0000BE   8B83         MOV     DPH,R3
   \   0000C0   F0           MOVX    @DPTR,A
   \   0000C1   A3           INC     DPTR
   \   0000C2   0A           INC     R2
   \   0000C3   AB83         MOV     R3,DPH
   1966            }
   \   0000C5   E8           MOV     A,R0
   \   0000C6   2402         ADD     A,#0x2
   \   0000C8   08           INC     R0
   \   0000C9   08           INC     R0
   \   0000CA   E9           MOV     A,R1
   \   0000CB   3400         ADDC    A,#0x0
   \   0000CD   F9           MOV     R1,A
   \   0000CE   05..         INC     ?V0 + 2
   \   0000D0   8E82         MOV     DPL,R6
   \   0000D2   8F83         MOV     DPH,R7
   \   0000D4   E0           MOVX    A,@DPTR
   \   0000D5   F5..         MOV     ?V0 + 0,A
   \   0000D7   E5..         MOV     A,?V0 + 2
   \   0000D9   C3           CLR     C
   \   0000DA   95..         SUBB    A,?V0 + 0
   \   0000DC   40C9         JC      ??ZDO_BuildSimpleDescBuf_1
   1967          
   1968            *buf++ = desc->AppNumOutClusters;
   \                     ??ZDO_BuildSimpleDescBuf_0:
   \   0000DE   EC           MOV     A,R4
   \   0000DF   2409         ADD     A,#0x9
   \   0000E1   ED           MOV     A,R5
   \   0000E2   3400         ADDC    A,#0x0
   \   0000E4   0E           INC     R6
   \   0000E5   0E           INC     R6
   \   0000E6   0E           INC     R6
   \   0000E7   FF           MOV     R7,A
   \   0000E8   8E82         MOV     DPL,R6
   \   0000EA   8F83         MOV     DPH,R7
   \   0000EC   E0           MOVX    A,@DPTR
   \   0000ED   8A82         MOV     DPL,R2
   \   0000EF   8B83         MOV     DPH,R3
   \   0000F1   F0           MOVX    @DPTR,A
   \   0000F2   A3           INC     DPTR
   \   0000F3   AA82         MOV     R2,DPL
   \   0000F5   AB83         MOV     R3,DPH
   1969            ptr = desc->pAppOutClusterList;
   \   0000F7   8C82         MOV     DPL,R4
   \   0000F9   8D83         MOV     DPH,R5
   \   0000FB   A3           INC     DPTR
   \   0000FC   A3           INC     DPTR
   \   0000FD   A3           INC     DPTR
   \   0000FE   A3           INC     DPTR
   \   0000FF   A3           INC     DPTR
   \   000100   A3           INC     DPTR
   \   000101   A3           INC     DPTR
   \   000102   A3           INC     DPTR
   \   000103   A3           INC     DPTR
   \   000104   A3           INC     DPTR
   \   000105   E0           MOVX    A,@DPTR
   \   000106   F8           MOV     R0,A
   \   000107   A3           INC     DPTR
   \   000108   E0           MOVX    A,@DPTR
   \   000109   F9           MOV     R1,A
   1970            for ( cnt = 0; cnt < desc->AppNumOutClusters; ptr++, cnt++ )
   \   00010A   75..00       MOV     ?V0 + 2,#0x0
   \   00010D   8E82         MOV     DPL,R6
   \   00010F   8F83         MOV     DPH,R7
   \   000111   E0           MOVX    A,@DPTR
   \   000112   6035         JZ      ??ZDO_BuildSimpleDescBuf_2
   1971            {
   1972              *buf++ = HI_UINT16( *ptr );
   \                     ??ZDO_BuildSimpleDescBuf_3:
   \   000114   8882         MOV     DPL,R0
   \   000116   8983         MOV     DPH,R1
   \   000118   A3           INC     DPTR
   \   000119   E0           MOVX    A,@DPTR
   \   00011A   8A82         MOV     DPL,R2
   \   00011C   8B83         MOV     DPH,R3
   \   00011E   F0           MOVX    @DPTR,A
   \   00011F   A3           INC     DPTR
   \   000120   AA82         MOV     R2,DPL
   \   000122   AB83         MOV     R3,DPH
   1973              *buf++ = LO_UINT16( *ptr );
   \   000124   8882         MOV     DPL,R0
   \   000126   8983         MOV     DPH,R1
   \   000128   E0           MOVX    A,@DPTR
   \   000129   8A82         MOV     DPL,R2
   \   00012B   8B83         MOV     DPH,R3
   \   00012D   F0           MOVX    @DPTR,A
   \   00012E   A3           INC     DPTR
   \   00012F   0A           INC     R2
   \   000130   AB83         MOV     R3,DPH
   1974            }
   \   000132   E8           MOV     A,R0
   \   000133   2402         ADD     A,#0x2
   \   000135   08           INC     R0
   \   000136   08           INC     R0
   \   000137   E9           MOV     A,R1
   \   000138   3400         ADDC    A,#0x0
   \   00013A   F9           MOV     R1,A
   \   00013B   05..         INC     ?V0 + 2
   \   00013D   8E82         MOV     DPL,R6
   \   00013F   8F83         MOV     DPH,R7
   \   000141   E0           MOVX    A,@DPTR
   \   000142   FC           MOV     R4,A
   \   000143   E5..         MOV     A,?V0 + 2
   \   000145   C3           CLR     C
   \   000146   9C           SUBB    A,R4
   \   000147   40CB         JC      ??ZDO_BuildSimpleDescBuf_3
   1975          }
   \                     ??ZDO_BuildSimpleDescBuf_2:
   \   000149   7F03         MOV     R7,#0x3
   \   00014B   02....       LJMP    ?BANKED_LEAVE_XDATA
   1976          
   1977          /*********************************************************************
   1978           * @fn      ZDO_MatchEndDeviceBind()
   1979           *
   1980           * @brief
   1981           *
   1982           *   Called to match end device binding requests
   1983           *
   1984           * @param  bindReq  - binding request information
   1985           * @param  SecurityUse - Security enable/disable
   1986           *
   1987           * @return  none
   1988           */

   \                                 In  segment BANKED_CODE, align 1, keep-with-next
   1989          void ZDO_MatchEndDeviceBind( ZDEndDeviceBind_t *bindReq )
   \                     ZDO_MatchEndDeviceBind:
   1990          {
   \   000000   74EC         MOV     A,#-0x14
   \   000002   12....       LCALL   ?BANKED_ENTER_XDATA
   \   000005                ; Saved register size: 20
   \   000005                ; Auto size: 10
   \   000005   74F6         MOV     A,#-0xa
   \   000007   12....       LCALL   ?ALLOC_XSTACK8
   \   00000A   EA           MOV     A,R2
   \   00000B   FE           MOV     R6,A
   \   00000C   EB           MOV     A,R3
   \   00000D   FF           MOV     R7,A
   1991            zAddrType_t dstAddr;
   1992            uint8 sendRsp = FALSE;
   \   00000E   75..00       MOV     ?V0 + 2,#0x0
   1993            uint8 status;
   1994          
   1995            // Is this the first request?
   1996            if ( matchED == NULL )
   \   000011   90....       MOV     DPTR,#matchED
   \   000014   E0           MOVX    A,@DPTR
   \   000015   F8           MOV     R0,A
   \   000016   A3           INC     DPTR
   \   000017   E0           MOVX    A,@DPTR
   \   000018   F9           MOV     R1,A
   \   000019   E8           MOV     A,R0
   \   00001A   49           ORL     A,R1
   \   00001B   7066         JNZ     ??ZDO_MatchEndDeviceBind_0
   1997            {
   1998              // Create match info structure
   1999              matchED = (ZDMatchEndDeviceBind_t *)osal_mem_alloc( sizeof ( ZDMatchEndDeviceBind_t ) );
   \   00001D                ; Setup parameters for call to function osal_mem_alloc
   \   00001D   7A37         MOV     R2,#0x37
   \   00001F   7B00         MOV     R3,#0x0
   \   000021   12....       LCALL   ??osal_mem_alloc?relay
   \   000024   90....       MOV     DPTR,#matchED
   \   000027   EA           MOV     A,R2
   \   000028   F0           MOVX    @DPTR,A
   \   000029   A3           INC     DPTR
   \   00002A   EB           MOV     A,R3
   \   00002B   F0           MOVX    @DPTR,A
   2000              if ( matchED )
   \   00002C   90....       MOV     DPTR,#matchED
   \   00002F   E0           MOVX    A,@DPTR
   \   000030   F8           MOV     R0,A
   \   000031   A3           INC     DPTR
   \   000032   E0           MOVX    A,@DPTR
   \   000033   F9           MOV     R1,A
   \   000034   E8           MOV     A,R0
   \   000035   49           ORL     A,R1
   \   000036   601B         JZ      ??ZDO_MatchEndDeviceBind_1
   2001              {
   2002                // Clear the structure
   2003                osal_memset( (uint8 *)matchED, 0, sizeof ( ZDMatchEndDeviceBind_t ) );
   \   000038                ; Setup parameters for call to function osal_memset
   \   000038   7C37         MOV     R4,#0x37
   \   00003A   7D00         MOV     R5,#0x0
   \   00003C   7900         MOV     R1,#0x0
   \   00003E   12....       LCALL   ??osal_memset?relay
   2004          
   2005                // Copy the first request's information
   2006                if ( !ZDO_CopyMatchInfo( &(matchED->ed1), bindReq ) )
   \   000041                ; Setup parameters for call to function ZDO_CopyMatchInfo
   \   000041   EE           MOV     A,R6
   \   000042   FC           MOV     R4,A
   \   000043   EF           MOV     A,R7
   \   000044   FD           MOV     R5,A
   \   000045   90....       MOV     DPTR,#matchED
   \   000048   E0           MOVX    A,@DPTR
   \   000049   FA           MOV     R2,A
   \   00004A   A3           INC     DPTR
   \   00004B   E0           MOVX    A,@DPTR
   \   00004C   FB           MOV     R3,A
   \   00004D   12....       LCALL   ??ZDO_CopyMatchInfo?relay
   \   000050   E9           MOV     A,R1
   \   000051   700B         JNZ     ??ZDO_MatchEndDeviceBind_2
   2007                {
   2008          
   2009                  status = ZDP_NO_ENTRY;
   \                     ??ZDO_MatchEndDeviceBind_1:
   \   000053   85..82       MOV     DPL,?XSP + 0
   \   000056   85..83       MOV     DPH,?XSP + 1
   \   000059   7488         MOV     A,#-0x78
   \   00005B   02....       LJMP    ??ZDO_MatchEndDeviceBind_3 & 0xFFFF
   2010                  sendRsp = TRUE;
   2011                }
   2012              }
   2013              else
   2014              {
   2015                status = ZDP_NO_ENTRY;
   2016                sendRsp = TRUE;
   2017              }
   2018          
   2019              if ( !sendRsp )
   2020              {
   2021                // Set into the correct state
   2022                matchED->state = ZDMATCH_WAIT_REQ;
   \                     ??ZDO_MatchEndDeviceBind_2:
   \   00005E   90....       MOV     DPTR,#matchED
   \   000061   E0           MOVX    A,@DPTR
   \   000062   242E         ADD     A,#0x2e
   \   000064   F8           MOV     R0,A
   \   000065   A3           INC     DPTR
   \   000066   E0           MOVX    A,@DPTR
   \   000067   3400         ADDC    A,#0x0
   \   000069   F9           MOV     R1,A
   \   00006A   8882         MOV     DPL,R0
   \   00006C   8983         MOV     DPH,R1
   \   00006E   7401         MOV     A,#0x1
   \   000070   F0           MOVX    @DPTR,A
   2023          
   2024                // Setup the timeout
   2025                APS_SetEndDeviceBindTimeout( AIB_MaxBindingTime, ZDO_EndDeviceBindMatchTimeoutCB );
   \   000071                ; Setup parameters for call to function APS_SetEndDeviceBindTimeout
   \   000071   7C..         MOV     R4,#??ZDO_EndDeviceBindMatchTimeoutCB?relay & 0xff
   \   000073   7D..         MOV     R5,#(??ZDO_EndDeviceBindMatchTimeoutCB?relay >> 8) & 0xff
   \   000075   90....       MOV     DPTR,#AIB_MaxBindingTime
   \   000078   E0           MOVX    A,@DPTR
   \   000079   FA           MOV     R2,A
   \   00007A   A3           INC     DPTR
   \   00007B   E0           MOVX    A,@DPTR
   \   00007C   FB           MOV     R3,A
   \   00007D   12....       LCALL   ??APS_SetEndDeviceBindTimeout?relay
   \   000080   02....       LJMP    ??ZDO_MatchEndDeviceBind_4 & 0xFFFF
   2026              }
   2027            }
   2028            else
   2029            {
   2030                matchED->state = ZDMATCH_SENDING_BINDS;
   \                     ??ZDO_MatchEndDeviceBind_0:
   \   000083   90....       MOV     DPTR,#matchED
   \   000086   E0           MOVX    A,@DPTR
   \   000087   242E         ADD     A,#0x2e
   \   000089   F8           MOV     R0,A
   \   00008A   A3           INC     DPTR
   \   00008B   E0           MOVX    A,@DPTR
   \   00008C   3400         ADDC    A,#0x0
   \   00008E   F9           MOV     R1,A
   \   00008F   8882         MOV     DPL,R0
   \   000091   8983         MOV     DPH,R1
   \   000093   7402         MOV     A,#0x2
   \   000095   F0           MOVX    @DPTR,A
   2031          
   2032                // Copy the 2nd request's information
   2033                if ( !ZDO_CopyMatchInfo( &(matchED->ed2), bindReq ) )
   \   000096                ; Setup parameters for call to function ZDO_CopyMatchInfo
   \   000096   EE           MOV     A,R6
   \   000097   FC           MOV     R4,A
   \   000098   EF           MOV     A,R7
   \   000099   FD           MOV     R5,A
   \   00009A   90....       MOV     DPTR,#matchED
   \   00009D   E0           MOVX    A,@DPTR
   \   00009E   2417         ADD     A,#0x17
   \   0000A0   FA           MOV     R2,A
   \   0000A1   A3           INC     DPTR
   \   0000A2   E0           MOVX    A,@DPTR
   \   0000A3   3400         ADDC    A,#0x0
   \   0000A5   FB           MOV     R3,A
   \   0000A6   12....       LCALL   ??ZDO_CopyMatchInfo?relay
   \   0000A9   E9           MOV     A,R1
   \   0000AA   700C         JNZ     ??ZDO_MatchEndDeviceBind_5
   2034                {
   2035                  status = ZDP_NO_ENTRY;
   \   0000AC   85..82       MOV     DPL,?XSP + 0
   \   0000AF   85..83       MOV     DPH,?XSP + 1
   \   0000B2   7488         MOV     A,#-0x78
   \   0000B4   F0           MOVX    @DPTR,A
   2036                  sendRsp = TRUE;
   \   0000B5   75..01       MOV     ?V0 + 2,#0x1
   2037                }
   2038          
   2039                // Make a source match for ed1
   2040                matchED->ed1numMatched = ZDO_CompareClusterLists(
   2041                            matchED->ed1.numOutClusters, matchED->ed1.outClusters,
   2042                            matchED->ed2.numInClusters, matchED->ed2.inClusters, ZDOBuildBuf );
   \                     ??ZDO_MatchEndDeviceBind_5:
   \   0000B8   90....       MOV     DPTR,#matchED
   \   0000BB   E0           MOVX    A,@DPTR
   \   0000BC   2429         ADD     A,#0x29
   \   0000BE   F8           MOV     R0,A
   \   0000BF   A3           INC     DPTR
   \   0000C0   E0           MOVX    A,@DPTR
   \   0000C1   3400         ADDC    A,#0x0
   \   0000C3   F9           MOV     R1,A
   \   0000C4   8882         MOV     DPL,R0
   \   0000C6   8983         MOV     DPH,R1
   \   0000C8   E0           MOVX    A,@DPTR
   \   0000C9   FC           MOV     R4,A
   \   0000CA   A3           INC     DPTR
   \   0000CB   E0           MOVX    A,@DPTR
   \   0000CC   FD           MOV     R5,A
   \   0000CD   90....       MOV     DPTR,#matchED
   \   0000D0   E0           MOVX    A,@DPTR
   \   0000D1   2428         ADD     A,#0x28
   \   0000D3   18           DEC     R0
   \   0000D4   A3           INC     DPTR
   \   0000D5   E0           MOVX    A,@DPTR
   \   0000D6   3400         ADDC    A,#0x0
   \   0000D8   F9           MOV     R1,A
   \   0000D9   8882         MOV     DPL,R0
   \   0000DB   8983         MOV     DPH,R1
   \   0000DD   E0           MOVX    A,@DPTR
   \   0000DE   F5..         MOV     ?V0 + 5,A
   \   0000E0   90....       MOV     DPTR,#matchED
   \   0000E3   E0           MOVX    A,@DPTR
   \   0000E4   2414         ADD     A,#0x14
   \   0000E6   F8           MOV     R0,A
   \   0000E7   A3           INC     DPTR
   \   0000E8   E0           MOVX    A,@DPTR
   \   0000E9   3400         ADDC    A,#0x0
   \   0000EB   F9           MOV     R1,A
   \   0000EC   8882         MOV     DPL,R0
   \   0000EE   8983         MOV     DPH,R1
   \   0000F0   E0           MOVX    A,@DPTR
   \   0000F1   F5..         MOV     ?V0 + 0,A
   \   0000F3   75..00       MOV     ?V0 + 4,#0x0
   \   0000F6   607A         JZ      ??ZDO_MatchEndDeviceBind_6
   \   0000F8   90....       MOV     DPTR,#matchED
   \   0000FB   E0           MOVX    A,@DPTR
   \   0000FC   2415         ADD     A,#0x15
   \   0000FE   08           INC     R0
   \   0000FF   A3           INC     DPTR
   \   000100   E0           MOVX    A,@DPTR
   \   000101   3400         ADDC    A,#0x0
   \   000103   F9           MOV     R1,A
   \   000104   8882         MOV     DPL,R0
   \   000106   8983         MOV     DPH,R1
   \   000108   E0           MOVX    A,@DPTR
   \   000109   FA           MOV     R2,A
   \   00010A   A3           INC     DPTR
   \   00010B   E0           MOVX    A,@DPTR
   \   00010C   FB           MOV     R3,A
   \   00010D   85....       MOV     ?V0 + 7,?V0 + 0
   \                     ??ZDO_MatchEndDeviceBind_7:
   \   000110   E5..         MOV     A,?V0 + 5
   \   000112   604F         JZ      ??ZDO_MatchEndDeviceBind_8
   \   000114   EC           MOV     A,R4
   \   000115   F8           MOV     R0,A
   \   000116   ED           MOV     A,R5
   \   000117   F9           MOV     R1,A
   \   000118   85....       MOV     ?V0 + 3,?V0 + 5
   \                     ??ZDO_MatchEndDeviceBind_9:
   \   00011B   8882         MOV     DPL,R0
   \   00011D   8983         MOV     DPH,R1
   \   00011F   E0           MOVX    A,@DPTR
   \   000120   F5..         MOV     ?V0 + 8,A
   \   000122   A3           INC     DPTR
   \   000123   E0           MOVX    A,@DPTR
   \   000124   F5..         MOV     ?V0 + 9,A
   \   000126   8A82         MOV     DPL,R2
   \   000128   8B83         MOV     DPH,R3
   \   00012A   E0           MOVX    A,@DPTR
   \   00012B   65..         XRL     A,?V0 + 8
   \   00012D   7004         JNZ     ??ZDO_MatchEndDeviceBind_10
   \   00012F   A3           INC     DPTR
   \   000130   E0           MOVX    A,@DPTR
   \   000131   65..         XRL     A,?V0 + 9
   \                     ??ZDO_MatchEndDeviceBind_10:
   \   000133   701F         JNZ     ??ZDO_MatchEndDeviceBind_11
   \   000135   E5..         MOV     A,?V0 + 4
   \   000137   C3           CLR     C
   \   000138   33           RLC     A
   \   000139   F5..         MOV     ?V0 + 0,A
   \   00013B   E4           CLR     A
   \   00013C   33           RLC     A
   \   00013D   F5..         MOV     ?V0 + 1,A
   \   00013F   74..         MOV     A,#ZDOBuildBuf & 0xff
   \   000141   25..         ADD     A,?V0 + 0
   \   000143   F582         MOV     DPL,A
   \   000145   74..         MOV     A,#(ZDOBuildBuf >> 8) & 0xff
   \   000147   35..         ADDC    A,?V0 + 1
   \   000149   F583         MOV     DPH,A
   \   00014B   E5..         MOV     A,?V0 + 8
   \   00014D   F0           MOVX    @DPTR,A
   \   00014E   A3           INC     DPTR
   \   00014F   E5..         MOV     A,?V0 + 9
   \   000151   F0           MOVX    @DPTR,A
   \   000152   05..         INC     ?V0 + 4
   \                     ??ZDO_MatchEndDeviceBind_11:
   \   000154   E8           MOV     A,R0
   \   000155   2402         ADD     A,#0x2
   \   000157   08           INC     R0
   \   000158   08           INC     R0
   \   000159   E9           MOV     A,R1
   \   00015A   3400         ADDC    A,#0x0
   \   00015C   F9           MOV     R1,A
   \   00015D   15..         DEC     ?V0 + 3
   \   00015F   E5..         MOV     A,?V0 + 3
   \   000161   70B8         JNZ     ??ZDO_MatchEndDeviceBind_9
   \                     ??ZDO_MatchEndDeviceBind_8:
   \   000163   EA           MOV     A,R2
   \   000164   2402         ADD     A,#0x2
   \   000166   EB           MOV     A,R3
   \   000167   3400         ADDC    A,#0x0
   \   000169   0A           INC     R2
   \   00016A   0A           INC     R2
   \   00016B   FB           MOV     R3,A
   \   00016C   15..         DEC     ?V0 + 7
   \   00016E   E5..         MOV     A,?V0 + 7
   \   000170   709E         JNZ     ??ZDO_MatchEndDeviceBind_7
   \                     ??ZDO_MatchEndDeviceBind_6:
   \   000172   90....       MOV     DPTR,#matchED
   \   000175   E0           MOVX    A,@DPTR
   \   000176   2431         ADD     A,#0x31
   \   000178   F8           MOV     R0,A
   \   000179   A3           INC     DPTR
   \   00017A   E0           MOVX    A,@DPTR
   \   00017B   3400         ADDC    A,#0x0
   \   00017D   F9           MOV     R1,A
   \   00017E   8882         MOV     DPL,R0
   \   000180   8983         MOV     DPH,R1
   \   000182   E5..         MOV     A,?V0 + 4
   \   000184   F0           MOVX    @DPTR,A
   2043                if ( matchED->ed1numMatched )
   \   000185   90....       MOV     DPTR,#matchED
   \   000188   E0           MOVX    A,@DPTR
   \   000189   2431         ADD     A,#0x31
   \   00018B   F8           MOV     R0,A
   \   00018C   A3           INC     DPTR
   \   00018D   E0           MOVX    A,@DPTR
   \   00018E   3400         ADDC    A,#0x0
   \   000190   F9           MOV     R1,A
   \   000191   8882         MOV     DPL,R0
   \   000193   8983         MOV     DPH,R1
   \   000195   E0           MOVX    A,@DPTR
   \   000196   6062         JZ      ??ZDO_MatchEndDeviceBind_12
   2044                {
   2045                  // Save the match list
   2046                  matchED->ed1Matched = osal_mem_alloc( (short)(matchED->ed1numMatched * sizeof ( uint16 )) );
   \   000198                ; Setup parameters for call to function osal_mem_alloc
   \   000198   C3           CLR     C
   \   000199   33           RLC     A
   \   00019A   FA           MOV     R2,A
   \   00019B   E4           CLR     A
   \   00019C   33           RLC     A
   \   00019D   FB           MOV     R3,A
   \   00019E   12....       LCALL   ??osal_mem_alloc?relay
   \   0001A1   90....       MOV     DPTR,#matchED
   \   0001A4   E0           MOVX    A,@DPTR
   \   0001A5   2432         ADD     A,#0x32
   \   0001A7   F8           MOV     R0,A
   \   0001A8   A3           INC     DPTR
   \   0001A9   E0           MOVX    A,@DPTR
   \   0001AA   3400         ADDC    A,#0x0
   \   0001AC   F9           MOV     R1,A
   \   0001AD   8882         MOV     DPL,R0
   \   0001AF   8983         MOV     DPH,R1
   \   0001B1   EA           MOV     A,R2
   \   0001B2   F0           MOVX    @DPTR,A
   \   0001B3   A3           INC     DPTR
   \   0001B4   EB           MOV     A,R3
   \   0001B5   F0           MOVX    @DPTR,A
   2047                  if ( matchED->ed1Matched )
   \   0001B6   8882         MOV     DPL,R0
   \   0001B8   8983         MOV     DPH,R1
   \   0001BA   E0           MOVX    A,@DPTR
   \   0001BB   FA           MOV     R2,A
   \   0001BC   4B           ORL     A,R3
   \   0001BD   602F         JZ      ??ZDO_MatchEndDeviceBind_13
   2048                  {
   2049                    osal_memcpy( matchED->ed1Matched, ZDOBuildBuf, (matchED->ed1numMatched * sizeof ( uint16 )) );
   \   0001BF                ; Setup parameters for call to function osal_memcpy
   \   0001BF   75....       MOV     ?V0 + 4,#ZDOBuildBuf & 0xff
   \   0001C2   75....       MOV     ?V0 + 5,#(ZDOBuildBuf >> 8) & 0xff
   \   0001C5   75..00       MOV     ?V0 + 6,#0x0
   \   0001C8   78..         MOV     R0,#?V0 + 4
   \   0001CA   12....       LCALL   ?PUSH_XSTACK_I_THREE
   \   0001CD   90....       MOV     DPTR,#matchED
   \   0001D0   E0           MOVX    A,@DPTR
   \   0001D1   2431         ADD     A,#0x31
   \   0001D3   F8           MOV     R0,A
   \   0001D4   A3           INC     DPTR
   \   0001D5   E0           MOVX    A,@DPTR
   \   0001D6   3400         ADDC    A,#0x0
   \   0001D8   F9           MOV     R1,A
   \   0001D9   8882         MOV     DPL,R0
   \   0001DB   8983         MOV     DPH,R1
   \   0001DD   E0           MOVX    A,@DPTR
   \   0001DE   C3           CLR     C
   \   0001DF   33           RLC     A
   \   0001E0   FC           MOV     R4,A
   \   0001E1   E4           CLR     A
   \   0001E2   33           RLC     A
   \   0001E3   FD           MOV     R5,A
   \   0001E4   12....       LCALL   ??osal_memcpy?relay
   \   0001E7   7403         MOV     A,#0x3
   \   0001E9   12....       LCALL   ?DEALLOC_XSTACK8
   \   0001EC   800C         SJMP    ??ZDO_MatchEndDeviceBind_12
   2050                  }
   2051                  else
   2052                  {
   2053                    // Allocation error, stop
   2054                    status = ZDP_NO_ENTRY;
   \                     ??ZDO_MatchEndDeviceBind_13:
   \   0001EE   85..82       MOV     DPL,?XSP + 0
   \   0001F1   85..83       MOV     DPH,?XSP + 1
   \   0001F4   7488         MOV     A,#-0x78
   \   0001F6   F0           MOVX    @DPTR,A
   2055                    sendRsp = TRUE;
   \   0001F7   75..01       MOV     ?V0 + 2,#0x1
   2056                  }
   2057                }
   2058          
   2059                // Make a source match for ed2
   2060                matchED->ed2numMatched = ZDO_CompareClusterLists(
   2061                            matchED->ed2.numOutClusters, matchED->ed2.outClusters,
   2062                            matchED->ed1.numInClusters, matchED->ed1.inClusters, ZDOBuildBuf );
   \                     ??ZDO_MatchEndDeviceBind_12:
   \   0001FA   90....       MOV     DPTR,#matchED
   \   0001FD   E0           MOVX    A,@DPTR
   \   0001FE   2412         ADD     A,#0x12
   \   000200   F8           MOV     R0,A
   \   000201   A3           INC     DPTR
   \   000202   E0           MOVX    A,@DPTR
   \   000203   3400         ADDC    A,#0x0
   \   000205   F9           MOV     R1,A
   \   000206   8882         MOV     DPL,R0
   \   000208   8983         MOV     DPH,R1
   \   00020A   E0           MOVX    A,@DPTR
   \   00020B   FC           MOV     R4,A
   \   00020C   A3           INC     DPTR
   \   00020D   E0           MOVX    A,@DPTR
   \   00020E   FD           MOV     R5,A
   \   00020F   90....       MOV     DPTR,#matchED
   \   000212   E0           MOVX    A,@DPTR
   \   000213   2411         ADD     A,#0x11
   \   000215   18           DEC     R0
   \   000216   A3           INC     DPTR
   \   000217   E0           MOVX    A,@DPTR
   \   000218   3400         ADDC    A,#0x0
   \   00021A   F9           MOV     R1,A
   \   00021B   8882         MOV     DPL,R0
   \   00021D   8983         MOV     DPH,R1
   \   00021F   E0           MOVX    A,@DPTR
   \   000220   F5..         MOV     ?V0 + 5,A
   \   000222   90....       MOV     DPTR,#matchED
   \   000225   E0           MOVX    A,@DPTR
   \   000226   242B         ADD     A,#0x2b
   \   000228   F8           MOV     R0,A
   \   000229   A3           INC     DPTR
   \   00022A   E0           MOVX    A,@DPTR
   \   00022B   3400         ADDC    A,#0x0
   \   00022D   F9           MOV     R1,A
   \   00022E   8882         MOV     DPL,R0
   \   000230   8983         MOV     DPH,R1
   \   000232   E0           MOVX    A,@DPTR
   \   000233   F5..         MOV     ?V0 + 1,A
   \   000235   75..00       MOV     ?V0 + 4,#0x0
   \   000238   607A         JZ      ??ZDO_MatchEndDeviceBind_14
   \   00023A   90....       MOV     DPTR,#matchED
   \   00023D   E0           MOVX    A,@DPTR
   \   00023E   242C         ADD     A,#0x2c
   \   000240   08           INC     R0
   \   000241   A3           INC     DPTR
   \   000242   E0           MOVX    A,@DPTR
   \   000243   3400         ADDC    A,#0x0
   \   000245   F9           MOV     R1,A
   \   000246   8882         MOV     DPL,R0
   \   000248   8983         MOV     DPH,R1
   \   00024A   E0           MOVX    A,@DPTR
   \   00024B   FA           MOV     R2,A
   \   00024C   A3           INC     DPTR
   \   00024D   E0           MOVX    A,@DPTR
   \   00024E   FB           MOV     R3,A
   \   00024F   85....       MOV     ?V0 + 0,?V0 + 1
   \                     ??ZDO_MatchEndDeviceBind_15:
   \   000252   E5..         MOV     A,?V0 + 5
   \   000254   604F         JZ      ??ZDO_MatchEndDeviceBind_16
   \   000256   EC           MOV     A,R4
   \   000257   F8           MOV     R0,A
   \   000258   ED           MOV     A,R5
   \   000259   F9           MOV     R1,A
   \   00025A   85....       MOV     ?V0 + 1,?V0 + 5
   \                     ??ZDO_MatchEndDeviceBind_17:
   \   00025D   8882         MOV     DPL,R0
   \   00025F   8983         MOV     DPH,R1
   \   000261   E0           MOVX    A,@DPTR
   \   000262   F5..         MOV     ?V0 + 8,A
   \   000264   A3           INC     DPTR
   \   000265   E0           MOVX    A,@DPTR
   \   000266   F5..         MOV     ?V0 + 9,A
   \   000268   8A82         MOV     DPL,R2
   \   00026A   8B83         MOV     DPH,R3
   \   00026C   E0           MOVX    A,@DPTR
   \   00026D   65..         XRL     A,?V0 + 8
   \   00026F   7004         JNZ     ??ZDO_MatchEndDeviceBind_18
   \   000271   A3           INC     DPTR
   \   000272   E0           MOVX    A,@DPTR
   \   000273   65..         XRL     A,?V0 + 9
   \                     ??ZDO_MatchEndDeviceBind_18:
   \   000275   701F         JNZ     ??ZDO_MatchEndDeviceBind_19
   \   000277   E5..         MOV     A,?V0 + 4
   \   000279   C3           CLR     C
   \   00027A   33           RLC     A
   \   00027B   F5..         MOV     ?V0 + 10,A
   \   00027D   E4           CLR     A
   \   00027E   33           RLC     A
   \   00027F   F5..         MOV     ?V0 + 11,A
   \   000281   74..         MOV     A,#ZDOBuildBuf & 0xff
   \   000283   25..         ADD     A,?V0 + 10
   \   000285   F582         MOV     DPL,A
   \   000287   74..         MOV     A,#(ZDOBuildBuf >> 8) & 0xff
   \   000289   35..         ADDC    A,?V0 + 11
   \   00028B   F583         MOV     DPH,A
   \   00028D   E5..         MOV     A,?V0 + 8
   \   00028F   F0           MOVX    @DPTR,A
   \   000290   A3           INC     DPTR
   \   000291   E5..         MOV     A,?V0 + 9
   \   000293   F0           MOVX    @DPTR,A
   \   000294   05..         INC     ?V0 + 4
   \                     ??ZDO_MatchEndDeviceBind_19:
   \   000296   E8           MOV     A,R0
   \   000297   2402         ADD     A,#0x2
   \   000299   08           INC     R0
   \   00029A   08           INC     R0
   \   00029B   E9           MOV     A,R1
   \   00029C   3400         ADDC    A,#0x0
   \   00029E   F9           MOV     R1,A
   \   00029F   15..         DEC     ?V0 + 1
   \   0002A1   E5..         MOV     A,?V0 + 1
   \   0002A3   70B8         JNZ     ??ZDO_MatchEndDeviceBind_17
   \                     ??ZDO_MatchEndDeviceBind_16:
   \   0002A5   EA           MOV     A,R2
   \   0002A6   2402         ADD     A,#0x2
   \   0002A8   EB           MOV     A,R3
   \   0002A9   3400         ADDC    A,#0x0
   \   0002AB   0A           INC     R2
   \   0002AC   0A           INC     R2
   \   0002AD   FB           MOV     R3,A
   \   0002AE   15..         DEC     ?V0 + 0
   \   0002B0   E5..         MOV     A,?V0 + 0
   \   0002B2   709E         JNZ     ??ZDO_MatchEndDeviceBind_15
   \                     ??ZDO_MatchEndDeviceBind_14:
   \   0002B4   90....       MOV     DPTR,#matchED
   \   0002B7   E0           MOVX    A,@DPTR
   \   0002B8   2434         ADD     A,#0x34
   \   0002BA   F8           MOV     R0,A
   \   0002BB   A3           INC     DPTR
   \   0002BC   E0           MOVX    A,@DPTR
   \   0002BD   3400         ADDC    A,#0x0
   \   0002BF   F9           MOV     R1,A
   \   0002C0   8882         MOV     DPL,R0
   \   0002C2   8983         MOV     DPH,R1
   \   0002C4   E5..         MOV     A,?V0 + 4
   \   0002C6   F0           MOVX    @DPTR,A
   2063                if ( matchED->ed2numMatched )
   \   0002C7   90....       MOV     DPTR,#matchED
   \   0002CA   E0           MOVX    A,@DPTR
   \   0002CB   2434         ADD     A,#0x34
   \   0002CD   F8           MOV     R0,A
   \   0002CE   A3           INC     DPTR
   \   0002CF   E0           MOVX    A,@DPTR
   \   0002D0   3400         ADDC    A,#0x0
   \   0002D2   F9           MOV     R1,A
   \   0002D3   8882         MOV     DPL,R0
   \   0002D5   8983         MOV     DPH,R1
   \   0002D7   E0           MOVX    A,@DPTR
   \   0002D8   6054         JZ      ??ZDO_MatchEndDeviceBind_20
   2064                {
   2065                  // Save the match list
   2066                  matchED->ed2Matched = osal_mem_alloc( (short)(matchED->ed2numMatched * sizeof ( uint16 )) );
   \   0002DA                ; Setup parameters for call to function osal_mem_alloc
   \   0002DA   C3           CLR     C
   \   0002DB   33           RLC     A
   \   0002DC   FA           MOV     R2,A
   \   0002DD   E4           CLR     A
   \   0002DE   33           RLC     A
   \   0002DF   FB           MOV     R3,A
   \   0002E0   12....       LCALL   ??osal_mem_alloc?relay
   \   0002E3   90....       MOV     DPTR,#matchED
   \   0002E6   E0           MOVX    A,@DPTR
   \   0002E7   2435         ADD     A,#0x35
   \   0002E9   F8           MOV     R0,A
   \   0002EA   A3           INC     DPTR
   \   0002EB   E0           MOVX    A,@DPTR
   \   0002EC   3400         ADDC    A,#0x0
   \   0002EE   F9           MOV     R1,A
   \   0002EF   8882         MOV     DPL,R0
   \   0002F1   8983         MOV     DPH,R1
   \   0002F3   EA           MOV     A,R2
   \   0002F4   F0           MOVX    @DPTR,A
   \   0002F5   A3           INC     DPTR
   \   0002F6   EB           MOV     A,R3
   \   0002F7   F0           MOVX    @DPTR,A
   2067                  if ( matchED->ed2Matched )
   \   0002F8   8882         MOV     DPL,R0
   \   0002FA   8983         MOV     DPH,R1
   \   0002FC   E0           MOVX    A,@DPTR
   \   0002FD   FA           MOV     R2,A
   \   0002FE   4B           ORL     A,R3
   \   0002FF   6067         JZ      ??ZDO_MatchEndDeviceBind_21
   2068                  {
   2069                    osal_memcpy( matchED->ed2Matched, ZDOBuildBuf, (matchED->ed2numMatched * sizeof ( uint16 )) );
   \   000301                ; Setup parameters for call to function osal_memcpy
   \   000301   75....       MOV     ?V0 + 4,#ZDOBuildBuf & 0xff
   \   000304   75....       MOV     ?V0 + 5,#(ZDOBuildBuf >> 8) & 0xff
   \   000307   75..00       MOV     ?V0 + 6,#0x0
   \   00030A   78..         MOV     R0,#?V0 + 4
   \   00030C   12....       LCALL   ?PUSH_XSTACK_I_THREE
   \   00030F   90....       MOV     DPTR,#matchED
   \   000312   E0           MOVX    A,@DPTR
   \   000313   2434         ADD     A,#0x34
   \   000315   F8           MOV     R0,A
   \   000316   A3           INC     DPTR
   \   000317   E0           MOVX    A,@DPTR
   \   000318   3400         ADDC    A,#0x0
   \   00031A   F9           MOV     R1,A
   \   00031B   8882         MOV     DPL,R0
   \   00031D   8983         MOV     DPH,R1
   \   00031F   E0           MOVX    A,@DPTR
   \   000320   C3           CLR     C
   \   000321   33           RLC     A
   \   000322   FC           MOV     R4,A
   \   000323   E4           CLR     A
   \   000324   33           RLC     A
   \   000325   FD           MOV     R5,A
   \   000326   12....       LCALL   ??osal_memcpy?relay
   \   000329   7403         MOV     A,#0x3
   \   00032B   12....       LCALL   ?DEALLOC_XSTACK8
   2070                  }
   2071                  else
   2072                  {
   2073                    // Allocation error, stop
   2074                    status = ZDP_NO_ENTRY;
   2075                    sendRsp = TRUE;
   2076                  }
   2077                }
   2078          
   2079                if ( (sendRsp == FALSE) && (matchED->ed1numMatched || matchED->ed2numMatched) )
   \                     ??ZDO_MatchEndDeviceBind_20:
   \   00032E   E5..         MOV     A,?V0 + 2
   \   000330   A2E0         MOV     C,0xE0 /* A   */.0
   \   000332   4034         JC      ??ZDO_MatchEndDeviceBind_21
   \   000334   90....       MOV     DPTR,#matchED
   \   000337   E0           MOVX    A,@DPTR
   \   000338   2431         ADD     A,#0x31
   \   00033A   F8           MOV     R0,A
   \   00033B   A3           INC     DPTR
   \   00033C   E0           MOVX    A,@DPTR
   \   00033D   3400         ADDC    A,#0x0
   \   00033F   F9           MOV     R1,A
   \   000340   8882         MOV     DPL,R0
   \   000342   8983         MOV     DPH,R1
   \   000344   E0           MOVX    A,@DPTR
   \   000345   7015         JNZ     ??ZDO_MatchEndDeviceBind_22
   \   000347   90....       MOV     DPTR,#matchED
   \   00034A   E0           MOVX    A,@DPTR
   \   00034B   2434         ADD     A,#0x34
   \   00034D   08           INC     R0
   \   00034E   08           INC     R0
   \   00034F   08           INC     R0
   \   000350   A3           INC     DPTR
   \   000351   E0           MOVX    A,@DPTR
   \   000352   3400         ADDC    A,#0x0
   \   000354   F9           MOV     R1,A
   \   000355   8882         MOV     DPL,R0
   \   000357   8983         MOV     DPH,R1
   \   000359   E0           MOVX    A,@DPTR
   \   00035A   600C         JZ      ??ZDO_MatchEndDeviceBind_21
   2080                {
   2081                  // Do the first unbind/bind state
   2082                  ZDMatchSendState( ZDMATCH_REASON_START, ZDP_SUCCESS, 0 );
   \                     ??ZDO_MatchEndDeviceBind_22:
   \   00035C                ; Setup parameters for call to function ZDMatchSendState
   \   00035C   7B00         MOV     R3,#0x0
   \   00035E   7A00         MOV     R2,#0x0
   \   000360   7900         MOV     R1,#0x0
   \   000362   12....       LCALL   ??ZDMatchSendState?relay
   2083                }
   2084                else
   2085                {
   2086                  status = ZDP_NO_MATCH;
   2087                  sendRsp = TRUE;
   2088                }
   2089            }
   2090          
   2091            if ( sendRsp )
   \   000365   02....       LJMP    ??ZDO_MatchEndDeviceBind_4 & 0xFFFF
   \                     ??ZDO_MatchEndDeviceBind_21:
   \   000368   85..82       MOV     DPL,?XSP + 0
   \   00036B   85..83       MOV     DPH,?XSP + 1
   \   00036E   7486         MOV     A,#-0x7a
   \                     ??ZDO_MatchEndDeviceBind_3:
   \   000370   F0           MOVX    @DPTR,A
   2092            {
   2093              // send response to this requester
   2094              dstAddr.addrMode = Addr16Bit;
   \   000371   7409         MOV     A,#0x9
   \   000373   12....       LCALL   ?XSTACK_DISP0_8
   \   000376   7402         MOV     A,#0x2
   \   000378   F0           MOVX    @DPTR,A
   2095              dstAddr.addr.shortAddr = bindReq->srcAddr;
   \   000379   8E82         MOV     DPL,R6
   \   00037B   8F83         MOV     DPH,R7
   \   00037D   A3           INC     DPTR
   \   00037E   A3           INC     DPTR
   \   00037F   E0           MOVX    A,@DPTR
   \   000380   F8           MOV     R0,A
   \   000381   A3           INC     DPTR
   \   000382   E0           MOVX    A,@DPTR
   \   000383   F9           MOV     R1,A
   \   000384   7401         MOV     A,#0x1
   \   000386   12....       LCALL   ?XSTACK_DISP0_8
   \   000389   E8           MOV     A,R0
   \   00038A   F0           MOVX    @DPTR,A
   \   00038B   A3           INC     DPTR
   \   00038C   E9           MOV     A,R1
   \   00038D   F0           MOVX    @DPTR,A
   2096              ZDP_EndDeviceBindRsp( bindReq->TransSeq, &dstAddr, status, bindReq->SecurityUse );
   \   00038E                ; Setup parameters for call to function ZDP_SendData
   \   00038E   8E82         MOV     DPL,R6
   \   000390   8F83         MOV     DPH,R7
   \   000392   A3           INC     DPTR
   \   000393   E0           MOVX    A,@DPTR
   \   000394   F5..         MOV     ?V0 + 2,A
   \   000396   78..         MOV     R0,#?V0 + 2
   \   000398   12....       LCALL   ?PUSH_XSTACK_I_ONE
   \   00039B   7401         MOV     A,#0x1
   \   00039D   12....       LCALL   ?XSTACK_DISP0_8
   \   0003A0   8582..       MOV     ?V0 + 4,DPL
   \   0003A3   8583..       MOV     ?V0 + 5,DPH
   \   0003A6   78..         MOV     R0,#?V0 + 4
   \   0003A8   12....       LCALL   ?PUSH_XSTACK_I_TWO
   \   0003AB   75..20       MOV     ?V0 + 4,#0x20
   \   0003AE   75..80       MOV     ?V0 + 5,#-0x80
   \   0003B1   78..         MOV     R0,#?V0 + 4
   \   0003B3   12....       LCALL   ?PUSH_XSTACK_I_TWO
   \   0003B6   7901         MOV     R1,#0x1
   \   0003B8   7406         MOV     A,#0x6
   \   0003BA   12....       LCALL   ?XSTACK_DISP0_8
   \   0003BD   AC82         MOV     R4,DPL
   \   0003BF   AD83         MOV     R5,DPH
   \   0003C1   EE           MOV     A,R6
   \   0003C2   FA           MOV     R2,A
   \   0003C3   EF           MOV     A,R7
   \   0003C4   FB           MOV     R3,A
   \   0003C5   12....       LCALL   ??ZDP_SendData?relay
   \   0003C8   7405         MOV     A,#0x5
   \   0003CA   12....       LCALL   ?DEALLOC_XSTACK8
   2097          
   2098              if ( matchED->state == ZDMATCH_SENDING_BINDS )
   \   0003CD   90....       MOV     DPTR,#matchED
   \   0003D0   E0           MOVX    A,@DPTR
   \   0003D1   242E         ADD     A,#0x2e
   \   0003D3   F8           MOV     R0,A
   \   0003D4   A3           INC     DPTR
   \   0003D5   E0           MOVX    A,@DPTR
   \   0003D6   3400         ADDC    A,#0x0
   \   0003D8   F9           MOV     R1,A
   \   0003D9   8882         MOV     DPL,R0
   \   0003DB   8983         MOV     DPH,R1
   \   0003DD   E0           MOVX    A,@DPTR
   \   0003DE   6402         XRL     A,#0x2
   \   0003E0   706E         JNZ     ??ZDO_MatchEndDeviceBind_23
   2099              {
   2100                // send response to first requester
   2101                dstAddr.addrMode = Addr16Bit;
   \   0003E2   7409         MOV     A,#0x9
   \   0003E4   12....       LCALL   ?XSTACK_DISP0_8
   \   0003E7   7402         MOV     A,#0x2
   \   0003E9   F0           MOVX    @DPTR,A
   2102                dstAddr.addr.shortAddr = matchED->ed1.srcAddr;
   \   0003EA   90....       MOV     DPTR,#matchED
   \   0003ED   E0           MOVX    A,@DPTR
   \   0003EE   F8           MOV     R0,A
   \   0003EF   A3           INC     DPTR
   \   0003F0   E0           MOVX    A,@DPTR
   \   0003F1   F583         MOV     DPH,A
   \   0003F3   8882         MOV     DPL,R0
   \   0003F5   A3           INC     DPTR
   \   0003F6   A3           INC     DPTR
   \   0003F7   E0           MOVX    A,@DPTR
   \   0003F8   F8           MOV     R0,A
   \   0003F9   A3           INC     DPTR
   \   0003FA   E0           MOVX    A,@DPTR
   \   0003FB   F9           MOV     R1,A
   \   0003FC   7401         MOV     A,#0x1
   \   0003FE   12....       LCALL   ?XSTACK_DISP0_8
   \   000401   E8           MOV     A,R0
   \   000402   F0           MOVX    @DPTR,A
   \   000403   A3           INC     DPTR
   \   000404   E9           MOV     A,R1
   \   000405   F0           MOVX    @DPTR,A
   2103                ZDP_EndDeviceBindRsp( matchED->ed1.TransSeq, &dstAddr, status, matchED->ed1.SecurityUse );
   \   000406                ; Setup parameters for call to function ZDP_SendData
   \   000406   90....       MOV     DPTR,#matchED
   \   000409   E0           MOVX    A,@DPTR
   \   00040A   F8           MOV     R0,A
   \   00040B   A3           INC     DPTR
   \   00040C   E0           MOVX    A,@DPTR
   \   00040D   F583         MOV     DPH,A
   \   00040F   8882         MOV     DPL,R0
   \   000411   A3           INC     DPTR
   \   000412   E0           MOVX    A,@DPTR
   \   000413   F5..         MOV     ?V0 + 2,A
   \   000415   78..         MOV     R0,#?V0 + 2
   \   000417   12....       LCALL   ?PUSH_XSTACK_I_ONE
   \   00041A   7401         MOV     A,#0x1
   \   00041C   12....       LCALL   ?XSTACK_DISP0_8
   \   00041F   8582..       MOV     ?V0 + 4,DPL
   \   000422   8583..       MOV     ?V0 + 5,DPH
   \   000425   78..         MOV     R0,#?V0 + 4
   \   000427   12....       LCALL   ?PUSH_XSTACK_I_TWO
   \   00042A   75..20       MOV     ?V0 + 4,#0x20
   \   00042D   75..80       MOV     ?V0 + 5,#-0x80
   \   000430   78..         MOV     R0,#?V0 + 4
   \   000432   12....       LCALL   ?PUSH_XSTACK_I_TWO
   \   000435   7901         MOV     R1,#0x1
   \   000437   7406         MOV     A,#0x6
   \   000439   12....       LCALL   ?XSTACK_DISP0_8
   \   00043C   AC82         MOV     R4,DPL
   \   00043E   AD83         MOV     R5,DPH
   \   000440   90....       MOV     DPTR,#matchED
   \   000443   E0           MOVX    A,@DPTR
   \   000444   FA           MOV     R2,A
   \   000445   A3           INC     DPTR
   \   000446   E0           MOVX    A,@DPTR
   \   000447   FB           MOV     R3,A
   \   000448   12....       LCALL   ??ZDP_SendData?relay
   \   00044B   7405         MOV     A,#0x5
   \   00044D   12....       LCALL   ?DEALLOC_XSTACK8
   2104              }
   2105          
   2106              // Process ended - release memory used
   2107              ZDO_RemoveMatchMemory();
   \                     ??ZDO_MatchEndDeviceBind_23:
   \   000450                ; Setup parameters for call to function ZDO_RemoveMatchMemory
   \   000450   12....       LCALL   ??ZDO_RemoveMatchMemory?relay
   2108            }
   2109          }
   \                     ??ZDO_MatchEndDeviceBind_4:
   \   000453   740A         MOV     A,#0xa
   \   000455   02....       LJMP    ?Subroutine7 & 0xFFFF
   2110          
   2111          /*********************************************************************
   2112           * @fn      ZDO_RemoveMatchMemory()
   2113           *
   2114           * @brief   Called to clear the memory used for the end device bind.
   2115           *
   2116           * @param  none
   2117           *
   2118           * @return  none
   2119           */

   \                                 In  segment BANKED_CODE, align 1, keep-with-next
   2120          static void ZDO_RemoveMatchMemory( void )
   \                     ZDO_RemoveMatchMemory:
   2121          {
   \   000000   C082         PUSH    DPL
   \   000002   C083         PUSH    DPH
   \   000004                ; Saved register size: 2
   \   000004                ; Auto size: 0
   2122            if ( matchED != NULL )
   \   000004   90....       MOV     DPTR,#matchED
   \   000007   E0           MOVX    A,@DPTR
   \   000008   F8           MOV     R0,A
   \   000009   A3           INC     DPTR
   \   00000A   E0           MOVX    A,@DPTR
   \   00000B   F9           MOV     R1,A
   \   00000C   E8           MOV     A,R0
   \   00000D   49           ORL     A,R1
   \   00000E   7003         JNZ     $+5
   \   000010   02....       LJMP    ??ZDO_RemoveMatchMemory_0 & 0xFFFF
   2123            {
   2124              if ( matchED->ed2Matched != NULL )
   \   000013   90....       MOV     DPTR,#matchED
   \   000016   E0           MOVX    A,@DPTR
   \   000017   2435         ADD     A,#0x35
   \   000019   F8           MOV     R0,A
   \   00001A   A3           INC     DPTR
   \   00001B   E0           MOVX    A,@DPTR
   \   00001C   3400         ADDC    A,#0x0
   \   00001E   F9           MOV     R1,A
   \   00001F   8882         MOV     DPL,R0
   \   000021   8983         MOV     DPH,R1
   \   000023   E0           MOVX    A,@DPTR
   \   000024   FA           MOV     R2,A
   \   000025   A3           INC     DPTR
   \   000026   E0           MOVX    A,@DPTR
   \   000027   FB           MOV     R3,A
   \   000028   EA           MOV     A,R2
   \   000029   4B           ORL     A,R3
   \   00002A   6003         JZ      ??ZDO_RemoveMatchMemory_1
   2125                osal_mem_free( matchED->ed2Matched );
   \   00002C                ; Setup parameters for call to function osal_mem_free
   \   00002C   12....       LCALL   ??osal_mem_free?relay
   2126              if ( matchED->ed1Matched != NULL )
   \                     ??ZDO_RemoveMatchMemory_1:
   \   00002F   90....       MOV     DPTR,#matchED
   \   000032   E0           MOVX    A,@DPTR
   \   000033   2432         ADD     A,#0x32
   \   000035   F8           MOV     R0,A
   \   000036   A3           INC     DPTR
   \   000037   E0           MOVX    A,@DPTR
   \   000038   3400         ADDC    A,#0x0
   \   00003A   F9           MOV     R1,A
   \   00003B   8882         MOV     DPL,R0
   \   00003D   8983         MOV     DPH,R1
   \   00003F   E0           MOVX    A,@DPTR
   \   000040   FA           MOV     R2,A
   \   000041   A3           INC     DPTR
   \   000042   E0           MOVX    A,@DPTR
   \   000043   FB           MOV     R3,A
   \   000044   EA           MOV     A,R2
   \   000045   4B           ORL     A,R3
   \   000046   6003         JZ      ??ZDO_RemoveMatchMemory_2
   2127                osal_mem_free( matchED->ed1Matched );
   \   000048                ; Setup parameters for call to function osal_mem_free
   \   000048   12....       LCALL   ??osal_mem_free?relay
   2128          
   2129              if ( matchED->ed1.inClusters != NULL )
   \                     ??ZDO_RemoveMatchMemory_2:
   \   00004B   90....       MOV     DPTR,#matchED
   \   00004E   E0           MOVX    A,@DPTR
   \   00004F   2412         ADD     A,#0x12
   \   000051   F8           MOV     R0,A
   \   000052   A3           INC     DPTR
   \   000053   E0           MOVX    A,@DPTR
   \   000054   3400         ADDC    A,#0x0
   \   000056   F9           MOV     R1,A
   \   000057   8882         MOV     DPL,R0
   \   000059   8983         MOV     DPH,R1
   \   00005B   E0           MOVX    A,@DPTR
   \   00005C   FA           MOV     R2,A
   \   00005D   A3           INC     DPTR
   \   00005E   E0           MOVX    A,@DPTR
   \   00005F   FB           MOV     R3,A
   \   000060   EA           MOV     A,R2
   \   000061   4B           ORL     A,R3
   \   000062   6003         JZ      ??ZDO_RemoveMatchMemory_3
   2130                osal_mem_free( matchED->ed1.inClusters );
   \   000064                ; Setup parameters for call to function osal_mem_free
   \   000064   12....       LCALL   ??osal_mem_free?relay
   2131          
   2132              if ( matchED->ed1.outClusters != NULL )
   \                     ??ZDO_RemoveMatchMemory_3:
   \   000067   90....       MOV     DPTR,#matchED
   \   00006A   E0           MOVX    A,@DPTR
   \   00006B   2415         ADD     A,#0x15
   \   00006D   F8           MOV     R0,A
   \   00006E   A3           INC     DPTR
   \   00006F   E0           MOVX    A,@DPTR
   \   000070   3400         ADDC    A,#0x0
   \   000072   F9           MOV     R1,A
   \   000073   8882         MOV     DPL,R0
   \   000075   8983         MOV     DPH,R1
   \   000077   E0           MOVX    A,@DPTR
   \   000078   FA           MOV     R2,A
   \   000079   A3           INC     DPTR
   \   00007A   E0           MOVX    A,@DPTR
   \   00007B   FB           MOV     R3,A
   \   00007C   EA           MOV     A,R2
   \   00007D   4B           ORL     A,R3
   \   00007E   6003         JZ      ??ZDO_RemoveMatchMemory_4
   2133                osal_mem_free( matchED->ed1.outClusters );
   \   000080                ; Setup parameters for call to function osal_mem_free
   \   000080   12....       LCALL   ??osal_mem_free?relay
   2134          
   2135              if ( matchED->ed2.inClusters != NULL )
   \                     ??ZDO_RemoveMatchMemory_4:
   \   000083   90....       MOV     DPTR,#matchED
   \   000086   E0           MOVX    A,@DPTR
   \   000087   2429         ADD     A,#0x29
   \   000089   F8           MOV     R0,A
   \   00008A   A3           INC     DPTR
   \   00008B   E0           MOVX    A,@DPTR
   \   00008C   3400         ADDC    A,#0x0
   \   00008E   F9           MOV     R1,A
   \   00008F   8882         MOV     DPL,R0
   \   000091   8983         MOV     DPH,R1
   \   000093   E0           MOVX    A,@DPTR
   \   000094   FA           MOV     R2,A
   \   000095   A3           INC     DPTR
   \   000096   E0           MOVX    A,@DPTR
   \   000097   FB           MOV     R3,A
   \   000098   EA           MOV     A,R2
   \   000099   4B           ORL     A,R3
   \   00009A   6003         JZ      ??ZDO_RemoveMatchMemory_5
   2136                osal_mem_free( matchED->ed2.inClusters );
   \   00009C                ; Setup parameters for call to function osal_mem_free
   \   00009C   12....       LCALL   ??osal_mem_free?relay
   2137          
   2138              if ( matchED->ed2.outClusters != NULL )
   \                     ??ZDO_RemoveMatchMemory_5:
   \   00009F   90....       MOV     DPTR,#matchED
   \   0000A2   E0           MOVX    A,@DPTR
   \   0000A3   242C         ADD     A,#0x2c
   \   0000A5   F8           MOV     R0,A
   \   0000A6   A3           INC     DPTR
   \   0000A7   E0           MOVX    A,@DPTR
   \   0000A8   3400         ADDC    A,#0x0
   \   0000AA   F9           MOV     R1,A
   \   0000AB   8882         MOV     DPL,R0
   \   0000AD   8983         MOV     DPH,R1
   \   0000AF   E0           MOVX    A,@DPTR
   \   0000B0   FA           MOV     R2,A
   \   0000B1   A3           INC     DPTR
   \   0000B2   E0           MOVX    A,@DPTR
   \   0000B3   FB           MOV     R3,A
   \   0000B4   EA           MOV     A,R2
   \   0000B5   4B           ORL     A,R3
   \   0000B6   6003         JZ      ??ZDO_RemoveMatchMemory_6
   2139                osal_mem_free( matchED->ed2.outClusters );
   \   0000B8                ; Setup parameters for call to function osal_mem_free
   \   0000B8   12....       LCALL   ??osal_mem_free?relay
   2140          
   2141              osal_mem_free( matchED );
   \                     ??ZDO_RemoveMatchMemory_6:
   \   0000BB                ; Setup parameters for call to function osal_mem_free
   \   0000BB   90....       MOV     DPTR,#matchED
   \   0000BE   E0           MOVX    A,@DPTR
   \   0000BF   FA           MOV     R2,A
   \   0000C0   A3           INC     DPTR
   \   0000C1   E0           MOVX    A,@DPTR
   \   0000C2   FB           MOV     R3,A
   \   0000C3   12....       LCALL   ??osal_mem_free?relay
   2142          
   2143              matchED = (ZDMatchEndDeviceBind_t *)NULL;
   \   0000C6   90....       MOV     DPTR,#matchED
   \   0000C9   E4           CLR     A
   \   0000CA   F0           MOVX    @DPTR,A
   \   0000CB   A3           INC     DPTR
   \   0000CC   F0           MOVX    @DPTR,A
   2144            }
   2145          }
   \                     ??ZDO_RemoveMatchMemory_0:
   \   0000CD                REQUIRE ?Subroutine0
   \   0000CD                ; // Fall through to label ?Subroutine0
   2146          
   2147          /*********************************************************************
   2148           * @fn      ZDO_CopyMatchInfo()
   2149           *
   2150           * @brief   Called to copy memory used for the end device bind.
   2151           *
   2152           * @param  srcReq - source information
   2153           * @param  dstReq - destination location
   2154           *
   2155           * @return  TRUE if copy was successful.
   2156           */

   \                                 In  segment BANKED_CODE, align 1, keep-with-next
   2157          static uint8 ZDO_CopyMatchInfo( ZDEndDeviceBind_t *destReq, ZDEndDeviceBind_t *srcReq )
   \                     ZDO_CopyMatchInfo:
   2158          {
   \   000000   74EC         MOV     A,#-0x14
   \   000002   12....       LCALL   ?BANKED_ENTER_XDATA
   \   000005                ; Saved register size: 20
   \   000005                ; Auto size: 0
   \   000005   EA           MOV     A,R2
   \   000006   FE           MOV     R6,A
   \   000007   EB           MOV     A,R3
   \   000008   FF           MOV     R7,A
   \   000009   8C..         MOV     ?V0 + 0,R4
   \   00000B   8D..         MOV     ?V0 + 1,R5
   2159            uint8 allOK = TRUE;
   \   00000D   75..01       MOV     ?V0 + 2,#0x1
   2160          
   2161            // Copy bind information into the match info structure
   2162            osal_memcpy( (uint8 *)destReq, srcReq, sizeof ( ZDEndDeviceBind_t ) );
   \   000010                ; Setup parameters for call to function osal_memcpy
   \   000010   8C..         MOV     ?V0 + 4,R4
   \   000012   8D..         MOV     ?V0 + 5,R5
   \   000014   75..00       MOV     ?V0 + 6,#0x0
   \   000017   78..         MOV     R0,#?V0 + 4
   \   000019   12....       LCALL   ?PUSH_XSTACK_I_THREE
   \   00001C   7C17         MOV     R4,#0x17
   \   00001E   7D00         MOV     R5,#0x0
   \   000020   12....       LCALL   ??osal_memcpy?relay
   \   000023   7403         MOV     A,#0x3
   \   000025   12....       LCALL   ?DEALLOC_XSTACK8
   2163          
   2164            // Initialize the destination cluster pointers
   2165            destReq->inClusters = NULL;
   \   000028   EE           MOV     A,R6
   \   000029   2412         ADD     A,#0x12
   \   00002B   F5..         MOV     ?V0 + 8,A
   \   00002D   EF           MOV     A,R7
   \   00002E   3400         ADDC    A,#0x0
   \   000030   F5..         MOV     ?V0 + 9,A
   \   000032   85..82       MOV     DPL,?V0 + 8
   \   000035   F583         MOV     DPH,A
   \   000037   E4           CLR     A
   \   000038   F0           MOVX    @DPTR,A
   \   000039   A3           INC     DPTR
   \   00003A   F0           MOVX    @DPTR,A
   2166            destReq->outClusters = NULL;
   \   00003B   EE           MOV     A,R6
   \   00003C   2415         ADD     A,#0x15
   \   00003E   FE           MOV     R6,A
   \   00003F   EF           MOV     A,R7
   \   000040   3400         ADDC    A,#0x0
   \   000042   FF           MOV     R7,A
   \   000043   8E82         MOV     DPL,R6
   \   000045   8F83         MOV     DPH,R7
   \   000047   E4           CLR     A
   \   000048   F0           MOVX    @DPTR,A
   \   000049   A3           INC     DPTR
   \   00004A   F0           MOVX    @DPTR,A
   2167          
   2168            // Copy input cluster IDs
   2169            if ( srcReq->numInClusters )
   \   00004B   E5..         MOV     A,?V0 + 0
   \   00004D   2411         ADD     A,#0x11
   \   00004F   F5..         MOV     ?V0 + 10,A
   \   000051   E5..         MOV     A,?V0 + 1
   \   000053   3400         ADDC    A,#0x0
   \   000055   F5..         MOV     ?V0 + 11,A
   \   000057   85..82       MOV     DPL,?V0 + 10
   \   00005A   F583         MOV     DPH,A
   \   00005C   E0           MOVX    A,@DPTR
   \   00005D   6051         JZ      ??ZDO_CopyMatchInfo_0
   2170            {
   2171              destReq->inClusters = osal_mem_alloc( (short)(srcReq->numInClusters * sizeof ( uint16 )) );
   \   00005F                ; Setup parameters for call to function osal_mem_alloc
   \   00005F   C3           CLR     C
   \   000060   33           RLC     A
   \   000061   FA           MOV     R2,A
   \   000062   E4           CLR     A
   \   000063   33           RLC     A
   \   000064   FB           MOV     R3,A
   \   000065   12....       LCALL   ??osal_mem_alloc?relay
   \   000068   85..82       MOV     DPL,?V0 + 8
   \   00006B   85..83       MOV     DPH,?V0 + 9
   \   00006E   EA           MOV     A,R2
   \   00006F   F0           MOVX    @DPTR,A
   \   000070   A3           INC     DPTR
   \   000071   EB           MOV     A,R3
   \   000072   F0           MOVX    @DPTR,A
   2172              if ( destReq->inClusters )
   \   000073   85..82       MOV     DPL,?V0 + 8
   \   000076   85..83       MOV     DPH,?V0 + 9
   \   000079   E0           MOVX    A,@DPTR
   \   00007A   FA           MOV     R2,A
   \   00007B   4B           ORL     A,R3
   \   00007C   602F         JZ      ??ZDO_CopyMatchInfo_1
   2173              {
   2174                // Copy the clusters
   2175                osal_memcpy( (uint8*)(destReq->inClusters), (uint8 *)(srcReq->inClusters),
   2176                                (srcReq->numInClusters * sizeof ( uint16 )) );
   \   00007E                ; Setup parameters for call to function osal_memcpy
   \   00007E   E5..         MOV     A,?V0 + 0
   \   000080   2412         ADD     A,#0x12
   \   000082   F582         MOV     DPL,A
   \   000084   E5..         MOV     A,?V0 + 1
   \   000086   3400         ADDC    A,#0x0
   \   000088   F583         MOV     DPH,A
   \   00008A   E0           MOVX    A,@DPTR
   \   00008B   F5..         MOV     ?V0 + 4,A
   \   00008D   A3           INC     DPTR
   \   00008E   E0           MOVX    A,@DPTR
   \   00008F   F5..         MOV     ?V0 + 5,A
   \   000091   78..         MOV     R0,#?V0 + 4
   \   000093   12....       LCALL   ?PUSH_XSTACK_I_THREE
   \   000096   85..82       MOV     DPL,?V0 + 10
   \   000099   85..83       MOV     DPH,?V0 + 11
   \   00009C   E0           MOVX    A,@DPTR
   \   00009D   C3           CLR     C
   \   00009E   33           RLC     A
   \   00009F   FC           MOV     R4,A
   \   0000A0   E4           CLR     A
   \   0000A1   33           RLC     A
   \   0000A2   FD           MOV     R5,A
   \   0000A3   12....       LCALL   ??osal_memcpy?relay
   \   0000A6   7403         MOV     A,#0x3
   \   0000A8   12....       LCALL   ?DEALLOC_XSTACK8
   \   0000AB   8003         SJMP    ??ZDO_CopyMatchInfo_0
   2177              }
   2178              else
   2179                allOK = FALSE;
   \                     ??ZDO_CopyMatchInfo_1:
   \   0000AD   75..00       MOV     ?V0 + 2,#0x0
   2180            }
   2181          
   2182            // Copy output cluster IDs
   2183            if ( srcReq->numOutClusters )
   \                     ??ZDO_CopyMatchInfo_0:
   \   0000B0   E5..         MOV     A,?V0 + 0
   \   0000B2   2414         ADD     A,#0x14
   \   0000B4   F5..         MOV     ?V0 + 10,A
   \   0000B6   E5..         MOV     A,?V0 + 1
   \   0000B8   3400         ADDC    A,#0x0
   \   0000BA   F5..         MOV     ?V0 + 11,A
   \   0000BC   85..82       MOV     DPL,?V0 + 10
   \   0000BF   F583         MOV     DPH,A
   \   0000C1   E0           MOVX    A,@DPTR
   \   0000C2   6048         JZ      ??ZDO_CopyMatchInfo_2
   2184            {
   2185              destReq->outClusters = osal_mem_alloc( (short)(srcReq->numOutClusters * sizeof ( uint16 )) );
   \   0000C4                ; Setup parameters for call to function osal_mem_alloc
   \   0000C4   C3           CLR     C
   \   0000C5   33           RLC     A
   \   0000C6   FA           MOV     R2,A
   \   0000C7   E4           CLR     A
   \   0000C8   33           RLC     A
   \   0000C9   FB           MOV     R3,A
   \   0000CA   12....       LCALL   ??osal_mem_alloc?relay
   \   0000CD   8E82         MOV     DPL,R6
   \   0000CF   8F83         MOV     DPH,R7
   \   0000D1   EA           MOV     A,R2
   \   0000D2   F0           MOVX    @DPTR,A
   \   0000D3   A3           INC     DPTR
   \   0000D4   EB           MOV     A,R3
   \   0000D5   F0           MOVX    @DPTR,A
   2186              if ( destReq->outClusters )
   \   0000D6   8E82         MOV     DPL,R6
   \   0000D8   8F83         MOV     DPH,R7
   \   0000DA   E0           MOVX    A,@DPTR
   \   0000DB   FA           MOV     R2,A
   \   0000DC   4B           ORL     A,R3
   \   0000DD   605A         JZ      ??ZDO_CopyMatchInfo_3
   2187              {
   2188                // Copy the clusters
   2189                osal_memcpy( (uint8 *)(destReq->outClusters), (uint8 *)(srcReq->outClusters),
   2190                                (srcReq->numOutClusters * sizeof ( uint16 )) );
   \   0000DF                ; Setup parameters for call to function osal_memcpy
   \   0000DF   E5..         MOV     A,?V0 + 0
   \   0000E1   2415         ADD     A,#0x15
   \   0000E3   F582         MOV     DPL,A
   \   0000E5   E5..         MOV     A,?V0 + 1
   \   0000E7   3400         ADDC    A,#0x0
   \   0000E9   F583         MOV     DPH,A
   \   0000EB   E0           MOVX    A,@DPTR
   \   0000EC   F5..         MOV     ?V0 + 4,A
   \   0000EE   A3           INC     DPTR
   \   0000EF   E0           MOVX    A,@DPTR
   \   0000F0   F5..         MOV     ?V0 + 5,A
   \   0000F2   78..         MOV     R0,#?V0 + 4
   \   0000F4   12....       LCALL   ?PUSH_XSTACK_I_THREE
   \   0000F7   85..82       MOV     DPL,?V0 + 10
   \   0000FA   85..83       MOV     DPH,?V0 + 11
   \   0000FD   E0           MOVX    A,@DPTR
   \   0000FE   C3           CLR     C
   \   0000FF   33           RLC     A
   \   000100   FC           MOV     R4,A
   \   000101   E4           CLR     A
   \   000102   33           RLC     A
   \   000103   FD           MOV     R5,A
   \   000104   12....       LCALL   ??osal_memcpy?relay
   \   000107   7403         MOV     A,#0x3
   \   000109   12....       LCALL   ?DEALLOC_XSTACK8
   2191              }
   2192              else
   2193                allOK = FALSE;
   2194            }
   2195          
   2196            if ( !allOK )
   \                     ??ZDO_CopyMatchInfo_2:
   \   00010C   E5..         MOV     A,?V0 + 2
   \   00010E   A2E0         MOV     C,0xE0 /* A   */.0
   \   000110   4022         JC      ??ZDO_CopyMatchInfo_4
   2197            {
   2198              if ( destReq->inClusters != NULL )
   \                     ??ZDO_CopyMatchInfo_5:
   \   000112   85..82       MOV     DPL,?V0 + 8
   \   000115   85..83       MOV     DPH,?V0 + 9
   \   000118   E0           MOVX    A,@DPTR
   \   000119   FA           MOV     R2,A
   \   00011A   A3           INC     DPTR
   \   00011B   E0           MOVX    A,@DPTR
   \   00011C   FB           MOV     R3,A
   \   00011D   EA           MOV     A,R2
   \   00011E   4B           ORL     A,R3
   \   00011F   6003         JZ      ??ZDO_CopyMatchInfo_6
   2199                osal_mem_free( destReq->inClusters );
   \   000121                ; Setup parameters for call to function osal_mem_free
   \   000121   12....       LCALL   ??osal_mem_free?relay
   2200              if ( destReq->outClusters != NULL )
   \                     ??ZDO_CopyMatchInfo_6:
   \   000124   8E82         MOV     DPL,R6
   \   000126   8F83         MOV     DPH,R7
   \   000128   E0           MOVX    A,@DPTR
   \   000129   FA           MOV     R2,A
   \   00012A   A3           INC     DPTR
   \   00012B   E0           MOVX    A,@DPTR
   \   00012C   FB           MOV     R3,A
   \   00012D   EA           MOV     A,R2
   \   00012E   4B           ORL     A,R3
   \   00012F   6003         JZ      ??ZDO_CopyMatchInfo_4
   2201                osal_mem_free( destReq->outClusters );
   \   000131                ; Setup parameters for call to function osal_mem_free
   \   000131   12....       LCALL   ??osal_mem_free?relay
   2202            }
   2203          
   2204            return ( allOK );
   \                     ??ZDO_CopyMatchInfo_4:
   \   000134   A9..         MOV     R1,?V0 + 2
   \   000136   02....       LJMP    ??Subroutine14_0 & 0xFFFF
   \                     ??ZDO_CopyMatchInfo_3:
   \   000139   75..00       MOV     ?V0 + 2,#0x0
   \   00013C   80D4         SJMP    ??ZDO_CopyMatchInfo_5
   2205          }
   2206          
   2207          /*********************************************************************
   2208           * @fn      ZDMatchSendState()
   2209           *
   2210           * @brief   State machine for the End device match message algorithm.
   2211           *
   2212           * @param  reason - state of algoritm
   2213           * @param  status - initial message status
   2214           * @param  TransSeq - next transaction sequence number
   2215           *
   2216           * @return  FALSE if error and we are not currently matching, TRUE
   2217           *          if success.
   2218           */

   \                                 In  segment BANKED_CODE, align 1, keep-with-next
   2219          uint8 ZDMatchSendState( uint8 reason, uint8 status, uint8 TransSeq )
   \                     ZDMatchSendState:
   2220          {
   \   000000   74EE         MOV     A,#-0x12
   \   000002   12....       LCALL   ?BANKED_ENTER_XDATA
   \   000005                ; Saved register size: 18
   \   000005                ; Auto size: 19
   \   000005   74ED         MOV     A,#-0x13
   \   000007   12....       LCALL   ?ALLOC_XSTACK8
   \   00000A   89..         MOV     ?V0 + 2,R1
   \   00000C   8A..         MOV     ?V0 + 6,R2
   \   00000E   8B..         MOV     ?V0 + 7,R3
   2221            uint8 *dstIEEEAddr = NULL;
   \   000010   75..00       MOV     ?V0 + 4,#0x0
   \   000013   75..00       MOV     ?V0 + 5,#0x0
   2222            uint8 dstEP = 0xFF;
   \   000016   75..FF       MOV     ?V0 + 3,#-0x1
   2223            zAddrType_t dstAddr;
   2224            zAddrType_t destinationAddr;
   2225            uint16 msgType;
   2226            uint16 clusterID = 0xFFFF;
   \   000019   75..FF       MOV     ?V0 + 8,#-0x1
   \   00001C   75..FF       MOV     ?V0 + 9,#-0x1
   2227            ZDEndDeviceBind_t *ed = NULL;
   \   00001F   75..00       MOV     ?V0 + 0,#0x0
   \   000022   75..00       MOV     ?V0 + 1,#0x0
   2228            uint8 rspStatus = ZDP_SUCCESS;
   \   000025   85..82       MOV     DPL,?XSP + 0
   \   000028   85..83       MOV     DPH,?XSP + 1
   \   00002B   E4           CLR     A
   \   00002C   F0           MOVX    @DPTR,A
   2229          
   2230            if ( matchED == NULL )
   \   00002D   90....       MOV     DPTR,#matchED
   \   000030   E0           MOVX    A,@DPTR
   \   000031   F8           MOV     R0,A
   \   000032   A3           INC     DPTR
   \   000033   E0           MOVX    A,@DPTR
   \   000034   F9           MOV     R1,A
   \   000035   E8           MOV     A,R0
   \   000036   49           ORL     A,R1
   \   000037   7005         JNZ     ??ZDMatchSendState_0
   2231              return ( FALSE );
   \                     ??ZDMatchSendState_1:
   \   000039   7900         MOV     R1,#0x0
   \   00003B   02....       LJMP    ??ZDMatchSendState_2 & 0xFFFF
   2232          
   2233            // Check sequence number
   2234            if ( reason == ZDMATCH_REASON_BIND_RSP || reason == ZDMATCH_REASON_UNBIND_RSP )
   \                     ??ZDMatchSendState_0:
   \   00003E   7403         MOV     A,#0x3
   \   000040   65..         XRL     A,?V0 + 2
   \   000042   6006         JZ      ??ZDMatchSendState_3
   \   000044   7402         MOV     A,#0x2
   \   000046   65..         XRL     A,?V0 + 2
   \   000048   7015         JNZ     ??ZDMatchSendState_4
   2235            {
   2236              if ( TransSeq != matchED->transSeq )
   \                     ??ZDMatchSendState_3:
   \   00004A   90....       MOV     DPTR,#matchED
   \   00004D   E0           MOVX    A,@DPTR
   \   00004E   2430         ADD     A,#0x30
   \   000050   F8           MOV     R0,A
   \   000051   A3           INC     DPTR
   \   000052   E0           MOVX    A,@DPTR
   \   000053   3400         ADDC    A,#0x0
   \   000055   F9           MOV     R1,A
   \   000056   8882         MOV     DPL,R0
   \   000058   8983         MOV     DPH,R1
   \   00005A   E0           MOVX    A,@DPTR
   \   00005B   65..         XRL     A,?V0 + 7
   \   00005D   70DA         JNZ     ??ZDMatchSendState_1
   2237                return( FALSE ); // ignore the message
   2238            }
   2239          
   2240            // turn off timer
   2241            APS_SetEndDeviceBindTimeout( 0, ZDO_EndDeviceBindMatchTimeoutCB );
   \                     ??ZDMatchSendState_4:
   \   00005F                ; Setup parameters for call to function APS_SetEndDeviceBindTimeout
   \   00005F   7C..         MOV     R4,#??ZDO_EndDeviceBindMatchTimeoutCB?relay & 0xff
   \   000061   7D..         MOV     R5,#(??ZDO_EndDeviceBindMatchTimeoutCB?relay >> 8) & 0xff
   \   000063   7A00         MOV     R2,#0x0
   \   000065   7B00         MOV     R3,#0x0
   \   000067   12....       LCALL   ??APS_SetEndDeviceBindTimeout?relay
   2242          
   2243            if ( reason == ZDMATCH_REASON_TIMEOUT )
   \   00006A   7401         MOV     A,#0x1
   \   00006C   65..         XRL     A,?V0 + 2
   \   00006E   700B         JNZ     ??ZDMatchSendState_5
   2244            {
   2245              rspStatus = ZDP_TIMEOUT;    // The process will stop
   \   000070   85..82       MOV     DPL,?XSP + 0
   \   000073   85..83       MOV     DPH,?XSP + 1
   \   000076   7485         MOV     A,#-0x7b
   \                     ??ZDMatchSendState_6:
   \   000078   F0           MOVX    @DPTR,A
   \   000079   8055         SJMP    ??ZDMatchSendState_7
   2246            }
   2247          
   2248            if ( reason == ZDMATCH_REASON_START || reason == ZDMATCH_REASON_BIND_RSP )
   \                     ??ZDMatchSendState_5:
   \   00007B   E5..         MOV     A,?V0 + 2
   \   00007D   6006         JZ      ??ZDMatchSendState_8
   \   00007F   7403         MOV     A,#0x3
   \   000081   65..         XRL     A,?V0 + 2
   \   000083   7025         JNZ     ??ZDMatchSendState_9
   2249            {
   2250              matchED->sending = ZDMATCH_SENDING_UNBIND;
   \                     ??ZDMatchSendState_8:
   \   000085   90....       MOV     DPTR,#matchED
   \   000088   E0           MOVX    A,@DPTR
   \   000089   242F         ADD     A,#0x2f
   \   00008B   F8           MOV     R0,A
   \   00008C   A3           INC     DPTR
   \   00008D   E0           MOVX    A,@DPTR
   \   00008E   3400         ADDC    A,#0x0
   \   000090   F9           MOV     R1,A
   \   000091   8882         MOV     DPL,R0
   \   000093   8983         MOV     DPH,R1
   \   000095   7401         MOV     A,#0x1
   \   000097   F0           MOVX    @DPTR,A
   2251          
   2252              if ( reason == ZDMATCH_REASON_BIND_RSP && status != ZDP_SUCCESS )
   \   000098   7403         MOV     A,#0x3
   \   00009A   65..         XRL     A,?V0 + 2
   \   00009C   702E         JNZ     ??ZDMatchSendState_10
   \   00009E   E5..         MOV     A,?V0 + 6
   \   0000A0   602E         JZ      ??ZDMatchSendState_7
   2253              {
   2254                rspStatus = status;
   \   0000A2   85..82       MOV     DPL,?XSP + 0
   \   0000A5   85..83       MOV     DPH,?XSP + 1
   \   0000A8   80CE         SJMP    ??ZDMatchSendState_6
   2255              }
   2256            }
   2257            else if ( reason == ZDMATCH_REASON_UNBIND_RSP )
   \                     ??ZDMatchSendState_9:
   \   0000AA   7402         MOV     A,#0x2
   \   0000AC   65..         XRL     A,?V0 + 2
   \   0000AE   7020         JNZ     ??ZDMatchSendState_7
   2258            {
   2259              if ( status == ZDP_SUCCESS )
   \   0000B0   90....       MOV     DPTR,#matchED
   \   0000B3   E0           MOVX    A,@DPTR
   \   0000B4   242F         ADD     A,#0x2f
   \   0000B6   F8           MOV     R0,A
   \   0000B7   A3           INC     DPTR
   \   0000B8   E0           MOVX    A,@DPTR
   \   0000B9   3400         ADDC    A,#0x0
   \   0000BB   F9           MOV     R1,A
   \   0000BC   8882         MOV     DPL,R0
   \   0000BE   8983         MOV     DPH,R1
   \   0000C0   E5..         MOV     A,?V0 + 6
   \   0000C2   7004         JNZ     ??ZDMatchSendState_11
   2260              {
   2261                matchED->sending = ZDMATCH_SENDING_UNBIND;
   \   0000C4   7401         MOV     A,#0x1
   \   0000C6   80B0         SJMP    ??ZDMatchSendState_6
   2262              }
   2263              else
   2264              {
   2265                matchED->sending = ZDMATCH_SENDING_BIND;
   \                     ??ZDMatchSendState_11:
   \   0000C8   7402         MOV     A,#0x2
   \   0000CA   80AC         SJMP    ??ZDMatchSendState_6
   2266              }
   2267            }
   2268          
   2269            if ( reason != ZDMATCH_REASON_START && matchED->sending == ZDMATCH_SENDING_UNBIND )
   \                     ??ZDMatchSendState_10:
   \   0000CC   E5..         MOV     A,?V0 + 2
   \   0000CE   6040         JZ      ??ZDMatchSendState_12
   \                     ??ZDMatchSendState_7:
   \   0000D0   90....       MOV     DPTR,#matchED
   \   0000D3   E0           MOVX    A,@DPTR
   \   0000D4   242F         ADD     A,#0x2f
   \   0000D6   F8           MOV     R0,A
   \   0000D7   A3           INC     DPTR
   \   0000D8   E0           MOVX    A,@DPTR
   \   0000D9   3400         ADDC    A,#0x0
   \   0000DB   F9           MOV     R1,A
   \   0000DC   8882         MOV     DPL,R0
   \   0000DE   8983         MOV     DPH,R1
   \   0000E0   E0           MOVX    A,@DPTR
   \   0000E1   6401         XRL     A,#0x1
   \   0000E3   702B         JNZ     ??ZDMatchSendState_12
   2270            {
   2271              // Move to the next cluster ID
   2272              if ( matchED->ed1numMatched )
   \   0000E5   90....       MOV     DPTR,#matchED
   \   0000E8   E0           MOVX    A,@DPTR
   \   0000E9   2431         ADD     A,#0x31
   \   0000EB   08           INC     R0
   \   0000EC   08           INC     R0
   \   0000ED   A3           INC     DPTR
   \   0000EE   E0           MOVX    A,@DPTR
   \   0000EF   3400         ADDC    A,#0x0
   \   0000F1   F9           MOV     R1,A
   \   0000F2   8882         MOV     DPL,R0
   \   0000F4   8983         MOV     DPH,R1
   \   0000F6   E0           MOVX    A,@DPTR
   \   0000F7   7015         JNZ     ??ZDMatchSendState_13
   2273                matchED->ed1numMatched--;
   2274              else if ( matchED->ed2numMatched )
   \   0000F9   90....       MOV     DPTR,#matchED
   \   0000FC   E0           MOVX    A,@DPTR
   \   0000FD   2434         ADD     A,#0x34
   \   0000FF   08           INC     R0
   \   000100   08           INC     R0
   \   000101   08           INC     R0
   \   000102   A3           INC     DPTR
   \   000103   E0           MOVX    A,@DPTR
   \   000104   3400         ADDC    A,#0x0
   \   000106   F9           MOV     R1,A
   \   000107   8882         MOV     DPL,R0
   \   000109   8983         MOV     DPH,R1
   \   00010B   E0           MOVX    A,@DPTR
   \   00010C   6002         JZ      ??ZDMatchSendState_12
   2275                matchED->ed2numMatched--;
   \                     ??ZDMatchSendState_13:
   \   00010E   14           DEC     A
   \   00010F   F0           MOVX    @DPTR,A
   2276            }
   2277          
   2278            // What message do we send now
   2279            if ( matchED->ed1numMatched )
   \                     ??ZDMatchSendState_12:
   \   000110   90....       MOV     DPTR,#matchED
   \   000113   E0           MOVX    A,@DPTR
   \   000114   2431         ADD     A,#0x31
   \   000116   F8           MOV     R0,A
   \   000117   A3           INC     DPTR
   \   000118   E0           MOVX    A,@DPTR
   \   000119   3400         ADDC    A,#0x0
   \   00011B   F9           MOV     R1,A
   \   00011C   8882         MOV     DPL,R0
   \   00011E   8983         MOV     DPH,R1
   \   000120   E0           MOVX    A,@DPTR
   \   000121   F8           MOV     R0,A
   \   000122   90....       MOV     DPTR,#matchED
   \   000125   604C         JZ      ??ZDMatchSendState_14
   2280            {
   2281              ed = &(matchED->ed1);
   \   000127   E0           MOVX    A,@DPTR
   \   000128   F5..         MOV     ?V0 + 0,A
   \   00012A   A3           INC     DPTR
   \   00012B   E0           MOVX    A,@DPTR
   \   00012C   F5..         MOV     ?V0 + 1,A
   2282              clusterID = matchED->ed1Matched[matchED->ed1numMatched-1];
   \   00012E   E8           MOV     A,R0
   \   00012F   C3           CLR     C
   \   000130   33           RLC     A
   \   000131   F8           MOV     R0,A
   \   000132   E4           CLR     A
   \   000133   33           RLC     A
   \   000134   F9           MOV     R1,A
   \   000135   90....       MOV     DPTR,#matchED
   \   000138   E0           MOVX    A,@DPTR
   \   000139   2432         ADD     A,#0x32
   \   00013B   FA           MOV     R2,A
   \   00013C   A3           INC     DPTR
   \   00013D   E0           MOVX    A,@DPTR
   \   00013E   3400         ADDC    A,#0x0
   \   000140   FB           MOV     R3,A
   \   000141   8A82         MOV     DPL,R2
   \   000143   8B83         MOV     DPH,R3
   \   000145   E0           MOVX    A,@DPTR
   \   000146   28           ADD     A,R0
   \   000147   F8           MOV     R0,A
   \   000148   A3           INC     DPTR
   \   000149   E0           MOVX    A,@DPTR
   \   00014A   39           ADDC    A,R1
   \   00014B   F9           MOV     R1,A
   \   00014C   E8           MOV     A,R0
   \   00014D   24FE         ADD     A,#-0x2
   \   00014F   F582         MOV     DPL,A
   \   000151   E9           MOV     A,R1
   \   000152   34FF         ADDC    A,#-0x1
   \   000154   F583         MOV     DPH,A
   \   000156   E0           MOVX    A,@DPTR
   \   000157   F5..         MOV     ?V0 + 8,A
   \   000159   A3           INC     DPTR
   \   00015A   E0           MOVX    A,@DPTR
   \   00015B   F5..         MOV     ?V0 + 9,A
   2283              dstIEEEAddr = matchED->ed2.ieeeAddr;
   \   00015D   90....       MOV     DPTR,#matchED
   \   000160   E0           MOVX    A,@DPTR
   \   000161   241D         ADD     A,#0x1d
   \   000163   F5..         MOV     ?V0 + 4,A
   \   000165   A3           INC     DPTR
   \   000166   E0           MOVX    A,@DPTR
   \   000167   3400         ADDC    A,#0x0
   \   000169   F5..         MOV     ?V0 + 5,A
   2284              dstEP = matchED->ed2.endpoint;
   \   00016B   90....       MOV     DPTR,#matchED
   \   00016E   E0           MOVX    A,@DPTR
   \   00016F   2425         ADD     A,#0x25
   \   000171   8062         SJMP    ??ZDMatchSendState_15
   2285            }
   2286            else if ( matchED->ed2numMatched )
   \                     ??ZDMatchSendState_14:
   \   000173   E0           MOVX    A,@DPTR
   \   000174   2434         ADD     A,#0x34
   \   000176   F8           MOV     R0,A
   \   000177   A3           INC     DPTR
   \   000178   E0           MOVX    A,@DPTR
   \   000179   3400         ADDC    A,#0x0
   \   00017B   F9           MOV     R1,A
   \   00017C   8882         MOV     DPL,R0
   \   00017E   8983         MOV     DPH,R1
   \   000180   E0           MOVX    A,@DPTR
   \   000181   F8           MOV     R0,A
   \   000182   605E         JZ      ??ZDMatchSendState_16
   2287            {
   2288              ed = &(matchED->ed2);
   \   000184   90....       MOV     DPTR,#matchED
   \   000187   E0           MOVX    A,@DPTR
   \   000188   2417         ADD     A,#0x17
   \   00018A   F5..         MOV     ?V0 + 0,A
   \   00018C   A3           INC     DPTR
   \   00018D   E0           MOVX    A,@DPTR
   \   00018E   3400         ADDC    A,#0x0
   \   000190   F5..         MOV     ?V0 + 1,A
   2289              clusterID = matchED->ed2Matched[matchED->ed2numMatched-1];
   \   000192   E8           MOV     A,R0
   \   000193   C3           CLR     C
   \   000194   33           RLC     A
   \   000195   F8           MOV     R0,A
   \   000196   E4           CLR     A
   \   000197   33           RLC     A
   \   000198   F9           MOV     R1,A
   \   000199   90....       MOV     DPTR,#matchED
   \   00019C   E0           MOVX    A,@DPTR
   \   00019D   2435         ADD     A,#0x35
   \   00019F   FA           MOV     R2,A
   \   0001A0   A3           INC     DPTR
   \   0001A1   E0           MOVX    A,@DPTR
   \   0001A2   3400         ADDC    A,#0x0
   \   0001A4   FB           MOV     R3,A
   \   0001A5   8A82         MOV     DPL,R2
   \   0001A7   8B83         MOV     DPH,R3
   \   0001A9   E0           MOVX    A,@DPTR
   \   0001AA   28           ADD     A,R0
   \   0001AB   F8           MOV     R0,A
   \   0001AC   A3           INC     DPTR
   \   0001AD   E0           MOVX    A,@DPTR
   \   0001AE   39           ADDC    A,R1
   \   0001AF   F9           MOV     R1,A
   \   0001B0   E8           MOV     A,R0
   \   0001B1   24FE         ADD     A,#-0x2
   \   0001B3   F582         MOV     DPL,A
   \   0001B5   E9           MOV     A,R1
   \   0001B6   34FF         ADDC    A,#-0x1
   \   0001B8   F583         MOV     DPH,A
   \   0001BA   E0           MOVX    A,@DPTR
   \   0001BB   F5..         MOV     ?V0 + 8,A
   \   0001BD   A3           INC     DPTR
   \   0001BE   E0           MOVX    A,@DPTR
   \   0001BF   F5..         MOV     ?V0 + 9,A
   2290              dstIEEEAddr = matchED->ed1.ieeeAddr;
   \   0001C1   90....       MOV     DPTR,#matchED
   \   0001C4   E0           MOVX    A,@DPTR
   \   0001C5   2406         ADD     A,#0x6
   \   0001C7   F5..         MOV     ?V0 + 4,A
   \   0001C9   A3           INC     DPTR
   \   0001CA   E0           MOVX    A,@DPTR
   \   0001CB   3400         ADDC    A,#0x0
   \   0001CD   F5..         MOV     ?V0 + 5,A
   2291              dstEP = matchED->ed1.endpoint;
   \   0001CF   90....       MOV     DPTR,#matchED
   \   0001D2   E0           MOVX    A,@DPTR
   \   0001D3   240E         ADD     A,#0xe
   \                     ??ZDMatchSendState_15:
   \   0001D5   F8           MOV     R0,A
   \   0001D6   A3           INC     DPTR
   \   0001D7   E0           MOVX    A,@DPTR
   \   0001D8   3400         ADDC    A,#0x0
   \   0001DA   F9           MOV     R1,A
   \   0001DB   8882         MOV     DPL,R0
   \   0001DD   8983         MOV     DPH,R1
   \   0001DF   E0           MOVX    A,@DPTR
   \   0001E0   F5..         MOV     ?V0 + 3,A
   2292            }
   2293          
   2294            dstAddr.addrMode = Addr16Bit;
   \                     ??ZDMatchSendState_16:
   \   0001E2   7409         MOV     A,#0x9
   \   0001E4   12....       LCALL   ?XSTACK_DISP0_8
   \   0001E7   7402         MOV     A,#0x2
   \   0001E9   F0           MOVX    @DPTR,A
   2295          
   2296            // Send the next message
   2297            if ( rspStatus == ZDP_SUCCESS && ed )
   \   0001EA   85..82       MOV     DPL,?XSP + 0
   \   0001ED   85..83       MOV     DPH,?XSP + 1
   \   0001F0   E0           MOVX    A,@DPTR
   \   0001F1   6003         JZ      $+5
   \   0001F3   02....       LJMP    ??ZDMatchSendState_17 & 0xFFFF
   \   0001F6   E5..         MOV     A,?V0 + 0
   \   0001F8   45..         ORL     A,?V0 + 1
   \   0001FA   7003         JNZ     $+5
   \   0001FC   02....       LJMP    ??ZDMatchSendState_17 & 0xFFFF
   2298            {
   2299              // Send unbind/bind message to source
   2300              if ( matchED->sending == ZDMATCH_SENDING_UNBIND )
   \   0001FF   90....       MOV     DPTR,#matchED
   \   000202   E0           MOVX    A,@DPTR
   \   000203   242F         ADD     A,#0x2f
   \   000205   F8           MOV     R0,A
   \   000206   A3           INC     DPTR
   \   000207   E0           MOVX    A,@DPTR
   \   000208   3400         ADDC    A,#0x0
   \   00020A   F9           MOV     R1,A
   \   00020B   8882         MOV     DPL,R0
   \   00020D   8983         MOV     DPH,R1
   \   00020F   E0           MOVX    A,@DPTR
   \   000210   6401         XRL     A,#0x1
   \   000212   7004         JNZ     ??ZDMatchSendState_18
   2301                msgType = Unbind_req;
   \   000214   7E22         MOV     R6,#0x22
   \   000216   8002         SJMP    ??ZDMatchSendState_19
   2302              else
   2303                msgType = Bind_req;
   \                     ??ZDMatchSendState_18:
   \   000218   7E21         MOV     R6,#0x21
   2304          
   2305              dstAddr.addr.shortAddr = ed->srcAddr;
   \                     ??ZDMatchSendState_19:
   \   00021A   85..82       MOV     DPL,?V0 + 0
   \   00021D   85..83       MOV     DPH,?V0 + 1
   \   000220   A3           INC     DPTR
   \   000221   A3           INC     DPTR
   \   000222   E0           MOVX    A,@DPTR
   \   000223   F8           MOV     R0,A
   \   000224   A3           INC     DPTR
   \   000225   E0           MOVX    A,@DPTR
   \   000226   F9           MOV     R1,A
   \   000227   7401         MOV     A,#0x1
   \   000229   12....       LCALL   ?XSTACK_DISP0_8
   \   00022C   E8           MOV     A,R0
   \   00022D   F0           MOVX    @DPTR,A
   \   00022E   A3           INC     DPTR
   \   00022F   E9           MOV     A,R1
   \   000230   F0           MOVX    @DPTR,A
   2306          
   2307              // Save off the transaction sequence number
   2308              matchED->transSeq = ZDP_TransID;
   \   000231   90....       MOV     DPTR,#ZDP_TransID
   \   000234   E0           MOVX    A,@DPTR
   \   000235   C0E0         PUSH    A
   \   000237   90....       MOV     DPTR,#matchED
   \   00023A   E0           MOVX    A,@DPTR
   \   00023B   2430         ADD     A,#0x30
   \   00023D   F8           MOV     R0,A
   \   00023E   A3           INC     DPTR
   \   00023F   E0           MOVX    A,@DPTR
   \   000240   3400         ADDC    A,#0x0
   \   000242   F9           MOV     R1,A
   \   000243   8882         MOV     DPL,R0
   \   000245   8983         MOV     DPH,R1
   \   000247   D0E0         POP     A
   \   000249   F0           MOVX    @DPTR,A
   2309          
   2310              destinationAddr.addrMode = Addr64Bit;
   \   00024A   7412         MOV     A,#0x12
   \   00024C   12....       LCALL   ?XSTACK_DISP0_8
   \   00024F   7403         MOV     A,#0x3
   \   000251   F0           MOVX    @DPTR,A
   2311              osal_cpyExtAddr( destinationAddr.addr.extAddr, dstIEEEAddr );
   \   000252                ; Setup parameters for call to function sAddrExtCpy
   \   000252   AC..         MOV     R4,?V0 + 4
   \   000254   AD..         MOV     R5,?V0 + 5
   \   000256   740A         MOV     A,#0xa
   \   000258   12....       LCALL   ?XSTACK_DISP0_8
   \   00025B   AA82         MOV     R2,DPL
   \   00025D   AB83         MOV     R3,DPH
   \   00025F   12....       LCALL   ??sAddrExtCpy?relay
   2312          
   2313              ZDP_BindUnbindReq( msgType, &dstAddr, ed->ieeeAddr, ed->endpoint, clusterID,
   2314                  &destinationAddr, dstEP, ed->SecurityUse );
   \   000262                ; Setup parameters for call to function ZDP_BindUnbindReq
   \   000262   85..82       MOV     DPL,?V0 + 0
   \   000265   85..83       MOV     DPH,?V0 + 1
   \   000268   A3           INC     DPTR
   \   000269   E0           MOVX    A,@DPTR
   \   00026A   F5..         MOV     ?V0 + 4,A
   \   00026C   78..         MOV     R0,#?V0 + 4
   \   00026E   12....       LCALL   ?PUSH_XSTACK_I_ONE
   \   000271   78..         MOV     R0,#?V0 + 3
   \   000273   12....       LCALL   ?PUSH_XSTACK_I_ONE
   \   000276   740C         MOV     A,#0xc
   \   000278   12....       LCALL   ?XSTACK_DISP0_8
   \   00027B   8582..       MOV     ?V0 + 4,DPL
   \   00027E   8583..       MOV     ?V0 + 5,DPH
   \   000281   78..         MOV     R0,#?V0 + 4
   \   000283   12....       LCALL   ?PUSH_XSTACK_I_TWO
   \   000286   78..         MOV     R0,#?V0 + 8
   \   000288   12....       LCALL   ?PUSH_XSTACK_I_TWO
   \   00028B   E5..         MOV     A,?V0 + 0
   \   00028D   2406         ADD     A,#0x6
   \   00028F   F5..         MOV     ?V0 + 4,A
   \   000291   E5..         MOV     A,?V0 + 1
   \   000293   3400         ADDC    A,#0x0
   \   000295   F5..         MOV     ?V0 + 5,A
   \   000297   78..         MOV     R0,#?V0 + 4
   \   000299   12....       LCALL   ?PUSH_XSTACK_I_TWO
   \   00029C   E5..         MOV     A,?V0 + 0
   \   00029E   240E         ADD     A,#0xe
   \   0002A0   F582         MOV     DPL,A
   \   0002A2   E5..         MOV     A,?V0 + 1
   \   0002A4   3400         ADDC    A,#0x0
   \   0002A6   F583         MOV     DPH,A
   \   0002A8   E0           MOVX    A,@DPTR
   \   0002A9   F9           MOV     R1,A
   \   0002AA   7409         MOV     A,#0x9
   \   0002AC   12....       LCALL   ?XSTACK_DISP0_8
   \   0002AF   AC82         MOV     R4,DPL
   \   0002B1   AD83         MOV     R5,DPH
   \   0002B3   EE           MOV     A,R6
   \   0002B4   FA           MOV     R2,A
   \   0002B5   7B00         MOV     R3,#0x0
   \   0002B7   12....       LCALL   ??ZDP_BindUnbindReq?relay
   \   0002BA   7408         MOV     A,#0x8
   \   0002BC   12....       LCALL   ?DEALLOC_XSTACK8
   2315          
   2316              // Set timeout for response
   2317              APS_SetEndDeviceBindTimeout( AIB_MaxBindingTime, ZDO_EndDeviceBindMatchTimeoutCB );
   \   0002BF                ; Setup parameters for call to function APS_SetEndDeviceBindTimeout
   \   0002BF   7C..         MOV     R4,#??ZDO_EndDeviceBindMatchTimeoutCB?relay & 0xff
   \   0002C1   7D..         MOV     R5,#(??ZDO_EndDeviceBindMatchTimeoutCB?relay >> 8) & 0xff
   \   0002C3   90....       MOV     DPTR,#AIB_MaxBindingTime
   \   0002C6   E0           MOVX    A,@DPTR
   \   0002C7   FA           MOV     R2,A
   \   0002C8   A3           INC     DPTR
   \   0002C9   E0           MOVX    A,@DPTR
   \   0002CA   FB           MOV     R3,A
   \   0002CB   12....       LCALL   ??APS_SetEndDeviceBindTimeout?relay
   \   0002CE   02....       LJMP    ??ZDMatchSendState_20 & 0xFFFF
   2318            }
   2319            else
   2320            {
   2321              // Send the response messages to requesting devices
   2322              // send response to first requester
   2323              dstAddr.addr.shortAddr = matchED->ed1.srcAddr;
   \                     ??ZDMatchSendState_17:
   \   0002D1   90....       MOV     DPTR,#matchED
   \   0002D4   E0           MOVX    A,@DPTR
   \   0002D5   F8           MOV     R0,A
   \   0002D6   A3           INC     DPTR
   \   0002D7   E0           MOVX    A,@DPTR
   \   0002D8   F583         MOV     DPH,A
   \   0002DA   8882         MOV     DPL,R0
   \   0002DC   A3           INC     DPTR
   \   0002DD   A3           INC     DPTR
   \   0002DE   E0           MOVX    A,@DPTR
   \   0002DF   F8           MOV     R0,A
   \   0002E0   A3           INC     DPTR
   \   0002E1   E0           MOVX    A,@DPTR
   \   0002E2   F9           MOV     R1,A
   \   0002E3   7401         MOV     A,#0x1
   \   0002E5   12....       LCALL   ?XSTACK_DISP0_8
   \   0002E8   E8           MOV     A,R0
   \   0002E9   F0           MOVX    @DPTR,A
   \   0002EA   A3           INC     DPTR
   \   0002EB   E9           MOV     A,R1
   \   0002EC   F0           MOVX    @DPTR,A
   2324              ZDP_EndDeviceBindRsp( matchED->ed1.TransSeq, &dstAddr, rspStatus, matchED->ed1.SecurityUse );
   \   0002ED                ; Setup parameters for call to function ZDP_SendData
   \   0002ED   90....       MOV     DPTR,#matchED
   \   0002F0   E0           MOVX    A,@DPTR
   \   0002F1   F8           MOV     R0,A
   \   0002F2   A3           INC     DPTR
   \   0002F3   E0           MOVX    A,@DPTR
   \   0002F4   F583         MOV     DPH,A
   \   0002F6   8882         MOV     DPL,R0
   \   0002F8   A3           INC     DPTR
   \   0002F9   E0           MOVX    A,@DPTR
   \   0002FA   F5..         MOV     ?V0 + 0,A
   \   0002FC   78..         MOV     R0,#?V0 + 0
   \   0002FE   12....       LCALL   ?PUSH_XSTACK_I_ONE
   \   000301   7401         MOV     A,#0x1
   \   000303   12....       LCALL   ?XSTACK_DISP0_8
   \   000306   8582..       MOV     ?V0 + 0,DPL
   \   000309   8583..       MOV     ?V0 + 1,DPH
   \   00030C   78..         MOV     R0,#?V0 + 0
   \   00030E   12....       LCALL   ?PUSH_XSTACK_I_TWO
   \   000311   75..20       MOV     ?V0 + 0,#0x20
   \   000314   75..80       MOV     ?V0 + 1,#-0x80
   \   000317   78..         MOV     R0,#?V0 + 0
   \   000319   12....       LCALL   ?PUSH_XSTACK_I_TWO
   \   00031C   7901         MOV     R1,#0x1
   \   00031E   7406         MOV     A,#0x6
   \   000320   12....       LCALL   ?XSTACK_DISP0_8
   \   000323   AC82         MOV     R4,DPL
   \   000325   AD83         MOV     R5,DPH
   \   000327   90....       MOV     DPTR,#matchED
   \   00032A   E0           MOVX    A,@DPTR
   \   00032B   FA           MOV     R2,A
   \   00032C   A3           INC     DPTR
   \   00032D   E0           MOVX    A,@DPTR
   \   00032E   FB           MOV     R3,A
   \   00032F   12....       LCALL   ??ZDP_SendData?relay
   \   000332   7405         MOV     A,#0x5
   \   000334   12....       LCALL   ?DEALLOC_XSTACK8
   2325          
   2326              // send response to second requester
   2327              if ( matchED->state == ZDMATCH_SENDING_BINDS )
   \   000337   90....       MOV     DPTR,#matchED
   \   00033A   E0           MOVX    A,@DPTR
   \   00033B   242E         ADD     A,#0x2e
   \   00033D   F8           MOV     R0,A
   \   00033E   A3           INC     DPTR
   \   00033F   E0           MOVX    A,@DPTR
   \   000340   3400         ADDC    A,#0x0
   \   000342   F9           MOV     R1,A
   \   000343   8882         MOV     DPL,R0
   \   000345   8983         MOV     DPH,R1
   \   000347   E0           MOVX    A,@DPTR
   \   000348   6402         XRL     A,#0x2
   \   00034A   7071         JNZ     ??ZDMatchSendState_21
   2328              {
   2329                dstAddr.addr.shortAddr = matchED->ed2.srcAddr;
   \   00034C   90....       MOV     DPTR,#matchED
   \   00034F   E0           MOVX    A,@DPTR
   \   000350   2419         ADD     A,#0x19
   \   000352   F8           MOV     R0,A
   \   000353   A3           INC     DPTR
   \   000354   E0           MOVX    A,@DPTR
   \   000355   3400         ADDC    A,#0x0
   \   000357   F9           MOV     R1,A
   \   000358   8882         MOV     DPL,R0
   \   00035A   8983         MOV     DPH,R1
   \   00035C   E0           MOVX    A,@DPTR
   \   00035D   F8           MOV     R0,A
   \   00035E   A3           INC     DPTR
   \   00035F   E0           MOVX    A,@DPTR
   \   000360   F9           MOV     R1,A
   \   000361   7401         MOV     A,#0x1
   \   000363   12....       LCALL   ?XSTACK_DISP0_8
   \   000366   E8           MOV     A,R0
   \   000367   F0           MOVX    @DPTR,A
   \   000368   A3           INC     DPTR
   \   000369   E9           MOV     A,R1
   \   00036A   F0           MOVX    @DPTR,A
   2330                ZDP_EndDeviceBindRsp( matchED->ed2.TransSeq, &dstAddr, rspStatus, matchED->ed2.SecurityUse );
   \   00036B                ; Setup parameters for call to function ZDP_SendData
   \   00036B   90....       MOV     DPTR,#matchED
   \   00036E   E0           MOVX    A,@DPTR
   \   00036F   2418         ADD     A,#0x18
   \   000371   F8           MOV     R0,A
   \   000372   A3           INC     DPTR
   \   000373   E0           MOVX    A,@DPTR
   \   000374   3400         ADDC    A,#0x0
   \   000376   F9           MOV     R1,A
   \   000377   8882         MOV     DPL,R0
   \   000379   8983         MOV     DPH,R1
   \   00037B   E0           MOVX    A,@DPTR
   \   00037C   F5..         MOV     ?V0 + 0,A
   \   00037E   78..         MOV     R0,#?V0 + 0
   \   000380   12....       LCALL   ?PUSH_XSTACK_I_ONE
   \   000383   7401         MOV     A,#0x1
   \   000385   12....       LCALL   ?XSTACK_DISP0_8
   \   000388   8582..       MOV     ?V0 + 0,DPL
   \   00038B   8583..       MOV     ?V0 + 1,DPH
   \   00038E   78..         MOV     R0,#?V0 + 0
   \   000390   12....       LCALL   ?PUSH_XSTACK_I_TWO
   \   000393   75..20       MOV     ?V0 + 0,#0x20
   \   000396   75..80       MOV     ?V0 + 1,#-0x80
   \   000399   78..         MOV     R0,#?V0 + 0
   \   00039B   12....       LCALL   ?PUSH_XSTACK_I_TWO
   \   00039E   7901         MOV     R1,#0x1
   \   0003A0   7406         MOV     A,#0x6
   \   0003A2   12....       LCALL   ?XSTACK_DISP0_8
   \   0003A5   AC82         MOV     R4,DPL
   \   0003A7   AD83         MOV     R5,DPH
   \   0003A9   90....       MOV     DPTR,#matchED
   \   0003AC   E0           MOVX    A,@DPTR
   \   0003AD   2417         ADD     A,#0x17
   \   0003AF   FA           MOV     R2,A
   \   0003B0   A3           INC     DPTR
   \   0003B1   E0           MOVX    A,@DPTR
   \   0003B2   3400         ADDC    A,#0x0
   \   0003B4   FB           MOV     R3,A
   \   0003B5   12....       LCALL   ??ZDP_SendData?relay
   \   0003B8   7405         MOV     A,#0x5
   \   0003BA   12....       LCALL   ?DEALLOC_XSTACK8
   2331              }
   2332          
   2333              // Process ended - release memory used
   2334              ZDO_RemoveMatchMemory();
   \                     ??ZDMatchSendState_21:
   \   0003BD                ; Setup parameters for call to function ZDO_RemoveMatchMemory
   \   0003BD   12....       LCALL   ??ZDO_RemoveMatchMemory?relay
   2335            }
   2336          
   2337            return ( TRUE );
   \                     ??ZDMatchSendState_20:
   \   0003C0   7901         MOV     R1,#0x1
   \                     ??ZDMatchSendState_2:
   \   0003C2   7413         MOV     A,#0x13
   \   0003C4   12....       LCALL   ?DEALLOC_XSTACK8
   \   0003C7                REQUIRE ?Subroutine8
   \   0003C7                ; // Fall through to label ?Subroutine8
   2338          }

   \                                 In  segment BANKED_CODE, align 1, keep-with-next
   \                     ?Subroutine8:
   \   000000   7F0A         MOV     R7,#0xa
   \   000002   02....       LJMP    ?BANKED_LEAVE_XDATA
   2339          
   2340          /*********************************************************************
   2341           * @fn      ZDO_EndDeviceBindMatchTimeoutCB()
   2342           *
   2343           * @brief   End device bind timeout.
   2344           *
   2345           * @param  none
   2346           *
   2347           * @return  none
   2348           */

   \                                 In  segment BANKED_CODE, align 1, keep-with-next
   2349          static void ZDO_EndDeviceBindMatchTimeoutCB( void )
   \                     ZDO_EndDeviceBindMatchTimeoutCB:
   2350          {
   \   000000   C082         PUSH    DPL
   \   000002   C083         PUSH    DPH
   \   000004                ; Saved register size: 2
   \   000004                ; Auto size: 0
   2351            ZDMatchSendState( ZDMATCH_REASON_TIMEOUT, ZDP_TIMEOUT, 0 );
   \   000004                ; Setup parameters for call to function ZDMatchSendState
   \   000004   7B00         MOV     R3,#0x0
   \   000006   7A85         MOV     R2,#-0x7b
   \   000008   7901         MOV     R1,#0x1
   \   00000A   12....       LCALL   ??ZDMatchSendState?relay
   2352          }
   \   00000D   02....       LJMP    ?Subroutine0 & 0xFFFF
   2353          
   2354          /*********************************************************************
   2355           * ZDO MESSAGE PARSING API FUNCTIONS
   2356           */
   2357          
   2358          /*********************************************************************
   2359           * @fn          ZDO_ParseEndDeviceBindReq
   2360           *
   2361           * @brief       This function parses the End_Device_Bind_req message.
   2362           *
   2363           *     NOTE:  The clusters lists in bindReq are allocated in this
   2364           *            function and must be freed by that calling function.
   2365           *
   2366           * @param       inMsg  - incoming message (request)
   2367           * @param       bindReq - pointer to place to parse message to
   2368           *
   2369           * @return      none
   2370           */

   \                                 In  segment BANKED_CODE, align 1, keep-with-next
   2371          void ZDO_ParseEndDeviceBindReq( zdoIncomingMsg_t *inMsg, ZDEndDeviceBind_t *bindReq )
   \                     ZDO_ParseEndDeviceBindReq:
   2372          {
   \   000000   74EF         MOV     A,#-0x11
   \   000002   12....       LCALL   ?BANKED_ENTER_XDATA
   \   000005                ; Saved register size: 17
   \   000005                ; Auto size: 0
   \   000005   8C..         MOV     ?V0 + 0,R4
   \   000007   8D..         MOV     ?V0 + 1,R5
   2373            uint8 *msg;
   2374          
   2375            // Parse the message
   2376            bindReq->TransSeq = inMsg->TransSeq;
   \   000009   EA           MOV     A,R2
   \   00000A   240F         ADD     A,#0xf
   \   00000C   F582         MOV     DPL,A
   \   00000E   EB           MOV     A,R3
   \   00000F   3400         ADDC    A,#0x0
   \   000011   F583         MOV     DPH,A
   \   000013   E0           MOVX    A,@DPTR
   \   000014   8C82         MOV     DPL,R4
   \   000016   8D83         MOV     DPH,R5
   \   000018   F0           MOVX    @DPTR,A
   2377            bindReq->srcAddr = inMsg->srcAddr.addr.shortAddr;
   \   000019   8A82         MOV     DPL,R2
   \   00001B   8B83         MOV     DPH,R3
   \   00001D   A3           INC     DPTR
   \   00001E   A3           INC     DPTR
   \   00001F   E0           MOVX    A,@DPTR
   \   000020   F8           MOV     R0,A
   \   000021   A3           INC     DPTR
   \   000022   E0           MOVX    A,@DPTR
   \   000023   F9           MOV     R1,A
   \   000024   8C82         MOV     DPL,R4
   \   000026   8D83         MOV     DPH,R5
   \   000028   A3           INC     DPTR
   \   000029   A3           INC     DPTR
   \   00002A   E8           MOV     A,R0
   \   00002B   F0           MOVX    @DPTR,A
   \   00002C   A3           INC     DPTR
   \   00002D   E9           MOV     A,R1
   \   00002E   F0           MOVX    @DPTR,A
   2378            bindReq->SecurityUse = inMsg->SecurityUse;
   \   00002F   EA           MOV     A,R2
   \   000030   240E         ADD     A,#0xe
   \   000032   F582         MOV     DPL,A
   \   000034   EB           MOV     A,R3
   \   000035   3400         ADDC    A,#0x0
   \   000037   F583         MOV     DPH,A
   \   000039   E0           MOVX    A,@DPTR
   \   00003A   8C82         MOV     DPL,R4
   \   00003C   8D83         MOV     DPH,R5
   \   00003E   A3           INC     DPTR
   \   00003F   F0           MOVX    @DPTR,A
   2379            msg = inMsg->asdu;
   \   000040   EA           MOV     A,R2
   \   000041   2413         ADD     A,#0x13
   \   000043   F582         MOV     DPL,A
   \   000045   EB           MOV     A,R3
   \   000046   3400         ADDC    A,#0x0
   \   000048   F583         MOV     DPH,A
   \   00004A   E0           MOVX    A,@DPTR
   \   00004B   FE           MOV     R6,A
   \   00004C   A3           INC     DPTR
   \   00004D   E0           MOVX    A,@DPTR
   \   00004E   FF           MOV     R7,A
   2380          
   2381            bindReq->localCoordinator = BUILD_UINT16( msg[0], msg[1] );
   \   00004F   8E82         MOV     DPL,R6
   \   000051   8F83         MOV     DPH,R7
   \   000053   E0           MOVX    A,@DPTR
   \   000054   FA           MOV     R2,A
   \   000055   A3           INC     DPTR
   \   000056   E0           MOVX    A,@DPTR
   \   000057   F9           MOV     R1,A
   \   000058   EA           MOV     A,R2
   \   000059   8C82         MOV     DPL,R4
   \   00005B   8D83         MOV     DPH,R5
   \   00005D   A3           INC     DPTR
   \   00005E   A3           INC     DPTR
   \   00005F   A3           INC     DPTR
   \   000060   A3           INC     DPTR
   \   000061   F0           MOVX    @DPTR,A
   \   000062   A3           INC     DPTR
   \   000063   E9           MOV     A,R1
   \   000064   F0           MOVX    @DPTR,A
   2382            msg += 2;
   \   000065   EE           MOV     A,R6
   \   000066   2402         ADD     A,#0x2
   \   000068   0E           INC     R6
   \   000069   0E           INC     R6
   \   00006A   EF           MOV     A,R7
   \   00006B   3400         ADDC    A,#0x0
   \   00006D   FF           MOV     R7,A
   2383          
   2384            osal_cpyExtAddr( bindReq->ieeeAddr, msg );
   \   00006E                ; Setup parameters for call to function sAddrExtCpy
   \   00006E   EE           MOV     A,R6
   \   00006F   FC           MOV     R4,A
   \   000070   EF           MOV     A,R7
   \   000071   FD           MOV     R5,A
   \   000072   E5..         MOV     A,?V0 + 0
   \   000074   2406         ADD     A,#0x6
   \   000076   FA           MOV     R2,A
   \   000077   E5..         MOV     A,?V0 + 1
   \   000079   3400         ADDC    A,#0x0
   \   00007B   FB           MOV     R3,A
   \   00007C   12....       LCALL   ??sAddrExtCpy?relay
   2385            msg += Z_EXTADDR_LEN;
   \   00007F   EE           MOV     A,R6
   \   000080   2408         ADD     A,#0x8
   \   000082   FE           MOV     R6,A
   \   000083   EF           MOV     A,R7
   \   000084   3400         ADDC    A,#0x0
   \   000086   FF           MOV     R7,A
   2386          
   2387            bindReq->endpoint = *msg++;
   \   000087   8E82         MOV     DPL,R6
   \   000089   8F83         MOV     DPH,R7
   \   00008B   E0           MOVX    A,@DPTR
   \   00008C   C0E0         PUSH    A
   \   00008E   E5..         MOV     A,?V0 + 0
   \   000090   240E         ADD     A,#0xe
   \   000092   F582         MOV     DPL,A
   \   000094   E5..         MOV     A,?V0 + 1
   \   000096   3400         ADDC    A,#0x0
   \   000098   F583         MOV     DPH,A
   \   00009A   D0E0         POP     A
   \   00009C   F0           MOVX    @DPTR,A
   \   00009D   8E82         MOV     DPL,R6
   \   00009F   8F83         MOV     DPH,R7
   \   0000A1   A3           INC     DPTR
   \   0000A2   AE82         MOV     R6,DPL
   \   0000A4   AF83         MOV     R7,DPH
   2388            bindReq->profileID = BUILD_UINT16( msg[0], msg[1] );
   \   0000A6   E0           MOVX    A,@DPTR
   \   0000A7   FA           MOV     R2,A
   \   0000A8   A3           INC     DPTR
   \   0000A9   E0           MOVX    A,@DPTR
   \   0000AA   F9           MOV     R1,A
   \   0000AB   EA           MOV     A,R2
   \   0000AC   F8           MOV     R0,A
   \   0000AD   E5..         MOV     A,?V0 + 0
   \   0000AF   240F         ADD     A,#0xf
   \   0000B1   F582         MOV     DPL,A
   \   0000B3   E5..         MOV     A,?V0 + 1
   \   0000B5   3400         ADDC    A,#0x0
   \   0000B7   F583         MOV     DPH,A
   \   0000B9   E8           MOV     A,R0
   \   0000BA   F0           MOVX    @DPTR,A
   \   0000BB   A3           INC     DPTR
   \   0000BC   E9           MOV     A,R1
   \   0000BD   F0           MOVX    @DPTR,A
   2389            msg += 2;
   \   0000BE   EE           MOV     A,R6
   \   0000BF   2402         ADD     A,#0x2
   \   0000C1   0E           INC     R6
   \   0000C2   0E           INC     R6
   \   0000C3   EF           MOV     A,R7
   \   0000C4   3400         ADDC    A,#0x0
   \   0000C6   FF           MOV     R7,A
   2390          
   2391            bindReq->inClusters = NULL;
   \   0000C7   E5..         MOV     A,?V0 + 0
   \   0000C9   2412         ADD     A,#0x12
   \   0000CB   F5..         MOV     ?V0 + 6,A
   \   0000CD   E5..         MOV     A,?V0 + 1
   \   0000CF   3400         ADDC    A,#0x0
   \   0000D1   F5..         MOV     ?V0 + 7,A
   \   0000D3   85..82       MOV     DPL,?V0 + 6
   \   0000D6   F583         MOV     DPH,A
   \   0000D8   E4           CLR     A
   \   0000D9   F0           MOVX    @DPTR,A
   \   0000DA   A3           INC     DPTR
   \   0000DB   F0           MOVX    @DPTR,A
   2392            bindReq->outClusters = NULL;
   \   0000DC   E5..         MOV     A,?V0 + 0
   \   0000DE   2415         ADD     A,#0x15
   \   0000E0   F5..         MOV     ?V0 + 2,A
   \   0000E2   E5..         MOV     A,?V0 + 1
   \   0000E4   3400         ADDC    A,#0x0
   \   0000E6   F5..         MOV     ?V0 + 3,A
   \   0000E8   85..82       MOV     DPL,?V0 + 2
   \   0000EB   F583         MOV     DPH,A
   \   0000ED   E4           CLR     A
   \   0000EE   F0           MOVX    @DPTR,A
   \   0000EF   A3           INC     DPTR
   \   0000F0   F0           MOVX    @DPTR,A
   2393          
   2394            if ((bindReq->numInClusters = *msg++) &&
   2395                (bindReq->inClusters = (uint16*)osal_mem_alloc( (bindReq->numInClusters * sizeof( uint16 )))))
   \   0000F1   8E82         MOV     DPL,R6
   \   0000F3   8F83         MOV     DPH,R7
   \   0000F5   E0           MOVX    A,@DPTR
   \   0000F6   F8           MOV     R0,A
   \   0000F7   A3           INC     DPTR
   \   0000F8   0E           INC     R6
   \   0000F9   AF83         MOV     R7,DPH
   \   0000FB   E5..         MOV     A,?V0 + 0
   \   0000FD   2411         ADD     A,#0x11
   \   0000FF   F5..         MOV     ?V0 + 4,A
   \   000101   E5..         MOV     A,?V0 + 1
   \   000103   3400         ADDC    A,#0x0
   \   000105   F5..         MOV     ?V0 + 5,A
   \   000107   85..82       MOV     DPL,?V0 + 4
   \   00010A   F583         MOV     DPH,A
   \   00010C   E8           MOV     A,R0
   \   00010D   F0           MOVX    @DPTR,A
   \   00010E   605B         JZ      ??ZDO_ParseEndDeviceBindReq_0
   \   000110                ; Setup parameters for call to function osal_mem_alloc
   \   000110   C3           CLR     C
   \   000111   33           RLC     A
   \   000112   FA           MOV     R2,A
   \   000113   E4           CLR     A
   \   000114   33           RLC     A
   \   000115   FB           MOV     R3,A
   \   000116   12....       LCALL   ??osal_mem_alloc?relay
   \   000119   85..82       MOV     DPL,?V0 + 6
   \   00011C   85..83       MOV     DPH,?V0 + 7
   \   00011F   EA           MOV     A,R2
   \   000120   F0           MOVX    @DPTR,A
   \   000121   A3           INC     DPTR
   \   000122   EB           MOV     A,R3
   \   000123   F0           MOVX    @DPTR,A
   \   000124   85..82       MOV     DPL,?V0 + 6
   \   000127   85..83       MOV     DPH,?V0 + 7
   \   00012A   E0           MOVX    A,@DPTR
   \   00012B   F8           MOV     R0,A
   \   00012C   A3           INC     DPTR
   \   00012D   E0           MOVX    A,@DPTR
   \   00012E   F9           MOV     R1,A
   \   00012F   E8           MOV     A,R0
   \   000130   49           ORL     A,R1
   \   000131   6038         JZ      ??ZDO_ParseEndDeviceBindReq_0
   2396            {
   2397              msg = ZDO_ConvertOTAClusters( bindReq->numInClusters, msg, bindReq->inClusters );
   \   000133   85..82       MOV     DPL,?V0 + 4
   \   000136   85..83       MOV     DPH,?V0 + 5
   \   000139   E0           MOVX    A,@DPTR
   \   00013A   FA           MOV     R2,A
   \   00013B   6036         JZ      ??ZDO_ParseEndDeviceBindReq_1
   \   00013D   8A..         MOV     ?V0 + 6,R2
   \                     ??ZDO_ParseEndDeviceBindReq_2:
   \   00013F   8E82         MOV     DPL,R6
   \   000141   8F83         MOV     DPH,R7
   \   000143   E0           MOVX    A,@DPTR
   \   000144   FC           MOV     R4,A
   \   000145   A3           INC     DPTR
   \   000146   E0           MOVX    A,@DPTR
   \   000147   FB           MOV     R3,A
   \   000148   EC           MOV     A,R4
   \   000149   8882         MOV     DPL,R0
   \   00014B   8983         MOV     DPH,R1
   \   00014D   F0           MOVX    @DPTR,A
   \   00014E   A3           INC     DPTR
   \   00014F   EB           MOV     A,R3
   \   000150   F0           MOVX    @DPTR,A
   \   000151   EE           MOV     A,R6
   \   000152   2402         ADD     A,#0x2
   \   000154   0E           INC     R6
   \   000155   0E           INC     R6
   \   000156   EF           MOV     A,R7
   \   000157   3400         ADDC    A,#0x0
   \   000159   FF           MOV     R7,A
   \   00015A   E8           MOV     A,R0
   \   00015B   2402         ADD     A,#0x2
   \   00015D   08           INC     R0
   \   00015E   08           INC     R0
   \   00015F   E9           MOV     A,R1
   \   000160   3400         ADDC    A,#0x0
   \   000162   F9           MOV     R1,A
   \   000163   15..         DEC     ?V0 + 6
   \   000165   E5..         MOV     A,?V0 + 6
   \   000167   70D6         JNZ     ??ZDO_ParseEndDeviceBindReq_2
   2398            }
   \   000169   8008         SJMP    ??ZDO_ParseEndDeviceBindReq_1
   2399            else
   2400            {
   2401              bindReq->numInClusters = 0;
   \                     ??ZDO_ParseEndDeviceBindReq_0:
   \   00016B   85..82       MOV     DPL,?V0 + 4
   \   00016E   85..83       MOV     DPH,?V0 + 5
   \   000171   E4           CLR     A
   \   000172   F0           MOVX    @DPTR,A
   2402            }
   2403          
   2404            if ((bindReq->numOutClusters = *msg++) &&
   2405                (bindReq->outClusters = (uint16*)osal_mem_alloc((bindReq->numOutClusters * sizeof(uint16)))))
   \                     ??ZDO_ParseEndDeviceBindReq_1:
   \   000173   8E82         MOV     DPL,R6
   \   000175   8F83         MOV     DPH,R7
   \   000177   E0           MOVX    A,@DPTR
   \   000178   F8           MOV     R0,A
   \   000179   A3           INC     DPTR
   \   00017A   AE82         MOV     R6,DPL
   \   00017C   AF83         MOV     R7,DPH
   \   00017E   E5..         MOV     A,?V0 + 0
   \   000180   2414         ADD     A,#0x14
   \   000182   F5..         MOV     ?V0 + 0,A
   \   000184   E5..         MOV     A,?V0 + 1
   \   000186   3400         ADDC    A,#0x0
   \   000188   F5..         MOV     ?V0 + 1,A
   \   00018A   85..82       MOV     DPL,?V0 + 0
   \   00018D   F583         MOV     DPH,A
   \   00018F   E8           MOV     A,R0
   \   000190   F0           MOVX    @DPTR,A
   \   000191   605B         JZ      ??ZDO_ParseEndDeviceBindReq_3
   \   000193                ; Setup parameters for call to function osal_mem_alloc
   \   000193   C3           CLR     C
   \   000194   33           RLC     A
   \   000195   FA           MOV     R2,A
   \   000196   E4           CLR     A
   \   000197   33           RLC     A
   \   000198   FB           MOV     R3,A
   \   000199   12....       LCALL   ??osal_mem_alloc?relay
   \   00019C   85..82       MOV     DPL,?V0 + 2
   \   00019F   85..83       MOV     DPH,?V0 + 3
   \   0001A2   EA           MOV     A,R2
   \   0001A3   F0           MOVX    @DPTR,A
   \   0001A4   A3           INC     DPTR
   \   0001A5   EB           MOV     A,R3
   \   0001A6   F0           MOVX    @DPTR,A
   \   0001A7   85..82       MOV     DPL,?V0 + 2
   \   0001AA   85..83       MOV     DPH,?V0 + 3
   \   0001AD   E0           MOVX    A,@DPTR
   \   0001AE   F8           MOV     R0,A
   \   0001AF   A3           INC     DPTR
   \   0001B0   E0           MOVX    A,@DPTR
   \   0001B1   F9           MOV     R1,A
   \   0001B2   E8           MOV     A,R0
   \   0001B3   49           ORL     A,R1
   \   0001B4   6038         JZ      ??ZDO_ParseEndDeviceBindReq_3
   2406            {
   2407              msg = ZDO_ConvertOTAClusters( bindReq->numOutClusters, msg, bindReq->outClusters );
   \   0001B6   85..82       MOV     DPL,?V0 + 0
   \   0001B9   85..83       MOV     DPH,?V0 + 1
   \   0001BC   E0           MOVX    A,@DPTR
   \   0001BD   FA           MOV     R2,A
   \   0001BE   6036         JZ      ??ZDO_ParseEndDeviceBindReq_4
   \   0001C0   8A..         MOV     ?V0 + 2,R2
   \                     ??ZDO_ParseEndDeviceBindReq_5:
   \   0001C2   8E82         MOV     DPL,R6
   \   0001C4   8F83         MOV     DPH,R7
   \   0001C6   E0           MOVX    A,@DPTR
   \   0001C7   FC           MOV     R4,A
   \   0001C8   A3           INC     DPTR
   \   0001C9   E0           MOVX    A,@DPTR
   \   0001CA   FB           MOV     R3,A
   \   0001CB   EC           MOV     A,R4
   \   0001CC   8882         MOV     DPL,R0
   \   0001CE   8983         MOV     DPH,R1
   \   0001D0   F0           MOVX    @DPTR,A
   \   0001D1   A3           INC     DPTR
   \   0001D2   EB           MOV     A,R3
   \   0001D3   F0           MOVX    @DPTR,A
   \   0001D4   EE           MOV     A,R6
   \   0001D5   2402         ADD     A,#0x2
   \   0001D7   0E           INC     R6
   \   0001D8   0E           INC     R6
   \   0001D9   EF           MOV     A,R7
   \   0001DA   3400         ADDC    A,#0x0
   \   0001DC   FF           MOV     R7,A
   \   0001DD   E8           MOV     A,R0
   \   0001DE   2402         ADD     A,#0x2
   \   0001E0   08           INC     R0
   \   0001E1   08           INC     R0
   \   0001E2   E9           MOV     A,R1
   \   0001E3   3400         ADDC    A,#0x0
   \   0001E5   F9           MOV     R1,A
   \   0001E6   15..         DEC     ?V0 + 2
   \   0001E8   E5..         MOV     A,?V0 + 2
   \   0001EA   600A         JZ      ??ZDO_ParseEndDeviceBindReq_4
   \   0001EC   80D4         SJMP    ??ZDO_ParseEndDeviceBindReq_5
   2408            }
   2409            else
   2410            {
   2411              bindReq->numOutClusters = 0;
   \                     ??ZDO_ParseEndDeviceBindReq_3:
   \   0001EE   85..82       MOV     DPL,?V0 + 0
   \   0001F1   85..83       MOV     DPH,?V0 + 1
   \   0001F4   E4           CLR     A
   \   0001F5   F0           MOVX    @DPTR,A
   2412            }
   2413          }
   \                     ??ZDO_ParseEndDeviceBindReq_4:
   \   0001F6   02....       LJMP    ?Subroutine6 & 0xFFFF
   2414          
   2415          /*********************************************************************
   2416           * @fn          ZDO_ParseBindUnbindReq
   2417           *
   2418           * @brief       This function parses the Bind_req or Unbind_req message.
   2419           *
   2420           * @param       inMsg  - incoming message (request)
   2421           * @param       pReq - place to put parsed information
   2422           *
   2423           * @return      none
   2424           */

   \                                 In  segment BANKED_CODE, align 1, keep-with-next
   2425          void ZDO_ParseBindUnbindReq( zdoIncomingMsg_t *inMsg, ZDO_BindUnbindReq_t *pReq )
   \                     ZDO_ParseBindUnbindReq:
   2426          {
   \   000000   74F6         MOV     A,#-0xa
   \   000002   12....       LCALL   ?BANKED_ENTER_XDATA
   \   000005                ; Saved register size: 10
   \   000005                ; Auto size: 0
   \   000005   8C..         MOV     ?V0 + 0,R4
   \   000007   8D..         MOV     ?V0 + 1,R5
   2427            uint8 *msg;
   2428          
   2429            msg = inMsg->asdu;
   \   000009   EA           MOV     A,R2
   \   00000A   2413         ADD     A,#0x13
   \   00000C   F582         MOV     DPL,A
   \   00000E   EB           MOV     A,R3
   \   00000F   3400         ADDC    A,#0x0
   \   000011   F583         MOV     DPH,A
   \   000013   E0           MOVX    A,@DPTR
   \   000014   FE           MOV     R6,A
   \   000015   A3           INC     DPTR
   \   000016   E0           MOVX    A,@DPTR
   \   000017   FF           MOV     R7,A
   2430            osal_cpyExtAddr( pReq->srcAddress, msg );
   \   000018                ; Setup parameters for call to function sAddrExtCpy
   \   000018   EE           MOV     A,R6
   \   000019   FC           MOV     R4,A
   \   00001A   EF           MOV     A,R7
   \   00001B   FD           MOV     R5,A
   \   00001C   AA..         MOV     R2,?V0 + 0
   \   00001E   AB..         MOV     R3,?V0 + 1
   \   000020   12....       LCALL   ??sAddrExtCpy?relay
   2431            msg += Z_EXTADDR_LEN;
   \   000023   EE           MOV     A,R6
   \   000024   2408         ADD     A,#0x8
   \   000026   FE           MOV     R6,A
   \   000027   EF           MOV     A,R7
   \   000028   3400         ADDC    A,#0x0
   \   00002A   FF           MOV     R7,A
   2432            pReq->srcEndpoint = *msg++;
   \   00002B   8E82         MOV     DPL,R6
   \   00002D   8F83         MOV     DPH,R7
   \   00002F   E0           MOVX    A,@DPTR
   \   000030   85..82       MOV     DPL,?V0 + 0
   \   000033   85..83       MOV     DPH,?V0 + 1
   \   000036   A3           INC     DPTR
   \   000037   A3           INC     DPTR
   \   000038   A3           INC     DPTR
   \   000039   A3           INC     DPTR
   \   00003A   A3           INC     DPTR
   \   00003B   A3           INC     DPTR
   \   00003C   A3           INC     DPTR
   \   00003D   A3           INC     DPTR
   \   00003E   F0           MOVX    @DPTR,A
   \   00003F   8E82         MOV     DPL,R6
   \   000041   8F83         MOV     DPH,R7
   \   000043   A3           INC     DPTR
   \   000044   AE82         MOV     R6,DPL
   \   000046   AF83         MOV     R7,DPH
   2433            pReq->clusterID = BUILD_UINT16( msg[0], msg[1] );
   \   000048   E0           MOVX    A,@DPTR
   \   000049   FA           MOV     R2,A
   \   00004A   A3           INC     DPTR
   \   00004B   E0           MOVX    A,@DPTR
   \   00004C   F9           MOV     R1,A
   \   00004D   EA           MOV     A,R2
   \   00004E   85..82       MOV     DPL,?V0 + 0
   \   000051   85..83       MOV     DPH,?V0 + 1
   \   000054   A3           INC     DPTR
   \   000055   A3           INC     DPTR
   \   000056   A3           INC     DPTR
   \   000057   A3           INC     DPTR
   \   000058   A3           INC     DPTR
   \   000059   A3           INC     DPTR
   \   00005A   A3           INC     DPTR
   \   00005B   A3           INC     DPTR
   \   00005C   A3           INC     DPTR
   \   00005D   F0           MOVX    @DPTR,A
   \   00005E   A3           INC     DPTR
   \   00005F   E9           MOV     A,R1
   \   000060   F0           MOVX    @DPTR,A
   2434            msg += 2;
   \   000061   EE           MOV     A,R6
   \   000062   2402         ADD     A,#0x2
   \   000064   0E           INC     R6
   \   000065   0E           INC     R6
   \   000066   EF           MOV     A,R7
   \   000067   3400         ADDC    A,#0x0
   \   000069   FF           MOV     R7,A
   2435            pReq->dstAddress.addrMode = *msg++;
   \   00006A   8E82         MOV     DPL,R6
   \   00006C   8F83         MOV     DPH,R7
   \   00006E   E0           MOVX    A,@DPTR
   \   00006F   F8           MOV     R0,A
   \   000070   E5..         MOV     A,?V0 + 0
   \   000072   2413         ADD     A,#0x13
   \   000074   F582         MOV     DPL,A
   \   000076   E5..         MOV     A,?V0 + 1
   \   000078   3400         ADDC    A,#0x0
   \   00007A   F583         MOV     DPH,A
   \   00007C   E8           MOV     A,R0
   \   00007D   F0           MOVX    @DPTR,A
   \   00007E   8E82         MOV     DPL,R6
   \   000080   8F83         MOV     DPH,R7
   \   000082   A3           INC     DPTR
   \   000083   0E           INC     R6
   \   000084   AF83         MOV     R7,DPH
   2436            if ( pReq->dstAddress.addrMode == Addr64Bit )
   \   000086   E5..         MOV     A,?V0 + 0
   \   000088   240B         ADD     A,#0xb
   \   00008A   FA           MOV     R2,A
   \   00008B   E5..         MOV     A,?V0 + 1
   \   00008D   3400         ADDC    A,#0x0
   \   00008F   FB           MOV     R3,A
   \   000090   7403         MOV     A,#0x3
   \   000092   68           XRL     A,R0
   \   000093   7026         JNZ     ??ZDO_ParseBindUnbindReq_0
   2437            {
   2438              osal_cpyExtAddr( pReq->dstAddress.addr.extAddr, msg );
   \   000095                ; Setup parameters for call to function sAddrExtCpy
   \   000095   EE           MOV     A,R6
   \   000096   FC           MOV     R4,A
   \   000097   EF           MOV     A,R7
   \   000098   FD           MOV     R5,A
   \   000099   12....       LCALL   ??sAddrExtCpy?relay
   2439              msg += Z_EXTADDR_LEN;
   2440              pReq->dstEndpoint = *msg;
   \   00009C   8E82         MOV     DPL,R6
   \   00009E   8F83         MOV     DPH,R7
   \   0000A0   A3           INC     DPTR
   \   0000A1   A3           INC     DPTR
   \   0000A2   A3           INC     DPTR
   \   0000A3   A3           INC     DPTR
   \   0000A4   A3           INC     DPTR
   \   0000A5   A3           INC     DPTR
   \   0000A6   A3           INC     DPTR
   \   0000A7   A3           INC     DPTR
   \   0000A8   E0           MOVX    A,@DPTR
   \   0000A9   C0E0         PUSH    A
   \   0000AB   E5..         MOV     A,?V0 + 0
   \   0000AD   2414         ADD     A,#0x14
   \   0000AF   F582         MOV     DPL,A
   \   0000B1   E5..         MOV     A,?V0 + 1
   \   0000B3   3400         ADDC    A,#0x0
   \   0000B5   F583         MOV     DPH,A
   \   0000B7   D0E0         POP     A
   \   0000B9   800D         SJMP    ??ZDO_ParseBindUnbindReq_1
   2441            }
   2442            else
   2443            {
   2444              // copy group address
   2445              pReq->dstAddress.addr.shortAddr = BUILD_UINT16( msg[0], msg[1] );
   \                     ??ZDO_ParseBindUnbindReq_0:
   \   0000BB   E0           MOVX    A,@DPTR
   \   0000BC   FC           MOV     R4,A
   \   0000BD   A3           INC     DPTR
   \   0000BE   E0           MOVX    A,@DPTR
   \   0000BF   F9           MOV     R1,A
   \   0000C0   EC           MOV     A,R4
   \   0000C1   8A82         MOV     DPL,R2
   \   0000C3   8B83         MOV     DPH,R3
   \   0000C5   F0           MOVX    @DPTR,A
   \   0000C6   A3           INC     DPTR
   \   0000C7   E9           MOV     A,R1
   \                     ??ZDO_ParseBindUnbindReq_1:
   \   0000C8   F0           MOVX    @DPTR,A
   2446            }
   2447          }
   \   0000C9   02....       LJMP    ??Subroutine12_0 & 0xFFFF
   2448          
   2449          /*********************************************************************
   2450           * @fn      ZDO_ParseAddrRsp
   2451           *
   2452           * @brief   Turns the inMsg (incoming message) into the out parsed
   2453           *          structure.
   2454           *
   2455           * @param   inMsg - incoming message
   2456           *
   2457           * @return  pointer to parsed structures.  This structure was
   2458           *          allocated using osal_mem_alloc, so it must be freed
   2459           *          by the calling function [osal_mem_free()].
   2460           */

   \                                 In  segment BANKED_CODE, align 1, keep-with-next
   2461          ZDO_NwkIEEEAddrResp_t *ZDO_ParseAddrRsp( zdoIncomingMsg_t *inMsg )
   \                     ZDO_ParseAddrRsp:
   2462          {
   \   000000   74F2         MOV     A,#-0xe
   \   000002   12....       LCALL   ?BANKED_ENTER_XDATA
   \   000005                ; Saved register size: 14
   \   000005                ; Auto size: 0
   \   000005   EA           MOV     A,R2
   \   000006   FE           MOV     R6,A
   \   000007   EB           MOV     A,R3
   \   000008   FF           MOV     R7,A
   2463            ZDO_NwkIEEEAddrResp_t *rsp;
   2464            uint8 *msg;
   2465            byte cnt = 0;
   2466          
   2467            // Calculate the number of items in the list
   2468            if ( inMsg->asduLen > (1 + Z_EXTADDR_LEN + 2) )
   \   000009   EE           MOV     A,R6
   \   00000A   2410         ADD     A,#0x10
   \   00000C   F582         MOV     DPL,A
   \   00000E   EF           MOV     A,R7
   \   00000F   3400         ADDC    A,#0x0
   \   000011   F583         MOV     DPH,A
   \   000013   E0           MOVX    A,@DPTR
   \   000014   C3           CLR     C
   \   000015   940C         SUBB    A,#0xc
   \   000017   401C         JC      ??ZDO_ParseAddrRsp_0
   2469              cnt = inMsg->asdu[1 + Z_EXTADDR_LEN + 2];
   \   000019   EE           MOV     A,R6
   \   00001A   2413         ADD     A,#0x13
   \   00001C   F582         MOV     DPL,A
   \   00001E   EF           MOV     A,R7
   \   00001F   3400         ADDC    A,#0x0
   \   000021   F583         MOV     DPH,A
   \   000023   E0           MOVX    A,@DPTR
   \   000024   240B         ADD     A,#0xb
   \   000026   F8           MOV     R0,A
   \   000027   A3           INC     DPTR
   \   000028   E0           MOVX    A,@DPTR
   \   000029   3400         ADDC    A,#0x0
   \   00002B   F9           MOV     R1,A
   \   00002C   8882         MOV     DPL,R0
   \   00002E   8983         MOV     DPH,R1
   \   000030   E0           MOVX    A,@DPTR
   \   000031   F5..         MOV     ?V0 + 2,A
   \   000033   8003         SJMP    ??ZDO_ParseAddrRsp_1
   2470            else
   2471              cnt = 0;
   \                     ??ZDO_ParseAddrRsp_0:
   \   000035   75..00       MOV     ?V0 + 2,#0x0
   2472          
   2473            // Make buffer
   2474            rsp = (ZDO_NwkIEEEAddrResp_t *)osal_mem_alloc( sizeof(ZDO_NwkIEEEAddrResp_t) + (cnt * sizeof ( uint16 )) );
   \                     ??ZDO_ParseAddrRsp_1:
   \   000038                ; Setup parameters for call to function osal_mem_alloc
   \   000038   E5..         MOV     A,?V0 + 2
   \   00003A   C3           CLR     C
   \   00003B   33           RLC     A
   \   00003C   F8           MOV     R0,A
   \   00003D   E4           CLR     A
   \   00003E   33           RLC     A
   \   00003F   F9           MOV     R1,A
   \   000040   E8           MOV     A,R0
   \   000041   240D         ADD     A,#0xd
   \   000043   FA           MOV     R2,A
   \   000044   E9           MOV     A,R1
   \   000045   3400         ADDC    A,#0x0
   \   000047   FB           MOV     R3,A
   \   000048   12....       LCALL   ??osal_mem_alloc?relay
   \   00004B   8A..         MOV     ?V0 + 0,R2
   \   00004D   8B..         MOV     ?V0 + 1,R3
   2475          
   2476            if ( rsp )
   \   00004F   EA           MOV     A,R2
   \   000050   45..         ORL     A,?V0 + 1
   \   000052   7003         JNZ     $+5
   \   000054   02....       LJMP    ??ZDO_ParseAddrRsp_2 & 0xFFFF
   2477            {
   2478              msg = inMsg->asdu;
   \   000057   EE           MOV     A,R6
   \   000058   2413         ADD     A,#0x13
   \   00005A   F582         MOV     DPL,A
   \   00005C   EF           MOV     A,R7
   \   00005D   3400         ADDC    A,#0x0
   \   00005F   F583         MOV     DPH,A
   \   000061   E0           MOVX    A,@DPTR
   \   000062   FE           MOV     R6,A
   \   000063   A3           INC     DPTR
   \   000064   E0           MOVX    A,@DPTR
   \   000065   FF           MOV     R7,A
   2479          
   2480              rsp->status = *msg++;
   \   000066   8E82         MOV     DPL,R6
   \   000068   8F83         MOV     DPH,R7
   \   00006A   E0           MOVX    A,@DPTR
   \   00006B   8A82         MOV     DPL,R2
   \   00006D   8B83         MOV     DPH,R3
   \   00006F   F0           MOVX    @DPTR,A
   \   000070   8E82         MOV     DPL,R6
   \   000072   8F83         MOV     DPH,R7
   \   000074   A3           INC     DPTR
   \   000075   AE82         MOV     R6,DPL
   \   000077   AF83         MOV     R7,DPH
   2481              if ( rsp->status == ZDO_SUCCESS )
   \   000079   6003         JZ      $+5
   \   00007B   02....       LJMP    ??ZDO_ParseAddrRsp_2 & 0xFFFF
   2482              {
   2483                osal_cpyExtAddr( rsp->extAddr, msg );
   \   00007E                ; Setup parameters for call to function sAddrExtCpy
   \   00007E   EE           MOV     A,R6
   \   00007F   FC           MOV     R4,A
   \   000080   EF           MOV     A,R7
   \   000081   FD           MOV     R5,A
   \   000082   EA           MOV     A,R2
   \   000083   2403         ADD     A,#0x3
   \   000085   0A           INC     R2
   \   000086   0A           INC     R2
   \   000087   0A           INC     R2
   \   000088   EB           MOV     A,R3
   \   000089   3400         ADDC    A,#0x0
   \   00008B   FB           MOV     R3,A
   \   00008C   12....       LCALL   ??sAddrExtCpy?relay
   2484                msg += Z_EXTADDR_LEN;
   \   00008F   EE           MOV     A,R6
   \   000090   2408         ADD     A,#0x8
   \   000092   FE           MOV     R6,A
   \   000093   EF           MOV     A,R7
   \   000094   3400         ADDC    A,#0x0
   \   000096   FF           MOV     R7,A
   2485                rsp->nwkAddr = BUILD_UINT16( msg[0], msg[1] );
   \   000097   8E82         MOV     DPL,R6
   \   000099   8F83         MOV     DPH,R7
   \   00009B   E0           MOVX    A,@DPTR
   \   00009C   FA           MOV     R2,A
   \   00009D   A3           INC     DPTR
   \   00009E   E0           MOVX    A,@DPTR
   \   00009F   F9           MOV     R1,A
   \   0000A0   EA           MOV     A,R2
   \   0000A1   85..82       MOV     DPL,?V0 + 0
   \   0000A4   85..83       MOV     DPH,?V0 + 1
   \   0000A7   A3           INC     DPTR
   \   0000A8   F0           MOVX    @DPTR,A
   \   0000A9   A3           INC     DPTR
   \   0000AA   E9           MOV     A,R1
   \   0000AB   F0           MOVX    @DPTR,A
   2486          
   2487                msg += 2;
   \   0000AC   EE           MOV     A,R6
   \   0000AD   2402         ADD     A,#0x2
   \   0000AF   0E           INC     R6
   \   0000B0   0E           INC     R6
   \   0000B1   EF           MOV     A,R7
   \   0000B2   3400         ADDC    A,#0x0
   \   0000B4   FF           MOV     R7,A
   2488                rsp->numAssocDevs = 0;
   \   0000B5   E5..         MOV     A,?V0 + 0
   \   0000B7   240B         ADD     A,#0xb
   \   0000B9   F8           MOV     R0,A
   \   0000BA   E5..         MOV     A,?V0 + 1
   \   0000BC   3400         ADDC    A,#0x0
   \   0000BE   F9           MOV     R1,A
   \   0000BF   E8           MOV     A,R0
   \   0000C0   FA           MOV     R2,A
   \   0000C1   E9           MOV     A,R1
   \   0000C2   FB           MOV     R3,A
   \   0000C3   8A82         MOV     DPL,R2
   \   0000C5   8B83         MOV     DPH,R3
   \   0000C7   E4           CLR     A
   \   0000C8   F0           MOVX    @DPTR,A
   2489          
   2490                // StartIndex field is only present if NumAssocDev field is non-zero.
   2491                if ( cnt > 0 )
   \   0000C9   E5..         MOV     A,?V0 + 2
   \   0000CB   6064         JZ      ??ZDO_ParseAddrRsp_2
   2492                {
   2493                  uint16 *pList = &(rsp->devList[0]);
   \   0000CD   E5..         MOV     A,?V0 + 0
   \   0000CF   240D         ADD     A,#0xd
   \   0000D1   08           INC     R0
   \   0000D2   08           INC     R0
   \   0000D3   E5..         MOV     A,?V0 + 1
   \   0000D5   3400         ADDC    A,#0x0
   \   0000D7   F9           MOV     R1,A
   2494                  byte n = cnt;
   \   0000D8   85....       MOV     ?V0 + 3,?V0 + 2
   2495          
   2496                  rsp->numAssocDevs = *msg++;
   \   0000DB   8E82         MOV     DPL,R6
   \   0000DD   8F83         MOV     DPH,R7
   \   0000DF   E0           MOVX    A,@DPTR
   \   0000E0   8A82         MOV     DPL,R2
   \   0000E2   8B83         MOV     DPH,R3
   \   0000E4   F0           MOVX    @DPTR,A
   \   0000E5   8E82         MOV     DPL,R6
   \   0000E7   8F83         MOV     DPH,R7
   \   0000E9   A3           INC     DPTR
   \   0000EA   0E           INC     R6
   \   0000EB   AF83         MOV     R7,DPH
   2497                  rsp->startIndex = *msg++;
   \   0000ED   E0           MOVX    A,@DPTR
   \   0000EE   C0E0         PUSH    A
   \   0000F0   E5..         MOV     A,?V0 + 0
   \   0000F2   240C         ADD     A,#0xc
   \   0000F4   F582         MOV     DPL,A
   \   0000F6   E5..         MOV     A,?V0 + 1
   \   0000F8   3400         ADDC    A,#0x0
   \   0000FA   F583         MOV     DPH,A
   \   0000FC   D0E0         POP     A
   \   0000FE   F0           MOVX    @DPTR,A
   \   0000FF   8E82         MOV     DPL,R6
   \   000101   8F83         MOV     DPH,R7
   \   000103   A3           INC     DPTR
   \   000104   0E           INC     R6
   \   000105   AF83         MOV     R7,DPH
   2498          
   2499                  while ( n != 0 )
   2500                  {
   2501                    *pList++ = BUILD_UINT16( msg[0], msg[1] );
   \                     ??ZDO_ParseAddrRsp_3:
   \   000107   8E82         MOV     DPL,R6
   \   000109   8F83         MOV     DPH,R7
   \   00010B   E0           MOVX    A,@DPTR
   \   00010C   FC           MOV     R4,A
   \   00010D   A3           INC     DPTR
   \   00010E   E0           MOVX    A,@DPTR
   \   00010F   FB           MOV     R3,A
   \   000110   EC           MOV     A,R4
   \   000111   8882         MOV     DPL,R0
   \   000113   8983         MOV     DPH,R1
   \   000115   F0           MOVX    @DPTR,A
   \   000116   A3           INC     DPTR
   \   000117   EB           MOV     A,R3
   \   000118   F0           MOVX    @DPTR,A
   \   000119   E8           MOV     A,R0
   \   00011A   2402         ADD     A,#0x2
   \   00011C   08           INC     R0
   \   00011D   08           INC     R0
   \   00011E   E9           MOV     A,R1
   \   00011F   3400         ADDC    A,#0x0
   \   000121   F9           MOV     R1,A
   2502                    msg += sizeof( uint16 );
   \   000122   EE           MOV     A,R6
   \   000123   2402         ADD     A,#0x2
   \   000125   0E           INC     R6
   \   000126   0E           INC     R6
   \   000127   EF           MOV     A,R7
   \   000128   3400         ADDC    A,#0x0
   \   00012A   FF           MOV     R7,A
   2503                    n--;
   \   00012B   15..         DEC     ?V0 + 3
   \   00012D   E5..         MOV     A,?V0 + 3
   \   00012F   70D6         JNZ     ??ZDO_ParseAddrRsp_3
   2504                  }
   2505                }
   2506              }
   2507            }
   2508            return ( rsp );
   \                     ??ZDO_ParseAddrRsp_2:
   \   000131   AA..         MOV     R2,?V0 + 0
   \   000133   AB..         MOV     R3,?V0 + 1
   \   000135   02....       LJMP    ?Subroutine4 & 0xFFFF
   2509          }
   2510          
   2511          /*********************************************************************
   2512           * @fn          ZDO_ParseNodeDescRsp
   2513           *
   2514           * @brief       This function parses the Node_Desc_rsp message.
   2515           *
   2516           * @param       inMsg - incoming message
   2517           * @param       pNDRsp - place to parse the message into
   2518           *
   2519           * @return      none
   2520           */

   \                                 In  segment BANKED_CODE, align 1, keep-with-next
   2521          void ZDO_ParseNodeDescRsp( zdoIncomingMsg_t *inMsg, ZDO_NodeDescRsp_t *pNDRsp )
   \                     ZDO_ParseNodeDescRsp:
   2522          {
   \   000000   74F7         MOV     A,#-0x9
   \   000002   12....       LCALL   ?BANKED_ENTER_XDATA
   \   000005                ; Saved register size: 9
   \   000005                ; Auto size: 0
   2523            uint8 *msg;
   2524          
   2525            msg = inMsg->asdu;
   \   000005   EA           MOV     A,R2
   \   000006   2413         ADD     A,#0x13
   \   000008   F582         MOV     DPL,A
   \   00000A   EB           MOV     A,R3
   \   00000B   3400         ADDC    A,#0x0
   \   00000D   F583         MOV     DPH,A
   \   00000F   E0           MOVX    A,@DPTR
   \   000010   F8           MOV     R0,A
   \   000011   A3           INC     DPTR
   \   000012   E0           MOVX    A,@DPTR
   \   000013   F9           MOV     R1,A
   2526          
   2527            pNDRsp->status = *msg++;
   \   000014   8882         MOV     DPL,R0
   \   000016   8983         MOV     DPH,R1
   \   000018   E0           MOVX    A,@DPTR
   \   000019   8C82         MOV     DPL,R4
   \   00001B   8D83         MOV     DPH,R5
   \   00001D   F0           MOVX    @DPTR,A
   \   00001E   8882         MOV     DPL,R0
   \   000020   8983         MOV     DPH,R1
   \   000022   A3           INC     DPTR
   \   000023   A882         MOV     R0,DPL
   \   000025   A983         MOV     R1,DPH
   2528            pNDRsp->nwkAddr = BUILD_UINT16( msg[0], msg[1] );
   \   000027   E0           MOVX    A,@DPTR
   \   000028   FE           MOV     R6,A
   \   000029   A3           INC     DPTR
   \   00002A   E0           MOVX    A,@DPTR
   \   00002B   FB           MOV     R3,A
   \   00002C   EE           MOV     A,R6
   \   00002D   8C82         MOV     DPL,R4
   \   00002F   8D83         MOV     DPH,R5
   \   000031   A3           INC     DPTR
   \   000032   F0           MOVX    @DPTR,A
   \   000033   A3           INC     DPTR
   \   000034   EB           MOV     A,R3
   \   000035   F0           MOVX    @DPTR,A
   2529          
   2530            if ( pNDRsp->status == ZDP_SUCCESS )
   \   000036   8C82         MOV     DPL,R4
   \   000038   8D83         MOV     DPH,R5
   \   00003A   E0           MOVX    A,@DPTR
   \   00003B   6003         JZ      $+5
   \   00003D   02....       LJMP    ??ZDO_ParseNodeDescRsp_0 & 0xFFFF
   2531            {
   2532              msg += 2;
   \   000040   E8           MOV     A,R0
   \   000041   2402         ADD     A,#0x2
   \   000043   08           INC     R0
   \   000044   08           INC     R0
   \   000045   E9           MOV     A,R1
   \   000046   3400         ADDC    A,#0x0
   \   000048   F9           MOV     R1,A
   2533              pNDRsp->nodeDesc.LogicalType = *msg & 0x07;
   \   000049   EC           MOV     A,R4
   \   00004A   2403         ADD     A,#0x3
   \   00004C   FA           MOV     R2,A
   \   00004D   ED           MOV     A,R5
   \   00004E   3400         ADDC    A,#0x0
   \   000050   FB           MOV     R3,A
   \   000051   8882         MOV     DPL,R0
   \   000053   8983         MOV     DPH,R1
   \   000055   E0           MOVX    A,@DPTR
   \   000056   5407         ANL     A,#0x7
   \   000058   FE           MOV     R6,A
   \   000059   8A82         MOV     DPL,R2
   \   00005B   8B83         MOV     DPH,R3
   \   00005D   E0           MOVX    A,@DPTR
   \   00005E   54F8         ANL     A,#0xf8
   \   000060   4E           ORL     A,R6
   \   000061   F0           MOVX    @DPTR,A
   2534          
   2535              pNDRsp->nodeDesc.ComplexDescAvail = ( *msg & 0x08 ) >> 3;
   \   000062   8882         MOV     DPL,R0
   \   000064   8983         MOV     DPH,R1
   \   000066   E0           MOVX    A,@DPTR
   \   000067   A2E3         MOV     C,0xE0 /* A   */.3
   \   000069   8B83         MOV     DPH,R3
   \   00006B   8A82         MOV     DPL,R2
   \   00006D   E0           MOVX    A,@DPTR
   \   00006E   92E3         MOV     0xE0 /* A   */.3,C
   \   000070   F0           MOVX    @DPTR,A
   2536              pNDRsp->nodeDesc.UserDescAvail = ( *msg & 0x10 ) >> 4;
   \   000071   8882         MOV     DPL,R0
   \   000073   8983         MOV     DPH,R1
   \   000075   E0           MOVX    A,@DPTR
   \   000076   A2E4         MOV     C,0xE0 /* A   */.4
   \   000078   8B83         MOV     DPH,R3
   \   00007A   8A82         MOV     DPL,R2
   \   00007C   E0           MOVX    A,@DPTR
   \   00007D   92E4         MOV     0xE0 /* A   */.4,C
   \   00007F   F0           MOVX    @DPTR,A
   2537          
   2538              msg++;  // Reserved bits.
   \   000080   8882         MOV     DPL,R0
   \   000082   8983         MOV     DPH,R1
   \   000084   A3           INC     DPTR
   \   000085   08           INC     R0
   \   000086   A983         MOV     R1,DPH
   2539              pNDRsp->nodeDesc.FrequencyBand = (*msg >> 3) & 0x1f;
   \   000088   EC           MOV     A,R4
   \   000089   2404         ADD     A,#0x4
   \   00008B   0A           INC     R2
   \   00008C   ED           MOV     A,R5
   \   00008D   3400         ADDC    A,#0x0
   \   00008F   FB           MOV     R3,A
   \   000090   8A82         MOV     DPL,R2
   \   000092   8B83         MOV     DPH,R3
   \   000094   E0           MOVX    A,@DPTR
   \   000095   5407         ANL     A,#0x7
   \   000097   FE           MOV     R6,A
   \   000098   8882         MOV     DPL,R0
   \   00009A   8983         MOV     DPH,R1
   \   00009C   E0           MOVX    A,@DPTR
   \   00009D   54F8         ANL     A,#0xf8
   \   00009F   4E           ORL     A,R6
   \   0000A0   FE           MOV     R6,A
   \   0000A1   8A82         MOV     DPL,R2
   \   0000A3   8B83         MOV     DPH,R3
   \   0000A5   F0           MOVX    @DPTR,A
   2540              pNDRsp->nodeDesc.APSFlags = *msg++ & 0x07;
   \   0000A6   8882         MOV     DPL,R0
   \   0000A8   8983         MOV     DPH,R1
   \   0000AA   E0           MOVX    A,@DPTR
   \   0000AB   5407         ANL     A,#0x7
   \   0000AD   FF           MOV     R7,A
   \   0000AE   A3           INC     DPTR
   \   0000AF   08           INC     R0
   \   0000B0   A983         MOV     R1,DPH
   \   0000B2   74F8         MOV     A,#-0x8
   \   0000B4   5E           ANL     A,R6
   \   0000B5   4F           ORL     A,R7
   \   0000B6   8A82         MOV     DPL,R2
   \   0000B8   8B83         MOV     DPH,R3
   \   0000BA   F0           MOVX    @DPTR,A
   2541              pNDRsp->nodeDesc.CapabilityFlags = *msg++;
   \   0000BB   8882         MOV     DPL,R0
   \   0000BD   8983         MOV     DPH,R1
   \   0000BF   E0           MOVX    A,@DPTR
   \   0000C0   8C82         MOV     DPL,R4
   \   0000C2   8D83         MOV     DPH,R5
   \   0000C4   A3           INC     DPTR
   \   0000C5   A3           INC     DPTR
   \   0000C6   A3           INC     DPTR
   \   0000C7   A3           INC     DPTR
   \   0000C8   A3           INC     DPTR
   \   0000C9   F0           MOVX    @DPTR,A
   \   0000CA   8882         MOV     DPL,R0
   \   0000CC   8983         MOV     DPH,R1
   \   0000CE   A3           INC     DPTR
   \   0000CF   08           INC     R0
   \   0000D0   A983         MOV     R1,DPH
   2542              pNDRsp->nodeDesc.ManufacturerCode[0] = *msg++;
   \   0000D2   E0           MOVX    A,@DPTR
   \   0000D3   8C82         MOV     DPL,R4
   \   0000D5   8D83         MOV     DPH,R5
   \   0000D7   A3           INC     DPTR
   \   0000D8   A3           INC     DPTR
   \   0000D9   A3           INC     DPTR
   \   0000DA   A3           INC     DPTR
   \   0000DB   A3           INC     DPTR
   \   0000DC   A3           INC     DPTR
   \   0000DD   F0           MOVX    @DPTR,A
   \   0000DE   8882         MOV     DPL,R0
   \   0000E0   8983         MOV     DPH,R1
   \   0000E2   A3           INC     DPTR
   \   0000E3   08           INC     R0
   \   0000E4   A983         MOV     R1,DPH
   2543              pNDRsp->nodeDesc.ManufacturerCode[1] = *msg++;
   \   0000E6   E0           MOVX    A,@DPTR
   \   0000E7   8C82         MOV     DPL,R4
   \   0000E9   8D83         MOV     DPH,R5
   \   0000EB   A3           INC     DPTR
   \   0000EC   A3           INC     DPTR
   \   0000ED   A3           INC     DPTR
   \   0000EE   A3           INC     DPTR
   \   0000EF   A3           INC     DPTR
   \   0000F0   A3           INC     DPTR
   \   0000F1   A3           INC     DPTR
   \   0000F2   F0           MOVX    @DPTR,A
   \   0000F3   8882         MOV     DPL,R0
   \   0000F5   8983         MOV     DPH,R1
   \   0000F7   A3           INC     DPTR
   \   0000F8   08           INC     R0
   \   0000F9   A983         MOV     R1,DPH
   2544              pNDRsp->nodeDesc.MaxBufferSize = *msg++;
   \   0000FB   E0           MOVX    A,@DPTR
   \   0000FC   8C82         MOV     DPL,R4
   \   0000FE   8D83         MOV     DPH,R5
   \   000100   A3           INC     DPTR
   \   000101   A3           INC     DPTR
   \   000102   A3           INC     DPTR
   \   000103   A3           INC     DPTR
   \   000104   A3           INC     DPTR
   \   000105   A3           INC     DPTR
   \   000106   A3           INC     DPTR
   \   000107   A3           INC     DPTR
   \   000108   F0           MOVX    @DPTR,A
   \   000109   8882         MOV     DPL,R0
   \   00010B   8983         MOV     DPH,R1
   \   00010D   A3           INC     DPTR
   \   00010E   08           INC     R0
   \   00010F   A983         MOV     R1,DPH
   2545              pNDRsp->nodeDesc.MaxInTransferSize[0] = *msg++;
   \   000111   E0           MOVX    A,@DPTR
   \   000112   8C82         MOV     DPL,R4
   \   000114   8D83         MOV     DPH,R5
   \   000116   A3           INC     DPTR
   \   000117   A3           INC     DPTR
   \   000118   A3           INC     DPTR
   \   000119   A3           INC     DPTR
   \   00011A   A3           INC     DPTR
   \   00011B   A3           INC     DPTR
   \   00011C   A3           INC     DPTR
   \   00011D   A3           INC     DPTR
   \   00011E   A3           INC     DPTR
   \   00011F   F0           MOVX    @DPTR,A
   \   000120   8882         MOV     DPL,R0
   \   000122   8983         MOV     DPH,R1
   \   000124   A3           INC     DPTR
   \   000125   08           INC     R0
   \   000126   A983         MOV     R1,DPH
   2546              pNDRsp->nodeDesc.MaxInTransferSize[1] = *msg++;
   \   000128   E0           MOVX    A,@DPTR
   \   000129   8C82         MOV     DPL,R4
   \   00012B   8D83         MOV     DPH,R5
   \   00012D   A3           INC     DPTR
   \   00012E   A3           INC     DPTR
   \   00012F   A3           INC     DPTR
   \   000130   A3           INC     DPTR
   \   000131   A3           INC     DPTR
   \   000132   A3           INC     DPTR
   \   000133   A3           INC     DPTR
   \   000134   A3           INC     DPTR
   \   000135   A3           INC     DPTR
   \   000136   A3           INC     DPTR
   \   000137   F0           MOVX    @DPTR,A
   \   000138   8882         MOV     DPL,R0
   \   00013A   8983         MOV     DPH,R1
   \   00013C   A3           INC     DPTR
   \   00013D   08           INC     R0
   \   00013E   A983         MOV     R1,DPH
   2547              pNDRsp->nodeDesc.ServerMask = BUILD_UINT16( msg[0], msg[1] );
   \   000140   E0           MOVX    A,@DPTR
   \   000141   FE           MOV     R6,A
   \   000142   A3           INC     DPTR
   \   000143   E0           MOVX    A,@DPTR
   \   000144   FB           MOV     R3,A
   \   000145   EE           MOV     A,R6
   \   000146   FA           MOV     R2,A
   \   000147   EC           MOV     A,R4
   \   000148   240B         ADD     A,#0xb
   \   00014A   F582         MOV     DPL,A
   \   00014C   ED           MOV     A,R5
   \   00014D   3400         ADDC    A,#0x0
   \   00014F   F583         MOV     DPH,A
   \   000151   EA           MOV     A,R2
   \   000152   F0           MOVX    @DPTR,A
   \   000153   A3           INC     DPTR
   \   000154   EB           MOV     A,R3
   \   000155   F0           MOVX    @DPTR,A
   2548              msg += 2;
   \   000156   E8           MOV     A,R0
   \   000157   2402         ADD     A,#0x2
   \   000159   08           INC     R0
   \   00015A   08           INC     R0
   \   00015B   E9           MOV     A,R1
   \   00015C   3400         ADDC    A,#0x0
   \   00015E   F9           MOV     R1,A
   2549              pNDRsp->nodeDesc.MaxOutTransferSize[0] = *msg++;
   \   00015F   8882         MOV     DPL,R0
   \   000161   8983         MOV     DPH,R1
   \   000163   E0           MOVX    A,@DPTR
   \   000164   C0E0         PUSH    A
   \   000166   EC           MOV     A,R4
   \   000167   240D         ADD     A,#0xd
   \   000169   F582         MOV     DPL,A
   \   00016B   ED           MOV     A,R5
   \   00016C   3400         ADDC    A,#0x0
   \   00016E   F583         MOV     DPH,A
   \   000170   D0E0         POP     A
   \   000172   F0           MOVX    @DPTR,A
   \   000173   8882         MOV     DPL,R0
   \   000175   8983         MOV     DPH,R1
   \   000177   A3           INC     DPTR
   \   000178   08           INC     R0
   \   000179   A983         MOV     R1,DPH
   2550              pNDRsp->nodeDesc.MaxOutTransferSize[1] = *msg++;
   \   00017B   E0           MOVX    A,@DPTR
   \   00017C   C0E0         PUSH    A
   \   00017E   EC           MOV     A,R4
   \   00017F   240E         ADD     A,#0xe
   \   000181   F582         MOV     DPL,A
   \   000183   ED           MOV     A,R5
   \   000184   3400         ADDC    A,#0x0
   \   000186   F583         MOV     DPH,A
   \   000188   D0E0         POP     A
   \   00018A   F0           MOVX    @DPTR,A
   \   00018B   8882         MOV     DPL,R0
   \   00018D   8983         MOV     DPH,R1
   \   00018F   A3           INC     DPTR
   2551              pNDRsp->nodeDesc.DescriptorCapability = *msg;
   \   000190   E0           MOVX    A,@DPTR
   \   000191   C0E0         PUSH    A
   \   000193   EC           MOV     A,R4
   \   000194   240F         ADD     A,#0xf
   \   000196   F582         MOV     DPL,A
   \   000198   ED           MOV     A,R5
   \   000199   3400         ADDC    A,#0x0
   \   00019B   F583         MOV     DPH,A
   \   00019D   D0E0         POP     A
   \   00019F   F0           MOVX    @DPTR,A
   2552            }
   2553          }
   \                     ??ZDO_ParseNodeDescRsp_0:
   \   0001A0   02....       LJMP    ?Subroutine1 & 0xFFFF
   2554          
   2555          /*********************************************************************
   2556           * @fn          ZDO_ParesPowerDescRsp
   2557           *
   2558           * @brief       This function parses the Power_Desc_rsp message.
   2559           *
   2560           * @param       inMsg  - incoming message
   2561           * @param       pNPRsp - place to parse the message into
   2562           *
   2563           * @return      none
   2564           */

   \                                 In  segment BANKED_CODE, align 1, keep-with-next
   2565          void ZDO_ParsePowerDescRsp( zdoIncomingMsg_t *inMsg, ZDO_PowerRsp_t *pNPRsp )
   \                     ZDO_ParsePowerDescRsp:
   2566          {
   \   000000   74F7         MOV     A,#-0x9
   \   000002   12....       LCALL   ?BANKED_ENTER_XDATA
   \   000005                ; Saved register size: 9
   \   000005                ; Auto size: 0
   2567            uint8 *msg;
   2568          
   2569            msg = inMsg->asdu;
   \   000005   EA           MOV     A,R2
   \   000006   2413         ADD     A,#0x13
   \   000008   F582         MOV     DPL,A
   \   00000A   EB           MOV     A,R3
   \   00000B   3400         ADDC    A,#0x0
   \   00000D   F583         MOV     DPH,A
   \   00000F   E0           MOVX    A,@DPTR
   \   000010   F8           MOV     R0,A
   \   000011   A3           INC     DPTR
   \   000012   E0           MOVX    A,@DPTR
   \   000013   F9           MOV     R1,A
   2570            pNPRsp->status = *msg++;
   \   000014   8882         MOV     DPL,R0
   \   000016   8983         MOV     DPH,R1
   \   000018   E0           MOVX    A,@DPTR
   \   000019   8C82         MOV     DPL,R4
   \   00001B   8D83         MOV     DPH,R5
   \   00001D   F0           MOVX    @DPTR,A
   \   00001E   8882         MOV     DPL,R0
   \   000020   8983         MOV     DPH,R1
   \   000022   A3           INC     DPTR
   \   000023   A882         MOV     R0,DPL
   \   000025   A983         MOV     R1,DPH
   2571            pNPRsp->nwkAddr = BUILD_UINT16( msg[0], msg[1] );
   \   000027   E0           MOVX    A,@DPTR
   \   000028   FE           MOV     R6,A
   \   000029   A3           INC     DPTR
   \   00002A   E0           MOVX    A,@DPTR
   \   00002B   FB           MOV     R3,A
   \   00002C   EE           MOV     A,R6
   \   00002D   8C82         MOV     DPL,R4
   \   00002F   8D83         MOV     DPH,R5
   \   000031   A3           INC     DPTR
   \   000032   F0           MOVX    @DPTR,A
   \   000033   A3           INC     DPTR
   \   000034   EB           MOV     A,R3
   \   000035   F0           MOVX    @DPTR,A
   2572          
   2573            if ( pNPRsp->status == ZDP_SUCCESS )
   \   000036   8C82         MOV     DPL,R4
   \   000038   8D83         MOV     DPH,R5
   \   00003A   E0           MOVX    A,@DPTR
   \   00003B   6003         JZ      $+5
   \   00003D   02....       LJMP    ??ZDO_ParsePowerDescRsp_0 & 0xFFFF
   2574            {
   2575              msg += 2;
   \   000040   E8           MOV     A,R0
   \   000041   2402         ADD     A,#0x2
   \   000043   08           INC     R0
   \   000044   08           INC     R0
   \   000045   E9           MOV     A,R1
   \   000046   3400         ADDC    A,#0x0
   \   000048   F9           MOV     R1,A
   2576              pNPRsp->pwrDesc.AvailablePowerSources = *msg >> 4;
   \   000049   EC           MOV     A,R4
   \   00004A   2403         ADD     A,#0x3
   \   00004C   ED           MOV     A,R5
   \   00004D   3400         ADDC    A,#0x0
   \   00004F   0C           INC     R4
   \   000050   0C           INC     R4
   \   000051   0C           INC     R4
   \   000052   FD           MOV     R5,A
   \   000053   8C82         MOV     DPL,R4
   \   000055   8D83         MOV     DPH,R5
   \   000057   E0           MOVX    A,@DPTR
   \   000058   540F         ANL     A,#0xf
   \   00005A   FA           MOV     R2,A
   \   00005B   A3           INC     DPTR
   \   00005C   E0           MOVX    A,@DPTR
   \   00005D   FB           MOV     R3,A
   \   00005E   8882         MOV     DPL,R0
   \   000060   8983         MOV     DPH,R1
   \   000062   E0           MOVX    A,@DPTR
   \   000063   54F0         ANL     A,#0xf0
   \   000065   FE           MOV     R6,A
   \   000066   EA           MOV     A,R2
   \   000067   4E           ORL     A,R6
   \   000068   FE           MOV     R6,A
   \   000069   EB           MOV     A,R3
   \   00006A   FF           MOV     R7,A
   \   00006B   8C82         MOV     DPL,R4
   \   00006D   8D83         MOV     DPH,R5
   \   00006F   EE           MOV     A,R6
   \   000070   F0           MOVX    @DPTR,A
   \   000071   A3           INC     DPTR
   \   000072   EF           MOV     A,R7
   \   000073   F0           MOVX    @DPTR,A
   2577              pNPRsp->pwrDesc.PowerMode = *msg++ & 0x0F;
   \   000074   8882         MOV     DPL,R0
   \   000076   8983         MOV     DPH,R1
   \   000078   E0           MOVX    A,@DPTR
   \   000079   540F         ANL     A,#0xf
   \   00007B   FA           MOV     R2,A
   \   00007C   A3           INC     DPTR
   \   00007D   08           INC     R0
   \   00007E   A983         MOV     R1,DPH
   \   000080   EE           MOV     A,R6
   \   000081   54F0         ANL     A,#0xf0
   \   000083   4A           ORL     A,R2
   \   000084   FA           MOV     R2,A
   \   000085   8C82         MOV     DPL,R4
   \   000087   8D83         MOV     DPH,R5
   \   000089   F0           MOVX    @DPTR,A
   \   00008A   A3           INC     DPTR
   \   00008B   EB           MOV     A,R3
   \   00008C   F0           MOVX    @DPTR,A
   2578              pNPRsp->pwrDesc.CurrentPowerSourceLevel = *msg >> 4;
   \   00008D   8882         MOV     DPL,R0
   \   00008F   8983         MOV     DPH,R1
   \   000091   E0           MOVX    A,@DPTR
   \   000092   54F0         ANL     A,#0xf0
   \   000094   FF           MOV     R7,A
   \   000095   EB           MOV     A,R3
   \   000096   540F         ANL     A,#0xf
   \   000098   FB           MOV     R3,A
   \   000099   EA           MOV     A,R2
   \   00009A   FE           MOV     R6,A
   \   00009B   EF           MOV     A,R7
   \   00009C   4B           ORL     A,R3
   \   00009D   FF           MOV     R7,A
   \   00009E   8C82         MOV     DPL,R4
   \   0000A0   8D83         MOV     DPH,R5
   \   0000A2   EE           MOV     A,R6
   \   0000A3   F0           MOVX    @DPTR,A
   \   0000A4   A3           INC     DPTR
   \   0000A5   EF           MOV     A,R7
   \   0000A6   F0           MOVX    @DPTR,A
   2579              pNPRsp->pwrDesc.CurrentPowerSource = *msg++ & 0x0F;
   \   0000A7   8882         MOV     DPL,R0
   \   0000A9   8983         MOV     DPH,R1
   \   0000AB   E0           MOVX    A,@DPTR
   \   0000AC   540F         ANL     A,#0xf
   \   0000AE   FA           MOV     R2,A
   \   0000AF   EF           MOV     A,R7
   \   0000B0   54F0         ANL     A,#0xf0
   \   0000B2   FF           MOV     R7,A
   \   0000B3   EA           MOV     A,R2
   \   0000B4   FB           MOV     R3,A
   \   0000B5   EE           MOV     A,R6
   \   0000B6   FA           MOV     R2,A
   \   0000B7   EF           MOV     A,R7
   \   0000B8   4B           ORL     A,R3
   \   0000B9   FB           MOV     R3,A
   \   0000BA   8C82         MOV     DPL,R4
   \   0000BC   8D83         MOV     DPH,R5
   \   0000BE   EA           MOV     A,R2
   \   0000BF   F0           MOVX    @DPTR,A
   \   0000C0   A3           INC     DPTR
   \   0000C1   EB           MOV     A,R3
   \   0000C2   F0           MOVX    @DPTR,A
   2580            }
   2581          }
   \                     ??ZDO_ParsePowerDescRsp_0:
   \   0000C3   80..         SJMP    ?Subroutine1
   2582          
   2583          /*********************************************************************
   2584           * @fn          ZDO_ParseSimpleDescRsp
   2585           *
   2586           * @brief       This function parse the Simple_Desc_rsp message.
   2587           *
   2588           *   NOTE: The pAppInClusterList and pAppOutClusterList fields
   2589           *         in the SimpleDescriptionFormat_t structure are allocated
   2590           *         and the calling function needs to free [osal_msg_free()]
   2591           *         these buffers.
   2592           *
   2593           * @param       inMsg  - incoming message
   2594           * @param       pSimpleDescRsp - place to parse the message into
   2595           *
   2596           * @return      none
   2597           */

   \                                 In  segment BANKED_CODE, align 1, keep-with-next
   2598          void ZDO_ParseSimpleDescRsp( zdoIncomingMsg_t *inMsg, ZDO_SimpleDescRsp_t *pSimpleDescRsp )
   \                     ZDO_ParseSimpleDescRsp:
   2599          {
   \   000000   74F7         MOV     A,#-0x9
   \   000002   12....       LCALL   ?BANKED_ENTER_XDATA
   \   000005                ; Saved register size: 9
   \   000005                ; Auto size: 0
   2600            uint8 *msg;
   2601          
   2602            msg = inMsg->asdu;
   \   000005   EA           MOV     A,R2
   \   000006   2413         ADD     A,#0x13
   \   000008   F582         MOV     DPL,A
   \   00000A   EB           MOV     A,R3
   \   00000B   3400         ADDC    A,#0x0
   \   00000D   F583         MOV     DPH,A
   \   00000F   E0           MOVX    A,@DPTR
   \   000010   F8           MOV     R0,A
   \   000011   A3           INC     DPTR
   \   000012   E0           MOVX    A,@DPTR
   \   000013   F9           MOV     R1,A
   2603            pSimpleDescRsp->status = *msg++;
   \   000014   8882         MOV     DPL,R0
   \   000016   8983         MOV     DPH,R1
   \   000018   E0           MOVX    A,@DPTR
   \   000019   8C82         MOV     DPL,R4
   \   00001B   8D83         MOV     DPH,R5
   \   00001D   F0           MOVX    @DPTR,A
   \   00001E   8882         MOV     DPL,R0
   \   000020   8983         MOV     DPH,R1
   \   000022   A3           INC     DPTR
   \   000023   A882         MOV     R0,DPL
   \   000025   A983         MOV     R1,DPH
   2604            pSimpleDescRsp->nwkAddr = BUILD_UINT16( msg[0], msg[1] );
   \   000027   E0           MOVX    A,@DPTR
   \   000028   FE           MOV     R6,A
   \   000029   A3           INC     DPTR
   \   00002A   E0           MOVX    A,@DPTR
   \   00002B   FB           MOV     R3,A
   \   00002C   EE           MOV     A,R6
   \   00002D   8C82         MOV     DPL,R4
   \   00002F   8D83         MOV     DPH,R5
   \   000031   A3           INC     DPTR
   \   000032   F0           MOVX    @DPTR,A
   \   000033   A3           INC     DPTR
   \   000034   EB           MOV     A,R3
   \   000035   F0           MOVX    @DPTR,A
   2605            msg += sizeof ( uint16 );
   2606            msg++; // Skip past the length field.
   2607          
   2608            if ( pSimpleDescRsp->status == ZDP_SUCCESS )
   \   000036   8C82         MOV     DPL,R4
   \   000038   8D83         MOV     DPH,R5
   \   00003A   E0           MOVX    A,@DPTR
   \   00003B   7015         JNZ     ??ZDO_ParseSimpleDescRsp_0
   2609            {
   2610              ZDO_ParseSimpleDescBuf( msg, &(pSimpleDescRsp->simpleDesc) );
   \   00003D                ; Setup parameters for call to function ZDO_ParseSimpleDescBuf
   \   00003D   EC           MOV     A,R4
   \   00003E   2403         ADD     A,#0x3
   \   000040   0C           INC     R4
   \   000041   0C           INC     R4
   \   000042   0C           INC     R4
   \   000043   ED           MOV     A,R5
   \   000044   3400         ADDC    A,#0x0
   \   000046   FD           MOV     R5,A
   \   000047   E8           MOV     A,R0
   \   000048   2403         ADD     A,#0x3
   \   00004A   FA           MOV     R2,A
   \   00004B   E9           MOV     A,R1
   \   00004C   3400         ADDC    A,#0x0
   \   00004E   FB           MOV     R3,A
   \   00004F   12....       LCALL   ??ZDO_ParseSimpleDescBuf?relay
   2611            }
   2612          }
   \                     ??ZDO_ParseSimpleDescRsp_0:
   \   000052                REQUIRE ?Subroutine1
   \   000052                ; // Fall through to label ?Subroutine1
   2613          
   2614          /*********************************************************************
   2615           * @fn          ZDO_ParseEPListRsp
   2616           *
   2617           * @brief       This parse the Active_EP_rsp or Match_Desc_rsp message.
   2618           *
   2619           * @param       inMsg  - incoming message
   2620           *
   2621           * @return      none
   2622           */

   \                                 In  segment BANKED_CODE, align 1, keep-with-next
   2623          ZDO_ActiveEndpointRsp_t *ZDO_ParseEPListRsp( zdoIncomingMsg_t *inMsg )
   \                     ZDO_ParseEPListRsp:
   2624          {
   \   000000   74F0         MOV     A,#-0x10
   \   000002   12....       LCALL   ?BANKED_ENTER_XDATA
   \   000005                ; Saved register size: 16
   \   000005                ; Auto size: 0
   2625            ZDO_ActiveEndpointRsp_t *pRsp;
   2626            uint8 *msg;
   2627            uint8 Status;
   2628            uint8 cnt;
   2629          
   2630            msg = inMsg->asdu;
   \   000005   EA           MOV     A,R2
   \   000006   2413         ADD     A,#0x13
   \   000008   F582         MOV     DPL,A
   \   00000A   EB           MOV     A,R3
   \   00000B   3400         ADDC    A,#0x0
   \   00000D   F583         MOV     DPH,A
   \   00000F   E0           MOVX    A,@DPTR
   \   000010   F5..         MOV     ?V0 + 2,A
   \   000012   A3           INC     DPTR
   \   000013   E0           MOVX    A,@DPTR
   2631            Status = *msg++;
   \   000014   85..82       MOV     DPL,?V0 + 2
   \   000017   F583         MOV     DPH,A
   \   000019   E0           MOVX    A,@DPTR
   \   00001A   F5..         MOV     ?V0 + 5,A
   \   00001C   A3           INC     DPTR
   \   00001D   8582..       MOV     ?V0 + 2,DPL
   \   000020   8583..       MOV     ?V0 + 3,DPH
   2632            cnt = msg[2];
   \   000023   A3           INC     DPTR
   \   000024   A3           INC     DPTR
   \   000025   E0           MOVX    A,@DPTR
   \   000026   F5..         MOV     ?V0 + 4,A
   2633          
   2634            pRsp = (ZDO_ActiveEndpointRsp_t *)osal_mem_alloc( sizeof(  ZDO_ActiveEndpointRsp_t ) + cnt );
   \   000028   F582         MOV     DPL,A
   \   00002A   8582..       MOV     ?V0 + 0,DPL
   \   00002D                ; Setup parameters for call to function osal_mem_alloc
   \   00002D   2404         ADD     A,#0x4
   \   00002F   FA           MOV     R2,A
   \   000030   E4           CLR     A
   \   000031   3400         ADDC    A,#0x0
   \   000033   FB           MOV     R3,A
   \   000034   12....       LCALL   ??osal_mem_alloc?relay
   \   000037   8A..         MOV     ?V0 + 6,R2
   \   000039   8B..         MOV     ?V0 + 7,R3
   \   00003B   AE..         MOV     R6,?V0 + 6
   \   00003D   AF..         MOV     R7,?V0 + 7
   2635            if ( pRsp )
   \   00003F   EE           MOV     A,R6
   \   000040   4F           ORL     A,R7
   \   000041   6055         JZ      ??ZDO_ParseEPListRsp_0
   2636            {
   2637              pRsp->status = Status;
   \   000043   8E82         MOV     DPL,R6
   \   000045   8F83         MOV     DPH,R7
   \   000047   E5..         MOV     A,?V0 + 5
   \   000049   F0           MOVX    @DPTR,A
   2638              pRsp->nwkAddr = BUILD_UINT16( msg[0], msg[1] );
   \   00004A   85..82       MOV     DPL,?V0 + 2
   \   00004D   85..83       MOV     DPH,?V0 + 3
   \   000050   E0           MOVX    A,@DPTR
   \   000051   FA           MOV     R2,A
   \   000052   A3           INC     DPTR
   \   000053   E0           MOVX    A,@DPTR
   \   000054   F8           MOV     R0,A
   \   000055   E4           CLR     A
   \   000056   C8           XCH     A,R0
   \   000057   F9           MOV     R1,A
   \   000058   EA           MOV     A,R2
   \   000059   8E82         MOV     DPL,R6
   \   00005B   8F83         MOV     DPH,R7
   \   00005D   A3           INC     DPTR
   \   00005E   F0           MOVX    @DPTR,A
   \   00005F   A3           INC     DPTR
   \   000060   E9           MOV     A,R1
   \   000061   F0           MOVX    @DPTR,A
   2639              msg += sizeof( uint16 );
   2640              pRsp->cnt = cnt;
   \   000062   8E82         MOV     DPL,R6
   \   000064   8F83         MOV     DPH,R7
   \   000066   A3           INC     DPTR
   \   000067   A3           INC     DPTR
   \   000068   A3           INC     DPTR
   \   000069   E5..         MOV     A,?V0 + 4
   \   00006B   F0           MOVX    @DPTR,A
   2641              msg++; // pass cnt
   2642              osal_memcpy( pRsp->epList, msg, cnt );
   \   00006C                ; Setup parameters for call to function osal_memcpy
   \   00006C   85..82       MOV     DPL,?V0 + 2
   \   00006F   85..83       MOV     DPH,?V0 + 3
   \   000072   A3           INC     DPTR
   \   000073   A3           INC     DPTR
   \   000074   A3           INC     DPTR
   \   000075   A982         MOV     R1,DPL
   \   000077   AA83         MOV     R2,DPH
   \   000079   89..         MOV     ?V0 + 4,R1
   \   00007B   8A..         MOV     ?V0 + 5,R2
   \   00007D   88..         MOV     ?V0 + 6,R0
   \   00007F   78..         MOV     R0,#?V0 + 4
   \   000081   12....       LCALL   ?PUSH_XSTACK_I_THREE
   \   000084   AC..         MOV     R4,?V0 + 0
   \   000086   7D00         MOV     R5,#0x0
   \   000088   EE           MOV     A,R6
   \   000089   2404         ADD     A,#0x4
   \   00008B   FA           MOV     R2,A
   \   00008C   EF           MOV     A,R7
   \   00008D   3400         ADDC    A,#0x0
   \   00008F   FB           MOV     R3,A
   \   000090   12....       LCALL   ??osal_memcpy?relay
   \   000093   7403         MOV     A,#0x3
   \   000095   12....       LCALL   ?DEALLOC_XSTACK8
   2643            }
   2644          
   2645            return ( pRsp );
   \                     ??ZDO_ParseEPListRsp_0:
   \   000098   02....       LJMP    ?Subroutine9 & 0xFFFF
   2646          }

   \                                 In  segment BANKED_CODE, align 1, keep-with-next
   \                     ?Subroutine9:
   \   000000   EE           MOV     A,R6
   \   000001   FA           MOV     R2,A
   \   000002   EF           MOV     A,R7
   \   000003   FB           MOV     R3,A
   \   000004                REQUIRE ??Subroutine16_0
   \   000004                ; // Fall through to label ??Subroutine16_0

   \                                 In  segment BANKED_CODE, align 1, keep-with-next
   \                     ??Subroutine16_0:
   \   000000   7F08         MOV     R7,#0x8
   \   000002   02....       LJMP    ?BANKED_LEAVE_XDATA
   2647          
   2648          /*********************************************************************
   2649           * @fn          ZDO_ParseServerDiscRsp
   2650           *
   2651           * @brief       Parse the Server_Discovery_rsp message.
   2652           *
   2653           * @param       inMsg - incoming message.
   2654           * @param       pRsp - place to put the parsed information.
   2655           *
   2656           * @return      none
   2657           */

   \                                 In  segment BANKED_CODE, align 1, keep-with-next
   2658          void ZDO_ParseServerDiscRsp( zdoIncomingMsg_t *inMsg, ZDO_ServerDiscRsp_t *pRsp )
   \                     ZDO_ParseServerDiscRsp:
   2659          {
   \   000000   74F7         MOV     A,#-0x9
   \   000002   12....       LCALL   ?BANKED_ENTER_XDATA
   \   000005                ; Saved register size: 9
   \   000005                ; Auto size: 0
   2660            pRsp->status = inMsg->asdu[0];
   \   000005   EA           MOV     A,R2
   \   000006   2413         ADD     A,#0x13
   \   000008   F8           MOV     R0,A
   \   000009   EB           MOV     A,R3
   \   00000A   3400         ADDC    A,#0x0
   \   00000C   F9           MOV     R1,A
   \   00000D   8882         MOV     DPL,R0
   \   00000F   8983         MOV     DPH,R1
   \   000011   E0           MOVX    A,@DPTR
   \   000012   FA           MOV     R2,A
   \   000013   A3           INC     DPTR
   \   000014   E0           MOVX    A,@DPTR
   \   000015   F583         MOV     DPH,A
   \   000017   8A82         MOV     DPL,R2
   \   000019   E0           MOVX    A,@DPTR
   \   00001A   8C82         MOV     DPL,R4
   \   00001C   8D83         MOV     DPH,R5
   \   00001E   F0           MOVX    @DPTR,A
   2661            pRsp->serverMask = BUILD_UINT16( inMsg->asdu[1], inMsg->asdu[2] );
   \   00001F   8882         MOV     DPL,R0
   \   000021   8983         MOV     DPH,R1
   \   000023   E0           MOVX    A,@DPTR
   \   000024   F8           MOV     R0,A
   \   000025   A3           INC     DPTR
   \   000026   E0           MOVX    A,@DPTR
   \   000027   F9           MOV     R1,A
   \   000028   8882         MOV     DPL,R0
   \   00002A   8983         MOV     DPH,R1
   \   00002C   A3           INC     DPTR
   \   00002D   E0           MOVX    A,@DPTR
   \   00002E   FA           MOV     R2,A
   \   00002F   8882         MOV     DPL,R0
   \   000031   8983         MOV     DPH,R1
   \   000033   A3           INC     DPTR
   \   000034   A3           INC     DPTR
   \   000035   E0           MOVX    A,@DPTR
   \   000036   F9           MOV     R1,A
   \   000037   EA           MOV     A,R2
   \   000038   8C82         MOV     DPL,R4
   \   00003A   8D83         MOV     DPH,R5
   \   00003C   A3           INC     DPTR
   \   00003D   F0           MOVX    @DPTR,A
   \   00003E   A3           INC     DPTR
   \   00003F   E9           MOV     A,R1
   \   000040   F0           MOVX    @DPTR,A
   2662          }
   \   000041   02....       LJMP    ?Subroutine1 & 0xFFFF
   2663          
   2664          /*********************************************************************
   2665           * @fn          ZDO_ParseMgmtLqiRsp
   2666           *
   2667           * @brief       This function parses the incoming Management
   2668           *              LQI response
   2669           *
   2670           * @param       inMsg - incoming message
   2671           *
   2672           * @return      a pointer to parsed response structure (NULL if not allocated).
   2673           *          This structure was allocated using osal_mem_alloc, so it must be freed
   2674           *          by the calling function [osal_mem_free()].
   2675           */

   \                                 In  segment BANKED_CODE, align 1, keep-with-next
   2676          ZDO_MgmtLqiRsp_t *ZDO_ParseMgmtLqiRsp( zdoIncomingMsg_t *inMsg )
   \                     ZDO_ParseMgmtLqiRsp:
   2677          {
   \   000000   74F0         MOV     A,#-0x10
   \   000002   12....       LCALL   ?BANKED_ENTER_XDATA
   \   000005                ; Saved register size: 16
   \   000005                ; Auto size: 0
   2678            ZDO_MgmtLqiRsp_t *pRsp;
   2679            uint8 status;
   2680            uint8 startIndex = 0;
   \   000005   75..00       MOV     ?V0 + 4,#0x0
   2681            uint8 neighborLqiCount = 0;
   \   000008   75..00       MOV     ?V0 + 5,#0x0
   2682            uint8 neighborLqiEntries = 0;
   \   00000B   75..00       MOV     ?V0 + 6,#0x0
   2683            uint8 *msg;
   2684          
   2685            msg = inMsg->asdu;
   \   00000E   EA           MOV     A,R2
   \   00000F   2413         ADD     A,#0x13
   \   000011   F582         MOV     DPL,A
   \   000013   EB           MOV     A,R3
   \   000014   3400         ADDC    A,#0x0
   \   000016   F583         MOV     DPH,A
   \   000018   E0           MOVX    A,@DPTR
   \   000019   F5..         MOV     ?V0 + 2,A
   \   00001B   A3           INC     DPTR
   \   00001C   E0           MOVX    A,@DPTR
   2686          
   2687            status = *msg++;
   \   00001D   85..82       MOV     DPL,?V0 + 2
   \   000020   F583         MOV     DPH,A
   \   000022   E0           MOVX    A,@DPTR
   \   000023   F5..         MOV     ?V0 + 7,A
   \   000025   A3           INC     DPTR
   \   000026   8582..       MOV     ?V0 + 2,DPL
   \   000029   8583..       MOV     ?V0 + 3,DPH
   2688            if ( status == ZSuccess )
   \   00002C   7012         JNZ     ??ZDO_ParseMgmtLqiRsp_0
   2689            {
   2690              neighborLqiEntries = *msg++;
   \   00002E   E0           MOVX    A,@DPTR
   \   00002F   F5..         MOV     ?V0 + 6,A
   \   000031   A3           INC     DPTR
   2691              startIndex = *msg++;
   \   000032   E0           MOVX    A,@DPTR
   \   000033   F5..         MOV     ?V0 + 4,A
   \   000035   A3           INC     DPTR
   2692              neighborLqiCount = *msg++;
   \   000036   E0           MOVX    A,@DPTR
   \   000037   F5..         MOV     ?V0 + 5,A
   \   000039   A3           INC     DPTR
   \   00003A   8582..       MOV     ?V0 + 2,DPL
   \   00003D   8583..       MOV     ?V0 + 3,DPH
   2693            }
   2694          
   2695            // Allocate a buffer big enough to handle the list.
   2696            pRsp = (ZDO_MgmtLqiRsp_t *)osal_mem_alloc(
   2697                      sizeof( ZDO_MgmtLqiRsp_t ) + (neighborLqiCount * sizeof( neighborLqiItem_t )) );
   \                     ??ZDO_ParseMgmtLqiRsp_0:
   \   000040                ; Setup parameters for call to function osal_mem_alloc
   \   000040   E5..         MOV     A,?V0 + 5
   \   000042   75F00E       MOV     B,#0xe
   \   000045   A4           MUL     AB
   \   000046   2404         ADD     A,#0x4
   \   000048   FA           MOV     R2,A
   \   000049   E5F0         MOV     A,B
   \   00004B   3400         ADDC    A,#0x0
   \   00004D   FB           MOV     R3,A
   \   00004E   12....       LCALL   ??osal_mem_alloc?relay
   \   000051   8A..         MOV     ?V0 + 0,R2
   \   000053   8B..         MOV     ?V0 + 1,R3
   \   000055   AE..         MOV     R6,?V0 + 0
   \   000057   AF..         MOV     R7,?V0 + 1
   2698            if ( pRsp )
   \   000059   EE           MOV     A,R6
   \   00005A   4F           ORL     A,R7
   \   00005B   7003         JNZ     $+5
   \   00005D   02....       LJMP    ??ZDO_ParseMgmtLqiRsp_1 & 0xFFFF
   2699            {
   2700              uint8 x;
   2701              neighborLqiItem_t *pList = pRsp->list;
   \   000060   EE           MOV     A,R6
   \   000061   2404         ADD     A,#0x4
   \   000063   F5..         MOV     ?V0 + 0,A
   \   000065   EF           MOV     A,R7
   \   000066   3400         ADDC    A,#0x0
   \   000068   F5..         MOV     ?V0 + 1,A
   2702              pRsp->status = status;
   \   00006A   8E82         MOV     DPL,R6
   \   00006C   8F83         MOV     DPH,R7
   \   00006E   E5..         MOV     A,?V0 + 7
   \   000070   F0           MOVX    @DPTR,A
   2703              pRsp->neighborLqiEntries = neighborLqiEntries;
   \   000071   A3           INC     DPTR
   \   000072   E5..         MOV     A,?V0 + 6
   \   000074   F0           MOVX    @DPTR,A
   2704              pRsp->startIndex = startIndex;
   \   000075   8E82         MOV     DPL,R6
   \   000077   8F83         MOV     DPH,R7
   \   000079   A3           INC     DPTR
   \   00007A   A3           INC     DPTR
   \   00007B   E5..         MOV     A,?V0 + 4
   \   00007D   F0           MOVX    @DPTR,A
   2705              pRsp->neighborLqiCount = neighborLqiCount;
   \   00007E   8E82         MOV     DPL,R6
   \   000080   8F83         MOV     DPH,R7
   \   000082   A3           INC     DPTR
   \   000083   A3           INC     DPTR
   \   000084   A3           INC     DPTR
   \   000085   E5..         MOV     A,?V0 + 5
   \   000087   F0           MOVX    @DPTR,A
   2706          
   2707              for ( x = 0; x < neighborLqiCount; x++ )
   \   000088   7003         JNZ     $+5
   \   00008A   02....       LJMP    ??ZDO_ParseMgmtLqiRsp_1 & 0xFFFF
   \   00008D   F5..         MOV     ?V0 + 4,A
   2708              {
   2709                osal_cpyExtAddr(pList->extPANId, msg);   //Copy extended PAN ID
   \                     ??ZDO_ParseMgmtLqiRsp_2:
   \   00008F                ; Setup parameters for call to function sAddrExtCpy
   \   00008F   AC..         MOV     R4,?V0 + 2
   \   000091   AD..         MOV     R5,?V0 + 3
   \   000093   E5..         MOV     A,?V0 + 0
   \   000095   2404         ADD     A,#0x4
   \   000097   FA           MOV     R2,A
   \   000098   E5..         MOV     A,?V0 + 1
   \   00009A   3400         ADDC    A,#0x0
   \   00009C   FB           MOV     R3,A
   \   00009D   12....       LCALL   ??sAddrExtCpy?relay
   2710                msg += Z_EXTADDR_LEN;
   2711          
   2712                msg += Z_EXTADDR_LEN;  // Throwing away IEEE.
   \   0000A0   E5..         MOV     A,?V0 + 2
   \   0000A2   2410         ADD     A,#0x10
   \   0000A4   F5..         MOV     ?V0 + 2,A
   \   0000A6   E5..         MOV     A,?V0 + 3
   \   0000A8   3400         ADDC    A,#0x0
   \   0000AA   F5..         MOV     ?V0 + 3,A
   2713                pList->nwkAddr = BUILD_UINT16( msg[0], msg[1] );
   \   0000AC   85..82       MOV     DPL,?V0 + 2
   \   0000AF   F583         MOV     DPH,A
   \   0000B1   E0           MOVX    A,@DPTR
   \   0000B2   FA           MOV     R2,A
   \   0000B3   A3           INC     DPTR
   \   0000B4   E0           MOVX    A,@DPTR
   \   0000B5   F9           MOV     R1,A
   \   0000B6   EA           MOV     A,R2
   \   0000B7   85..82       MOV     DPL,?V0 + 0
   \   0000BA   85..83       MOV     DPH,?V0 + 1
   \   0000BD   F0           MOVX    @DPTR,A
   \   0000BE   A3           INC     DPTR
   \   0000BF   E9           MOV     A,R1
   \   0000C0   F0           MOVX    @DPTR,A
   2714                msg += 2 + 1 + 1 + 1;      // Skip DeviceType, RxOnIdle, Rlationship, PermitJoining and Depth
   \   0000C1   E5..         MOV     A,?V0 + 2
   \   0000C3   2405         ADD     A,#0x5
   \   0000C5   F5..         MOV     ?V0 + 2,A
   \   0000C7   E5..         MOV     A,?V0 + 3
   \   0000C9   3400         ADDC    A,#0x0
   \   0000CB   F5..         MOV     ?V0 + 3,A
   2715                pList->rxLqi = *msg++;
   \   0000CD   85..82       MOV     DPL,?V0 + 2
   \   0000D0   F583         MOV     DPH,A
   \   0000D2   E0           MOVX    A,@DPTR
   \   0000D3   C0E0         PUSH    A
   \   0000D5   E5..         MOV     A,?V0 + 0
   \   0000D7   240D         ADD     A,#0xd
   \   0000D9   F582         MOV     DPL,A
   \   0000DB   E5..         MOV     A,?V0 + 1
   \   0000DD   3400         ADDC    A,#0x0
   \   0000DF   F583         MOV     DPH,A
   \   0000E1   D0E0         POP     A
   \   0000E3   F0           MOVX    @DPTR,A
   \   0000E4   85..82       MOV     DPL,?V0 + 2
   \   0000E7   85..83       MOV     DPH,?V0 + 3
   \   0000EA   A3           INC     DPTR
   \   0000EB   8582..       MOV     ?V0 + 2,DPL
   \   0000EE   8583..       MOV     ?V0 + 3,DPH
   2716                pList->txQuality = 0;  // This is not specified OTA by ZigBee 1.1.
   \   0000F1   E5..         MOV     A,?V0 + 0
   \   0000F3   240C         ADD     A,#0xc
   \   0000F5   F582         MOV     DPL,A
   \   0000F7   E5..         MOV     A,?V0 + 1
   \   0000F9   3400         ADDC    A,#0x0
   \   0000FB   F583         MOV     DPH,A
   \   0000FD   E4           CLR     A
   \   0000FE   F0           MOVX    @DPTR,A
   2717                pList++;
   \   0000FF   E5..         MOV     A,?V0 + 0
   \   000101   240E         ADD     A,#0xe
   \   000103   F5..         MOV     ?V0 + 0,A
   \   000105   E5..         MOV     A,?V0 + 1
   \   000107   3400         ADDC    A,#0x0
   \   000109   F5..         MOV     ?V0 + 1,A
   2718              }
   \   00010B   15..         DEC     ?V0 + 4
   \   00010D   E5..         MOV     A,?V0 + 4
   \   00010F   6003         JZ      $+5
   \   000111   02....       LJMP    ??ZDO_ParseMgmtLqiRsp_2 & 0xFFFF
   2719            }
   2720          
   2721            return ( pRsp );
   \                     ??ZDO_ParseMgmtLqiRsp_1:
   \   000114   02....       LJMP    ?Subroutine9 & 0xFFFF
   2722          }
   2723          
   2724          /*********************************************************************
   2725           * @fn          ZDO_ParseMgmNwkDiscRsp
   2726           *
   2727           * @brief       This function parses the incoming Management
   2728           *              Network Discover response.
   2729           *
   2730           * @param       inMsg - incoming message
   2731           *
   2732           * @return      pointer to parsed response.  This structure was
   2733           *          allocated using osal_mem_alloc, so it must be freed
   2734           *          by the calling function [osal_mem_free()].
   2735           */

   \                                 In  segment BANKED_CODE, align 1, keep-with-next
   2736          ZDO_MgmNwkDiscRsp_t *ZDO_ParseMgmNwkDiscRsp( zdoIncomingMsg_t *inMsg )
   \                     ZDO_ParseMgmNwkDiscRsp:
   2737          {
   \   000000   74F0         MOV     A,#-0x10
   \   000002   12....       LCALL   ?BANKED_ENTER_XDATA
   \   000005                ; Saved register size: 16
   \   000005                ; Auto size: 0
   2738            ZDO_MgmNwkDiscRsp_t *pRsp;
   2739            uint8 status;
   2740            uint8 networkCount = 0;
   \   000005   75..00       MOV     ?V0 + 4,#0x0
   2741            uint8 startIndex = 0;
   \   000008   75..00       MOV     ?V0 + 6,#0x0
   2742            uint8 networkListCount = 0;
   \   00000B   75..00       MOV     ?V0 + 5,#0x0
   2743            uint8 *msg;
   2744          
   2745            msg = inMsg->asdu;
   \   00000E   EA           MOV     A,R2
   \   00000F   2413         ADD     A,#0x13
   \   000011   F582         MOV     DPL,A
   \   000013   EB           MOV     A,R3
   \   000014   3400         ADDC    A,#0x0
   \   000016   F583         MOV     DPH,A
   \   000018   E0           MOVX    A,@DPTR
   \   000019   FE           MOV     R6,A
   \   00001A   A3           INC     DPTR
   \   00001B   E0           MOVX    A,@DPTR
   \   00001C   FF           MOV     R7,A
   2746            status = *msg++;
   \   00001D   8E82         MOV     DPL,R6
   \   00001F   8F83         MOV     DPH,R7
   \   000021   E0           MOVX    A,@DPTR
   \   000022   F5..         MOV     ?V0 + 7,A
   \   000024   A3           INC     DPTR
   \   000025   AE82         MOV     R6,DPL
   \   000027   AF83         MOV     R7,DPH
   2747          
   2748            if ( status == ZSuccess )
   \   000029   7011         JNZ     ??ZDO_ParseMgmNwkDiscRsp_0
   2749            {
   2750              networkCount = *msg++;
   \   00002B   E0           MOVX    A,@DPTR
   \   00002C   F5..         MOV     ?V0 + 4,A
   \   00002E   A3           INC     DPTR
   2751              startIndex = *msg++;
   \   00002F   E0           MOVX    A,@DPTR
   \   000030   F5..         MOV     ?V0 + 6,A
   \   000032   A3           INC     DPTR
   2752              networkListCount = *msg++;
   \   000033   E0           MOVX    A,@DPTR
   \   000034   F5..         MOV     ?V0 + 5,A
   \   000036   A3           INC     DPTR
   \   000037   0E           INC     R6
   \   000038   0E           INC     R6
   \   000039   0E           INC     R6
   \   00003A   AF83         MOV     R7,DPH
   2753            }
   2754          
   2755            // Allocate a buffer big enough to handle the list.
   2756            pRsp = (ZDO_MgmNwkDiscRsp_t *)osal_mem_alloc( sizeof( ZDO_MgmNwkDiscRsp_t )
   2757                                            + (networkListCount * sizeof( mgmtNwkDiscItem_t )) );
   \                     ??ZDO_ParseMgmNwkDiscRsp_0:
   \   00003C                ; Setup parameters for call to function osal_mem_alloc
   \   00003C   85....       MOV     ?V0 + 0,?V0 + 5
   \   00003F   75..00       MOV     ?V0 + 1,#0x0
   \   000042   7404         MOV     A,#0x4
   \   000044   78..         MOV     R0,#?V0 + 0
   \   000046   12....       LCALL   ?S_SHL
   \   000049   E5..         MOV     A,?V0 + 0
   \   00004B   2404         ADD     A,#0x4
   \   00004D   FA           MOV     R2,A
   \   00004E   E5..         MOV     A,?V0 + 1
   \   000050   3400         ADDC    A,#0x0
   \   000052   FB           MOV     R3,A
   \   000053   12....       LCALL   ??osal_mem_alloc?relay
   \   000056   8A..         MOV     ?V0 + 2,R2
   \   000058   8B..         MOV     ?V0 + 3,R3
   2758            if ( pRsp )
   \   00005A   EA           MOV     A,R2
   \   00005B   45..         ORL     A,?V0 + 3
   \   00005D   7003         JNZ     $+5
   \   00005F   02....       LJMP    ??ZDO_ParseMgmNwkDiscRsp_1 & 0xFFFF
   2759            {
   2760              uint8 x;
   2761              mgmtNwkDiscItem_t *pList;
   2762          
   2763              pRsp->status = status;
   \   000062   8A82         MOV     DPL,R2
   \   000064   8B83         MOV     DPH,R3
   \   000066   E5..         MOV     A,?V0 + 7
   \   000068   F0           MOVX    @DPTR,A
   2764              pRsp->networkCount = networkCount;
   \   000069   A3           INC     DPTR
   \   00006A   E5..         MOV     A,?V0 + 4
   \   00006C   F0           MOVX    @DPTR,A
   2765              pRsp->startIndex = startIndex;
   \   00006D   8A82         MOV     DPL,R2
   \   00006F   8B83         MOV     DPH,R3
   \   000071   A3           INC     DPTR
   \   000072   A3           INC     DPTR
   \   000073   E5..         MOV     A,?V0 + 6
   \   000075   F0           MOVX    @DPTR,A
   2766              pRsp->networkListCount = networkListCount;
   \   000076   8A82         MOV     DPL,R2
   \   000078   8B83         MOV     DPH,R3
   \   00007A   A3           INC     DPTR
   \   00007B   A3           INC     DPTR
   \   00007C   A3           INC     DPTR
   \   00007D   E5..         MOV     A,?V0 + 5
   \   00007F   F0           MOVX    @DPTR,A
   2767              pList = pRsp->list;
   \   000080   EA           MOV     A,R2
   \   000081   2404         ADD     A,#0x4
   \   000083   F5..         MOV     ?V0 + 0,A
   \   000085   EB           MOV     A,R3
   \   000086   3400         ADDC    A,#0x0
   \   000088   F5..         MOV     ?V0 + 1,A
   2768          
   2769              for ( x = 0; x < networkListCount; x++ )
   \   00008A   E5..         MOV     A,?V0 + 5
   \   00008C   7003         JNZ     $+5
   \   00008E   02....       LJMP    ??ZDO_ParseMgmNwkDiscRsp_1 & 0xFFFF
   \   000091   F5..         MOV     ?V0 + 4,A
   2770              {
   2771                osal_cpyExtAddr(pList->extendedPANID, msg);   //Copy extended PAN ID
   \                     ??ZDO_ParseMgmNwkDiscRsp_2:
   \   000093                ; Setup parameters for call to function sAddrExtCpy
   \   000093   EE           MOV     A,R6
   \   000094   FC           MOV     R4,A
   \   000095   EF           MOV     A,R7
   \   000096   FD           MOV     R5,A
   \   000097   AA..         MOV     R2,?V0 + 0
   \   000099   AB..         MOV     R3,?V0 + 1
   \   00009B   12....       LCALL   ??sAddrExtCpy?relay
   2772                pList->PANId = BUILD_UINT16( msg[0], msg[1] );
   \   00009E   8E82         MOV     DPL,R6
   \   0000A0   8F83         MOV     DPH,R7
   \   0000A2   E0           MOVX    A,@DPTR
   \   0000A3   FA           MOV     R2,A
   \   0000A4   A3           INC     DPTR
   \   0000A5   E0           MOVX    A,@DPTR
   \   0000A6   F9           MOV     R1,A
   \   0000A7   EA           MOV     A,R2
   \   0000A8   85..82       MOV     DPL,?V0 + 0
   \   0000AB   85..83       MOV     DPH,?V0 + 1
   \   0000AE   A3           INC     DPTR
   \   0000AF   A3           INC     DPTR
   \   0000B0   A3           INC     DPTR
   \   0000B1   A3           INC     DPTR
   \   0000B2   A3           INC     DPTR
   \   0000B3   A3           INC     DPTR
   \   0000B4   A3           INC     DPTR
   \   0000B5   A3           INC     DPTR
   \   0000B6   F0           MOVX    @DPTR,A
   \   0000B7   A3           INC     DPTR
   \   0000B8   E9           MOV     A,R1
   \   0000B9   F0           MOVX    @DPTR,A
   2773                msg += Z_EXTADDR_LEN;
   \   0000BA   EE           MOV     A,R6
   \   0000BB   2408         ADD     A,#0x8
   \   0000BD   FE           MOV     R6,A
   \   0000BE   EF           MOV     A,R7
   \   0000BF   3400         ADDC    A,#0x0
   \   0000C1   FF           MOV     R7,A
   2774          
   2775                pList->logicalChannel = *msg++;
   \   0000C2   8E82         MOV     DPL,R6
   \   0000C4   8F83         MOV     DPH,R7
   \   0000C6   E0           MOVX    A,@DPTR
   \   0000C7   85..82       MOV     DPL,?V0 + 0
   \   0000CA   85..83       MOV     DPH,?V0 + 1
   \   0000CD   A3           INC     DPTR
   \   0000CE   A3           INC     DPTR
   \   0000CF   A3           INC     DPTR
   \   0000D0   A3           INC     DPTR
   \   0000D1   A3           INC     DPTR
   \   0000D2   A3           INC     DPTR
   \   0000D3   A3           INC     DPTR
   \   0000D4   A3           INC     DPTR
   \   0000D5   A3           INC     DPTR
   \   0000D6   A3           INC     DPTR
   \   0000D7   F0           MOVX    @DPTR,A
   \   0000D8   8E82         MOV     DPL,R6
   \   0000DA   8F83         MOV     DPH,R7
   \   0000DC   A3           INC     DPTR
   \   0000DD   AE82         MOV     R6,DPL
   \   0000DF   AF83         MOV     R7,DPH
   2776                pList->stackProfile = (*msg) & 0x0F;
   \   0000E1   E0           MOVX    A,@DPTR
   \   0000E2   540F         ANL     A,#0xf
   \   0000E4   C0E0         PUSH    A
   \   0000E6   E5..         MOV     A,?V0 + 0
   \   0000E8   240B         ADD     A,#0xb
   \   0000EA   F582         MOV     DPL,A
   \   0000EC   E5..         MOV     A,?V0 + 1
   \   0000EE   3400         ADDC    A,#0x0
   \   0000F0   F583         MOV     DPH,A
   \   0000F2   D0E0         POP     A
   \   0000F4   F0           MOVX    @DPTR,A
   2777                pList->version = (*msg++ >> 4) & 0x0F;
   \   0000F5   8E82         MOV     DPL,R6
   \   0000F7   8F83         MOV     DPH,R7
   \   0000F9   E0           MOVX    A,@DPTR
   \   0000FA   C4           SWAP    A
   \   0000FB   540F         ANL     A,#0xf
   \   0000FD   C0E0         PUSH    A
   \   0000FF   E5..         MOV     A,?V0 + 0
   \   000101   240C         ADD     A,#0xc
   \   000103   F582         MOV     DPL,A
   \   000105   E5..         MOV     A,?V0 + 1
   \   000107   3400         ADDC    A,#0x0
   \   000109   F583         MOV     DPH,A
   \   00010B   D0E0         POP     A
   \   00010D   F0           MOVX    @DPTR,A
   \   00010E   8E82         MOV     DPL,R6
   \   000110   8F83         MOV     DPH,R7
   \   000112   A3           INC     DPTR
   \   000113   0E           INC     R6
   \   000114   AF83         MOV     R7,DPH
   2778                pList->beaconOrder = (*msg) & 0x0F;
   \   000116   E0           MOVX    A,@DPTR
   \   000117   540F         ANL     A,#0xf
   \   000119   C0E0         PUSH    A
   \   00011B   E5..         MOV     A,?V0 + 0
   \   00011D   240D         ADD     A,#0xd
   \   00011F   F582         MOV     DPL,A
   \   000121   E5..         MOV     A,?V0 + 1
   \   000123   3400         ADDC    A,#0x0
   \   000125   F583         MOV     DPH,A
   \   000127   D0E0         POP     A
   \   000129   F0           MOVX    @DPTR,A
   2779                pList->superFrameOrder = (*msg++ >> 4) & 0x0F;
   \   00012A   8E82         MOV     DPL,R6
   \   00012C   8F83         MOV     DPH,R7
   \   00012E   E0           MOVX    A,@DPTR
   \   00012F   C4           SWAP    A
   \   000130   540F         ANL     A,#0xf
   \   000132   C0E0         PUSH    A
   \   000134   E5..         MOV     A,?V0 + 0
   \   000136   240E         ADD     A,#0xe
   \   000138   F582         MOV     DPL,A
   \   00013A   E5..         MOV     A,?V0 + 1
   \   00013C   3400         ADDC    A,#0x0
   \   00013E   F583         MOV     DPH,A
   \   000140   D0E0         POP     A
   \   000142   F0           MOVX    @DPTR,A
   \   000143   8E82         MOV     DPL,R6
   \   000145   8F83         MOV     DPH,R7
   \   000147   A3           INC     DPTR
   \   000148   0E           INC     R6
   \   000149   AF83         MOV     R7,DPH
   2780                pList->permitJoining = *msg++;
   \   00014B   E0           MOVX    A,@DPTR
   \   00014C   C0E0         PUSH    A
   \   00014E   E5..         MOV     A,?V0 + 0
   \   000150   240F         ADD     A,#0xf
   \   000152   F582         MOV     DPL,A
   \   000154   E5..         MOV     A,?V0 + 1
   \   000156   3400         ADDC    A,#0x0
   \   000158   F583         MOV     DPH,A
   \   00015A   D0E0         POP     A
   \   00015C   F0           MOVX    @DPTR,A
   \   00015D   8E82         MOV     DPL,R6
   \   00015F   8F83         MOV     DPH,R7
   \   000161   A3           INC     DPTR
   \   000162   0E           INC     R6
   \   000163   AF83         MOV     R7,DPH
   2781                pList++;
   \   000165   E5..         MOV     A,?V0 + 0
   \   000167   2410         ADD     A,#0x10
   \   000169   F5..         MOV     ?V0 + 0,A
   \   00016B   E5..         MOV     A,?V0 + 1
   \   00016D   3400         ADDC    A,#0x0
   \   00016F   F5..         MOV     ?V0 + 1,A
   2782              }
   \   000171   15..         DEC     ?V0 + 4
   \   000173   E5..         MOV     A,?V0 + 4
   \   000175   6003         JZ      $+5
   \   000177   02....       LJMP    ??ZDO_ParseMgmNwkDiscRsp_2 & 0xFFFF
   2783            }
   2784          
   2785            return ( pRsp );
   \                     ??ZDO_ParseMgmNwkDiscRsp_1:
   \   00017A   AA..         MOV     R2,?V0 + 2
   \   00017C   AB..         MOV     R3,?V0 + 3
   \   00017E   02....       LJMP    ??Subroutine16_0 & 0xFFFF
   2786          }
   2787          
   2788          /*********************************************************************
   2789           * @fn          ZDO_ParseMgmtRtgRsp
   2790           *
   2791           * @brief       This function parses the incoming Management
   2792           *              Routing response.
   2793           *
   2794           * @param       inMsg - incoming message
   2795           *
   2796           * @return      a pointer to parsed response structure (NULL if not allocated).
   2797           *          This structure was allocated using osal_mem_alloc, so it must be freed
   2798           *          by the calling function [osal_mem_free()].
   2799           */

   \                                 In  segment BANKED_CODE, align 1, keep-with-next
   2800          ZDO_MgmtRtgRsp_t *ZDO_ParseMgmtRtgRsp( zdoIncomingMsg_t *inMsg )
   \                     ZDO_ParseMgmtRtgRsp:
   2801          {
   \   000000   74F2         MOV     A,#-0xe
   \   000002   12....       LCALL   ?BANKED_ENTER_XDATA
   \   000005                ; Saved register size: 14
   \   000005                ; Auto size: 0
   2802            ZDO_MgmtRtgRsp_t *pRsp;
   2803            uint8 status;
   2804            uint8 rtgCount = 0;
   \   000005   75..00       MOV     ?V0 + 2,#0x0
   2805            uint8 startIndex = 0;
   \   000008   75..00       MOV     ?V0 + 1,#0x0
   2806            uint8 rtgListCount = 0;
   \   00000B   75..00       MOV     ?V0 + 0,#0x0
   2807            uint8 *msg;
   2808          
   2809            msg = inMsg->asdu;
   \   00000E   EA           MOV     A,R2
   \   00000F   2413         ADD     A,#0x13
   \   000011   F582         MOV     DPL,A
   \   000013   EB           MOV     A,R3
   \   000014   3400         ADDC    A,#0x0
   \   000016   F583         MOV     DPH,A
   \   000018   E0           MOVX    A,@DPTR
   \   000019   FE           MOV     R6,A
   \   00001A   A3           INC     DPTR
   \   00001B   E0           MOVX    A,@DPTR
   \   00001C   FF           MOV     R7,A
   2810          
   2811            status = *msg++;
   \   00001D   8E82         MOV     DPL,R6
   \   00001F   8F83         MOV     DPH,R7
   \   000021   E0           MOVX    A,@DPTR
   \   000022   F5..         MOV     ?V0 + 3,A
   \   000024   A3           INC     DPTR
   \   000025   AE82         MOV     R6,DPL
   \   000027   AF83         MOV     R7,DPH
   2812            if ( status == ZSuccess )
   \   000029   7011         JNZ     ??ZDO_ParseMgmtRtgRsp_0
   2813            {
   2814              rtgCount = *msg++;
   \   00002B   E0           MOVX    A,@DPTR
   \   00002C   F5..         MOV     ?V0 + 2,A
   \   00002E   A3           INC     DPTR
   2815              startIndex = *msg++;
   \   00002F   E0           MOVX    A,@DPTR
   \   000030   F5..         MOV     ?V0 + 1,A
   \   000032   A3           INC     DPTR
   2816              rtgListCount = *msg++;
   \   000033   E0           MOVX    A,@DPTR
   \   000034   F5..         MOV     ?V0 + 0,A
   \   000036   A3           INC     DPTR
   \   000037   0E           INC     R6
   \   000038   0E           INC     R6
   \   000039   0E           INC     R6
   \   00003A   AF83         MOV     R7,DPH
   2817            }
   2818          
   2819            // Allocate a buffer big enough to handle the list
   2820            pRsp = (ZDO_MgmtRtgRsp_t *)osal_mem_alloc(
   2821                    sizeof( ZDO_MgmtRtgRsp_t ) + (rtgListCount * sizeof( rtgItem_t )) );
   \                     ??ZDO_ParseMgmtRtgRsp_0:
   \   00003C                ; Setup parameters for call to function osal_mem_alloc
   \   00003C   E5..         MOV     A,?V0 + 0
   \   00003E   75F006       MOV     B,#0x6
   \   000041   A4           MUL     AB
   \   000042   2404         ADD     A,#0x4
   \   000044   FA           MOV     R2,A
   \   000045   E5F0         MOV     A,B
   \   000047   3400         ADDC    A,#0x0
   \   000049   FB           MOV     R3,A
   \   00004A   12....       LCALL   ??osal_mem_alloc?relay
   2822            if ( pRsp )
   \   00004D   EA           MOV     A,R2
   \   00004E   4B           ORL     A,R3
   \   00004F   7003         JNZ     $+5
   \   000051   02....       LJMP    ??ZDO_ParseMgmtRtgRsp_1 & 0xFFFF
   2823            {
   2824              uint8 x;
   2825              rtgItem_t *pList = pRsp->list;
   \   000054   EA           MOV     A,R2
   \   000055   2404         ADD     A,#0x4
   \   000057   F8           MOV     R0,A
   \   000058   EB           MOV     A,R3
   \   000059   3400         ADDC    A,#0x0
   \   00005B   F9           MOV     R1,A
   2826              pRsp->status = status;
   \   00005C   8A82         MOV     DPL,R2
   \   00005E   8B83         MOV     DPH,R3
   \   000060   E5..         MOV     A,?V0 + 3
   \   000062   F0           MOVX    @DPTR,A
   2827              pRsp->rtgCount = rtgCount;
   \   000063   A3           INC     DPTR
   \   000064   E5..         MOV     A,?V0 + 2
   \   000066   F0           MOVX    @DPTR,A
   2828              pRsp->startIndex = startIndex;
   \   000067   8A82         MOV     DPL,R2
   \   000069   8B83         MOV     DPH,R3
   \   00006B   A3           INC     DPTR
   \   00006C   A3           INC     DPTR
   \   00006D   E5..         MOV     A,?V0 + 1
   \   00006F   F0           MOVX    @DPTR,A
   2829              pRsp->rtgListCount = rtgListCount;
   \   000070   8A82         MOV     DPL,R2
   \   000072   8B83         MOV     DPH,R3
   \   000074   A3           INC     DPTR
   \   000075   A3           INC     DPTR
   \   000076   A3           INC     DPTR
   \   000077   E5..         MOV     A,?V0 + 0
   \   000079   F0           MOVX    @DPTR,A
   2830          
   2831              for ( x = 0; x < rtgListCount; x++ )
   \   00007A   6060         JZ      ??ZDO_ParseMgmtRtgRsp_1
   \   00007C   F5..         MOV     ?V0 + 2,A
   2832              {
   2833                pList->dstAddress = BUILD_UINT16( msg[0], msg[1] );
   \                     ??ZDO_ParseMgmtRtgRsp_2:
   \   00007E   8E82         MOV     DPL,R6
   \   000080   8F83         MOV     DPH,R7
   \   000082   E0           MOVX    A,@DPTR
   \   000083   F5..         MOV     ?V0 + 0,A
   \   000085   A3           INC     DPTR
   \   000086   E0           MOVX    A,@DPTR
   \   000087   FD           MOV     R5,A
   \   000088   E5..         MOV     A,?V0 + 0
   \   00008A   8882         MOV     DPL,R0
   \   00008C   8983         MOV     DPH,R1
   \   00008E   F0           MOVX    @DPTR,A
   \   00008F   A3           INC     DPTR
   \   000090   ED           MOV     A,R5
   \   000091   F0           MOVX    @DPTR,A
   2834                msg += 2;
   \   000092   EE           MOV     A,R6
   \   000093   2402         ADD     A,#0x2
   \   000095   0E           INC     R6
   \   000096   0E           INC     R6
   \   000097   EF           MOV     A,R7
   \   000098   3400         ADDC    A,#0x0
   \   00009A   FF           MOV     R7,A
   2835                pList->status = *msg++;
   \   00009B   8E82         MOV     DPL,R6
   \   00009D   8F83         MOV     DPH,R7
   \   00009F   E0           MOVX    A,@DPTR
   \   0000A0   8882         MOV     DPL,R0
   \   0000A2   8983         MOV     DPH,R1
   \   0000A4   A3           INC     DPTR
   \   0000A5   A3           INC     DPTR
   \   0000A6   A3           INC     DPTR
   \   0000A7   A3           INC     DPTR
   \   0000A8   A3           INC     DPTR
   \   0000A9   F0           MOVX    @DPTR,A
   \   0000AA   8E82         MOV     DPL,R6
   \   0000AC   8F83         MOV     DPH,R7
   \   0000AE   A3           INC     DPTR
   \   0000AF   AE82         MOV     R6,DPL
   \   0000B1   AF83         MOV     R7,DPH
   2836                pList->nextHopAddress = BUILD_UINT16( msg[0], msg[1] );
   \   0000B3   E0           MOVX    A,@DPTR
   \   0000B4   F5..         MOV     ?V0 + 0,A
   \   0000B6   A3           INC     DPTR
   \   0000B7   E0           MOVX    A,@DPTR
   \   0000B8   FD           MOV     R5,A
   \   0000B9   E5..         MOV     A,?V0 + 0
   \   0000BB   8882         MOV     DPL,R0
   \   0000BD   8983         MOV     DPH,R1
   \   0000BF   A3           INC     DPTR
   \   0000C0   A3           INC     DPTR
   \   0000C1   F0           MOVX    @DPTR,A
   \   0000C2   A3           INC     DPTR
   \   0000C3   ED           MOV     A,R5
   \   0000C4   F0           MOVX    @DPTR,A
   2837                msg += 2;
   \   0000C5   EE           MOV     A,R6
   \   0000C6   2402         ADD     A,#0x2
   \   0000C8   0E           INC     R6
   \   0000C9   0E           INC     R6
   \   0000CA   EF           MOV     A,R7
   \   0000CB   3400         ADDC    A,#0x0
   \   0000CD   FF           MOV     R7,A
   2838                pList++;
   \   0000CE   E8           MOV     A,R0
   \   0000CF   2406         ADD     A,#0x6
   \   0000D1   F8           MOV     R0,A
   \   0000D2   E9           MOV     A,R1
   \   0000D3   3400         ADDC    A,#0x0
   \   0000D5   F9           MOV     R1,A
   2839              }
   \   0000D6   15..         DEC     ?V0 + 2
   \   0000D8   E5..         MOV     A,?V0 + 2
   \   0000DA   70A2         JNZ     ??ZDO_ParseMgmtRtgRsp_2
   2840            }
   2841          
   2842            return ( pRsp );
   \                     ??ZDO_ParseMgmtRtgRsp_1:
   \   0000DC                REQUIRE ?Subroutine4
   \   0000DC                ; // Fall through to label ?Subroutine4
   2843          }
   2844          
   2845          /*********************************************************************
   2846           * @fn          ZDO_ParseMgmtBindRsp
   2847           *
   2848           * @brief       This function parses the incoming Management
   2849           *              Binding response.
   2850           *
   2851           * @param       inMsg - pointer to message to parse
   2852           *
   2853           * @return      a pointer to parsed response structure (NULL if not allocated).
   2854           *          This structure was allocated using osal_mem_alloc, so it must be freed
   2855           *          by the calling function [osal_mem_free()].
   2856           */

   \                                 In  segment BANKED_CODE, align 1, keep-with-next
   2857          ZDO_MgmtBindRsp_t *ZDO_ParseMgmtBindRsp( zdoIncomingMsg_t *inMsg )
   \                     ZDO_ParseMgmtBindRsp:
   2858          {
   \   000000   74EE         MOV     A,#-0x12
   \   000002   12....       LCALL   ?BANKED_ENTER_XDATA
   \   000005                ; Saved register size: 18
   \   000005                ; Auto size: 0
   2859            ZDO_MgmtBindRsp_t *pRsp;
   2860            uint8 status;
   2861            uint8 bindingCount = 0;
   \   000005   75..00       MOV     ?V0 + 6,#0x0
   2862            uint8 startIndex = 0;
   \   000008   75..00       MOV     ?V0 + 4,#0x0
   2863            uint8 bindingListCount = 0;
   \   00000B   75..00       MOV     ?V0 + 5,#0x0
   2864            uint8 *msg;
   2865          
   2866            msg = inMsg->asdu;
   \   00000E   EA           MOV     A,R2
   \   00000F   2413         ADD     A,#0x13
   \   000011   F582         MOV     DPL,A
   \   000013   EB           MOV     A,R3
   \   000014   3400         ADDC    A,#0x0
   \   000016   F583         MOV     DPH,A
   \   000018   E0           MOVX    A,@DPTR
   \   000019   F5..         MOV     ?V0 + 2,A
   \   00001B   A3           INC     DPTR
   \   00001C   E0           MOVX    A,@DPTR
   2867          
   2868            status = *msg++;
   \   00001D   85..82       MOV     DPL,?V0 + 2
   \   000020   F583         MOV     DPH,A
   \   000022   E0           MOVX    A,@DPTR
   \   000023   F5..         MOV     ?V0 + 7,A
   \   000025   A3           INC     DPTR
   \   000026   8582..       MOV     ?V0 + 2,DPL
   \   000029   8583..       MOV     ?V0 + 3,DPH
   2869            if ( status == ZSuccess )
   \   00002C   7012         JNZ     ??ZDO_ParseMgmtBindRsp_0
   2870            {
   2871              bindingCount = *msg++;
   \   00002E   E0           MOVX    A,@DPTR
   \   00002F   F5..         MOV     ?V0 + 6,A
   \   000031   A3           INC     DPTR
   2872              startIndex = *msg++;
   \   000032   E0           MOVX    A,@DPTR
   \   000033   F5..         MOV     ?V0 + 4,A
   \   000035   A3           INC     DPTR
   2873              bindingListCount = *msg++;
   \   000036   E0           MOVX    A,@DPTR
   \   000037   F5..         MOV     ?V0 + 5,A
   \   000039   A3           INC     DPTR
   \   00003A   8582..       MOV     ?V0 + 2,DPL
   \   00003D   8583..       MOV     ?V0 + 3,DPH
   2874            }
   2875          
   2876            // Allocate a buffer big enough to handle the list
   2877            pRsp = (ZDO_MgmtBindRsp_t *)osal_mem_alloc(
   2878                    (sizeof ( ZDO_MgmtBindRsp_t ) + (bindingListCount * sizeof( apsBindingItem_t ))) );
   \                     ??ZDO_ParseMgmtBindRsp_0:
   \   000040                ; Setup parameters for call to function osal_mem_alloc
   \   000040   E5..         MOV     A,?V0 + 5
   \   000042   75F015       MOV     B,#0x15
   \   000045   A4           MUL     AB
   \   000046   2404         ADD     A,#0x4
   \   000048   FA           MOV     R2,A
   \   000049   E5F0         MOV     A,B
   \   00004B   3400         ADDC    A,#0x0
   \   00004D   FB           MOV     R3,A
   \   00004E   12....       LCALL   ??osal_mem_alloc?relay
   \   000051   8A..         MOV     ?V0 + 0,R2
   \   000053   8B..         MOV     ?V0 + 1,R3
   2879            if ( pRsp )
   \   000055   EA           MOV     A,R2
   \   000056   45..         ORL     A,?V0 + 1
   \   000058   7003         JNZ     $+5
   \   00005A   02....       LJMP    ??ZDO_ParseMgmtBindRsp_1 & 0xFFFF
   2880            {
   2881              uint8 x;
   2882              apsBindingItem_t *pList = pRsp->list;
   \   00005D   EA           MOV     A,R2
   \   00005E   2404         ADD     A,#0x4
   \   000060   FE           MOV     R6,A
   \   000061   EB           MOV     A,R3
   \   000062   3400         ADDC    A,#0x0
   \   000064   FF           MOV     R7,A
   2883              pRsp->status = status;
   \   000065   8A82         MOV     DPL,R2
   \   000067   8B83         MOV     DPH,R3
   \   000069   E5..         MOV     A,?V0 + 7
   \   00006B   F0           MOVX    @DPTR,A
   2884              pRsp->bindingCount = bindingCount;
   \   00006C   A3           INC     DPTR
   \   00006D   E5..         MOV     A,?V0 + 6
   \   00006F   F0           MOVX    @DPTR,A
   2885              pRsp->startIndex = startIndex;
   \   000070   8A82         MOV     DPL,R2
   \   000072   8B83         MOV     DPH,R3
   \   000074   A3           INC     DPTR
   \   000075   A3           INC     DPTR
   \   000076   E5..         MOV     A,?V0 + 4
   \   000078   F0           MOVX    @DPTR,A
   2886              pRsp->bindingListCount = bindingListCount;
   \   000079   8A82         MOV     DPL,R2
   \   00007B   8B83         MOV     DPH,R3
   \   00007D   A3           INC     DPTR
   \   00007E   A3           INC     DPTR
   \   00007F   A3           INC     DPTR
   \   000080   E5..         MOV     A,?V0 + 5
   \   000082   F0           MOVX    @DPTR,A
   2887          
   2888              for ( x = 0; x < bindingListCount; x++ )
   \   000083   7003         JNZ     $+5
   \   000085   02....       LJMP    ??ZDO_ParseMgmtBindRsp_1 & 0xFFFF
   \   000088   F5..         MOV     ?V0 + 4,A
   2889              {
   2890                osal_cpyExtAddr( pList->srcAddr, msg );
   \                     ??ZDO_ParseMgmtBindRsp_2:
   \   00008A                ; Setup parameters for call to function sAddrExtCpy
   \   00008A   AC..         MOV     R4,?V0 + 2
   \   00008C   AD..         MOV     R5,?V0 + 3
   \   00008E   EE           MOV     A,R6
   \   00008F   FA           MOV     R2,A
   \   000090   EF           MOV     A,R7
   \   000091   FB           MOV     R3,A
   \   000092   12....       LCALL   ??sAddrExtCpy?relay
   2891                msg += Z_EXTADDR_LEN;
   \   000095   E5..         MOV     A,?V0 + 2
   \   000097   2408         ADD     A,#0x8
   \   000099   F5..         MOV     ?V0 + 2,A
   \   00009B   E5..         MOV     A,?V0 + 3
   \   00009D   3400         ADDC    A,#0x0
   \   00009F   F5..         MOV     ?V0 + 3,A
   2892                pList->srcEP = *msg++;
   \   0000A1   85..82       MOV     DPL,?V0 + 2
   \   0000A4   F583         MOV     DPH,A
   \   0000A6   E0           MOVX    A,@DPTR
   \   0000A7   8E82         MOV     DPL,R6
   \   0000A9   8F83         MOV     DPH,R7
   \   0000AB   A3           INC     DPTR
   \   0000AC   A3           INC     DPTR
   \   0000AD   A3           INC     DPTR
   \   0000AE   A3           INC     DPTR
   \   0000AF   A3           INC     DPTR
   \   0000B0   A3           INC     DPTR
   \   0000B1   A3           INC     DPTR
   \   0000B2   A3           INC     DPTR
   \   0000B3   F0           MOVX    @DPTR,A
   \   0000B4   85..82       MOV     DPL,?V0 + 2
   \   0000B7   85..83       MOV     DPH,?V0 + 3
   \   0000BA   A3           INC     DPTR
   \   0000BB   8582..       MOV     ?V0 + 2,DPL
   \   0000BE   8583..       MOV     ?V0 + 3,DPH
   2893          
   2894                // Get the Cluster ID
   2895          
   2896                pList->clusterID = BUILD_UINT16( msg[0], msg[1] );
   \   0000C1   E0           MOVX    A,@DPTR
   \   0000C2   FA           MOV     R2,A
   \   0000C3   A3           INC     DPTR
   \   0000C4   E0           MOVX    A,@DPTR
   \   0000C5   F9           MOV     R1,A
   \   0000C6   EA           MOV     A,R2
   \   0000C7   8E82         MOV     DPL,R6
   \   0000C9   8F83         MOV     DPH,R7
   \   0000CB   A3           INC     DPTR
   \   0000CC   A3           INC     DPTR
   \   0000CD   A3           INC     DPTR
   \   0000CE   A3           INC     DPTR
   \   0000CF   A3           INC     DPTR
   \   0000D0   A3           INC     DPTR
   \   0000D1   A3           INC     DPTR
   \   0000D2   A3           INC     DPTR
   \   0000D3   A3           INC     DPTR
   \   0000D4   F0           MOVX    @DPTR,A
   \   0000D5   A3           INC     DPTR
   \   0000D6   E9           MOV     A,R1
   \   0000D7   F0           MOVX    @DPTR,A
   2897                msg += 2;
   \   0000D8   E5..         MOV     A,?V0 + 2
   \   0000DA   2402         ADD     A,#0x2
   \   0000DC   F5..         MOV     ?V0 + 2,A
   \   0000DE   E5..         MOV     A,?V0 + 3
   \   0000E0   3400         ADDC    A,#0x0
   \   0000E2   F5..         MOV     ?V0 + 3,A
   2898                pList->dstAddr.addrMode = *msg++;
   \   0000E4   85..82       MOV     DPL,?V0 + 2
   \   0000E7   F583         MOV     DPH,A
   \   0000E9   E0           MOVX    A,@DPTR
   \   0000EA   F8           MOV     R0,A
   \   0000EB   EE           MOV     A,R6
   \   0000EC   2413         ADD     A,#0x13
   \   0000EE   F582         MOV     DPL,A
   \   0000F0   EF           MOV     A,R7
   \   0000F1   3400         ADDC    A,#0x0
   \   0000F3   F583         MOV     DPH,A
   \   0000F5   E8           MOV     A,R0
   \   0000F6   F0           MOVX    @DPTR,A
   \   0000F7   85..82       MOV     DPL,?V0 + 2
   \   0000FA   85..83       MOV     DPH,?V0 + 3
   \   0000FD   A3           INC     DPTR
   \   0000FE   8582..       MOV     ?V0 + 2,DPL
   \   000101   8583..       MOV     ?V0 + 3,DPH
   2899                if ( pList->dstAddr.addrMode == Addr64Bit )
   \   000104   EE           MOV     A,R6
   \   000105   240B         ADD     A,#0xb
   \   000107   FA           MOV     R2,A
   \   000108   EF           MOV     A,R7
   \   000109   3400         ADDC    A,#0x0
   \   00010B   FB           MOV     R3,A
   \   00010C   7403         MOV     A,#0x3
   \   00010E   68           XRL     A,R0
   \   00010F   7037         JNZ     ??ZDO_ParseMgmtBindRsp_3
   2900                {
   2901                  osal_cpyExtAddr( pList->dstAddr.addr.extAddr, msg );
   \   000111                ; Setup parameters for call to function sAddrExtCpy
   \   000111   AC..         MOV     R4,?V0 + 2
   \   000113   AD..         MOV     R5,?V0 + 3
   \   000115   12....       LCALL   ??sAddrExtCpy?relay
   2902                  msg += Z_EXTADDR_LEN;
   \   000118   E5..         MOV     A,?V0 + 2
   \   00011A   2408         ADD     A,#0x8
   \   00011C   F5..         MOV     ?V0 + 2,A
   \   00011E   E5..         MOV     A,?V0 + 3
   \   000120   3400         ADDC    A,#0x0
   \   000122   F5..         MOV     ?V0 + 3,A
   2903                  pList->dstEP = *msg++;
   \   000124   85..82       MOV     DPL,?V0 + 2
   \   000127   F583         MOV     DPH,A
   \   000129   E0           MOVX    A,@DPTR
   \   00012A   C0E0         PUSH    A
   \   00012C   EE           MOV     A,R6
   \   00012D   2414         ADD     A,#0x14
   \   00012F   F582         MOV     DPL,A
   \   000131   EF           MOV     A,R7
   \   000132   3400         ADDC    A,#0x0
   \   000134   F583         MOV     DPH,A
   \   000136   D0E0         POP     A
   \   000138   F0           MOVX    @DPTR,A
   \   000139   85..82       MOV     DPL,?V0 + 2
   \   00013C   85..83       MOV     DPH,?V0 + 3
   \   00013F   A3           INC     DPTR
   \   000140   8582..       MOV     ?V0 + 2,DPL
   \   000143   8583..       MOV     ?V0 + 3,DPH
   \   000146   801A         SJMP    ??ZDO_ParseMgmtBindRsp_4
   2904                }
   2905                else
   2906                {
   2907                  pList->dstAddr.addr.shortAddr = BUILD_UINT16( msg[0], msg[1] );
   \                     ??ZDO_ParseMgmtBindRsp_3:
   \   000148   E0           MOVX    A,@DPTR
   \   000149   FC           MOV     R4,A
   \   00014A   A3           INC     DPTR
   \   00014B   E0           MOVX    A,@DPTR
   \   00014C   F9           MOV     R1,A
   \   00014D   EC           MOV     A,R4
   \   00014E   8A82         MOV     DPL,R2
   \   000150   8B83         MOV     DPH,R3
   \   000152   F0           MOVX    @DPTR,A
   \   000153   A3           INC     DPTR
   \   000154   E9           MOV     A,R1
   \   000155   F0           MOVX    @DPTR,A
   2908                  msg += 2;
   \   000156   E5..         MOV     A,?V0 + 2
   \   000158   2402         ADD     A,#0x2
   \   00015A   F5..         MOV     ?V0 + 2,A
   \   00015C   E5..         MOV     A,?V0 + 3
   \   00015E   3400         ADDC    A,#0x0
   \   000160   F5..         MOV     ?V0 + 3,A
   2909                }
   2910          
   2911                pList++;
   \                     ??ZDO_ParseMgmtBindRsp_4:
   \   000162   EE           MOV     A,R6
   \   000163   2415         ADD     A,#0x15
   \   000165   FE           MOV     R6,A
   \   000166   EF           MOV     A,R7
   \   000167   3400         ADDC    A,#0x0
   \   000169   FF           MOV     R7,A
   2912              }
   \   00016A   15..         DEC     ?V0 + 4
   \   00016C   E5..         MOV     A,?V0 + 4
   \   00016E   6003         JZ      $+5
   \   000170   02....       LJMP    ??ZDO_ParseMgmtBindRsp_2 & 0xFFFF
   2913            }
   2914          
   2915            return ( pRsp );
   \                     ??ZDO_ParseMgmtBindRsp_1:
   \   000173   AA..         MOV     R2,?V0 + 0
   \   000175   AB..         MOV     R3,?V0 + 1
   \   000177   02....       LJMP    ?Subroutine8 & 0xFFFF
   2916          }
   2917          
   2918          /*********************************************************************
   2919           * @fn          ZDO_ParseUserDescRsp
   2920           *
   2921           * @brief       This function parses the incoming User
   2922           *              Descriptor Response.
   2923           *
   2924           * @param       inMsg - incoming response message
   2925           *
   2926           * @return      a pointer to parsed response structure (NULL if not allocated).
   2927           *          This structure was allocated using osal_mem_alloc, so it must be freed
   2928           *          by the calling function [osal_mem_free()].
   2929           */

   \                                 In  segment BANKED_CODE, align 1, keep-with-next
   2930          ZDO_UserDescRsp_t *ZDO_ParseUserDescRsp( zdoIncomingMsg_t *inMsg )
   \                     ZDO_ParseUserDescRsp:
   2931          {
   \   000000   74F0         MOV     A,#-0x10
   \   000002   12....       LCALL   ?BANKED_ENTER_XDATA
   \   000005                ; Saved register size: 16
   \   000005                ; Auto size: 0
   2932            ZDO_UserDescRsp_t *pRsp;
   2933            uint8 *msg;
   2934            uint8 descLen = 0;
   \   000005   75..00       MOV     ?V0 + 4,#0x0
   2935          
   2936            msg = inMsg->asdu;
   \   000008   EA           MOV     A,R2
   \   000009   2413         ADD     A,#0x13
   \   00000B   F582         MOV     DPL,A
   \   00000D   EB           MOV     A,R3
   \   00000E   3400         ADDC    A,#0x0
   \   000010   F583         MOV     DPH,A
   \   000012   E0           MOVX    A,@DPTR
   \   000013   F8           MOV     R0,A
   \   000014   A3           INC     DPTR
   \   000015   E0           MOVX    A,@DPTR
   \   000016   F9           MOV     R1,A
   \   000017   88..         MOV     ?V0 + 2,R0
   \   000019   89..         MOV     ?V0 + 3,R1
   2937          
   2938            if ( msg[0] == ZSuccess )
   \   00001B   8882         MOV     DPL,R0
   \   00001D   F583         MOV     DPH,A
   \   00001F   E0           MOVX    A,@DPTR
   \   000020   7006         JNZ     ??ZDO_ParseUserDescRsp_0
   2939              descLen = msg[3];
   \   000022   A3           INC     DPTR
   \   000023   A3           INC     DPTR
   \   000024   A3           INC     DPTR
   \   000025   E0           MOVX    A,@DPTR
   \   000026   F5..         MOV     ?V0 + 4,A
   2940          
   2941            pRsp = (ZDO_UserDescRsp_t *)osal_mem_alloc( sizeof ( ZDO_UserDescRsp_t ) + descLen );
   \                     ??ZDO_ParseUserDescRsp_0:
   \   000028   85..82       MOV     DPL,?V0 + 4
   \   00002B   8582..       MOV     ?V0 + 0,DPL
   \   00002E                ; Setup parameters for call to function osal_mem_alloc
   \   00002E   E5..         MOV     A,?V0 + 0
   \   000030   2404         ADD     A,#0x4
   \   000032   FA           MOV     R2,A
   \   000033   E4           CLR     A
   \   000034   3400         ADDC    A,#0x0
   \   000036   FB           MOV     R3,A
   \   000037   12....       LCALL   ??osal_mem_alloc?relay
   \   00003A   8A..         MOV     ?V0 + 6,R2
   \   00003C   8B..         MOV     ?V0 + 7,R3
   \   00003E   AE..         MOV     R6,?V0 + 6
   \   000040   AF..         MOV     R7,?V0 + 7
   2942            if ( pRsp )
   \   000042   EE           MOV     A,R6
   \   000043   4F           ORL     A,R7
   \   000044   605F         JZ      ??ZDO_ParseUserDescRsp_1
   2943            {
   2944              pRsp->status = msg[0];
   \   000046   85..82       MOV     DPL,?V0 + 2
   \   000049   85..83       MOV     DPH,?V0 + 3
   \   00004C   E0           MOVX    A,@DPTR
   \   00004D   8E82         MOV     DPL,R6
   \   00004F   8F83         MOV     DPH,R7
   \   000051   F0           MOVX    @DPTR,A
   2945              pRsp->nwkAddr = BUILD_UINT16( msg[1], msg[2] );
   \   000052   85..82       MOV     DPL,?V0 + 2
   \   000055   85..83       MOV     DPH,?V0 + 3
   \   000058   A3           INC     DPTR
   \   000059   E0           MOVX    A,@DPTR
   \   00005A   FA           MOV     R2,A
   \   00005B   85..82       MOV     DPL,?V0 + 2
   \   00005E   85..83       MOV     DPH,?V0 + 3
   \   000061   A3           INC     DPTR
   \   000062   A3           INC     DPTR
   \   000063   E0           MOVX    A,@DPTR
   \   000064   F8           MOV     R0,A
   \   000065   E4           CLR     A
   \   000066   C8           XCH     A,R0
   \   000067   F9           MOV     R1,A
   \   000068   EA           MOV     A,R2
   \   000069   8E82         MOV     DPL,R6
   \   00006B   8F83         MOV     DPH,R7
   \   00006D   A3           INC     DPTR
   \   00006E   F0           MOVX    @DPTR,A
   \   00006F   A3           INC     DPTR
   \   000070   E9           MOV     A,R1
   \   000071   F0           MOVX    @DPTR,A
   2946              pRsp->length = descLen;
   \   000072   8E82         MOV     DPL,R6
   \   000074   8F83         MOV     DPH,R7
   \   000076   A3           INC     DPTR
   \   000077   A3           INC     DPTR
   \   000078   A3           INC     DPTR
   \   000079   E5..         MOV     A,?V0 + 4
   \   00007B   F0           MOVX    @DPTR,A
   2947              if ( descLen )
   \   00007C   6027         JZ      ??ZDO_ParseUserDescRsp_1
   2948                osal_memcpy( pRsp->desc, &msg[4], descLen );
   \   00007E                ; Setup parameters for call to function osal_memcpy
   \   00007E   E5..         MOV     A,?V0 + 2
   \   000080   2404         ADD     A,#0x4
   \   000082   F5..         MOV     ?V0 + 4,A
   \   000084   E5..         MOV     A,?V0 + 3
   \   000086   3400         ADDC    A,#0x0
   \   000088   F5..         MOV     ?V0 + 5,A
   \   00008A   88..         MOV     ?V0 + 6,R0
   \   00008C   78..         MOV     R0,#?V0 + 4
   \   00008E   12....       LCALL   ?PUSH_XSTACK_I_THREE
   \   000091   AC..         MOV     R4,?V0 + 0
   \   000093   7D00         MOV     R5,#0x0
   \   000095   EE           MOV     A,R6
   \   000096   2404         ADD     A,#0x4
   \   000098   FA           MOV     R2,A
   \   000099   EF           MOV     A,R7
   \   00009A   3400         ADDC    A,#0x0
   \   00009C   FB           MOV     R3,A
   \   00009D   12....       LCALL   ??osal_memcpy?relay
   \   0000A0   7403         MOV     A,#0x3
   \   0000A2   12....       LCALL   ?DEALLOC_XSTACK8
   2949            }
   2950          
   2951            return ( pRsp );
   \                     ??ZDO_ParseUserDescRsp_1:
   \   0000A5                REQUIRE ?Subroutine9
   \   0000A5                ; // Fall through to label ?Subroutine9
   2952          }
   2953          
   2954          /*********************************************************************
   2955           * @fn          ZDO_ParseSimpleDescBuf
   2956           *
   2957           * @brief       Parse a byte sequence representation of a Simple Descriptor.
   2958           *
   2959           * @param       buf  - pointer to a byte array representing a Simple Desc.
   2960           * @param       desc - SimpleDescriptionFormat_t *
   2961           *
   2962           *              This routine allocates storage for the cluster IDs because
   2963           *              they are 16-bit and need to be aligned to be properly processed.
   2964           *              This routine returns non-zero if an allocation fails.
   2965           *
   2966           *              NOTE: This means that the caller or user of the input structure
   2967           *                    is responsible for freeing the memory
   2968           *
   2969           * @return      0: success
   2970           *              1: failure due to malloc failure.
   2971           */

   \                                 In  segment BANKED_CODE, align 1, keep-with-next
   2972          uint8 ZDO_ParseSimpleDescBuf( uint8 *buf, SimpleDescriptionFormat_t *desc )
   \                     ZDO_ParseSimpleDescBuf:
   2973          {
   \   000000   74F2         MOV     A,#-0xe
   \   000002   12....       LCALL   ?BANKED_ENTER_XDATA
   \   000005                ; Saved register size: 14
   \   000005                ; Auto size: 0
   \   000005   EA           MOV     A,R2
   \   000006   FE           MOV     R6,A
   \   000007   EB           MOV     A,R3
   \   000008   FF           MOV     R7,A
   \   000009   8C..         MOV     ?V0 + 0,R4
   \   00000B   8D..         MOV     ?V0 + 1,R5
   2974            uint8 num, i;
   2975          
   2976            desc->EndPoint = *buf++;
   \   00000D   8E82         MOV     DPL,R6
   \   00000F   8F83         MOV     DPH,R7
   \   000011   E0           MOVX    A,@DPTR
   \   000012   8C82         MOV     DPL,R4
   \   000014   8D83         MOV     DPH,R5
   \   000016   F0           MOVX    @DPTR,A
   \   000017   8E82         MOV     DPL,R6
   \   000019   8F83         MOV     DPH,R7
   \   00001B   A3           INC     DPTR
   \   00001C   AE82         MOV     R6,DPL
   \   00001E   AF83         MOV     R7,DPH
   2977            desc->AppProfId = BUILD_UINT16( buf[0], buf[1] );
   \   000020   E0           MOVX    A,@DPTR
   \   000021   FA           MOV     R2,A
   \   000022   A3           INC     DPTR
   \   000023   E0           MOVX    A,@DPTR
   \   000024   F9           MOV     R1,A
   \   000025   EA           MOV     A,R2
   \   000026   8C82         MOV     DPL,R4
   \   000028   8D83         MOV     DPH,R5
   \   00002A   A3           INC     DPTR
   \   00002B   F0           MOVX    @DPTR,A
   \   00002C   A3           INC     DPTR
   \   00002D   E9           MOV     A,R1
   \   00002E   F0           MOVX    @DPTR,A
   2978            buf += 2;
   \   00002F   EE           MOV     A,R6
   \   000030   2402         ADD     A,#0x2
   \   000032   0E           INC     R6
   \   000033   0E           INC     R6
   \   000034   EF           MOV     A,R7
   \   000035   3400         ADDC    A,#0x0
   \   000037   FF           MOV     R7,A
   2979            desc->AppDeviceId = BUILD_UINT16( buf[0], buf[1] );
   \   000038   8E82         MOV     DPL,R6
   \   00003A   8F83         MOV     DPH,R7
   \   00003C   E0           MOVX    A,@DPTR
   \   00003D   FA           MOV     R2,A
   \   00003E   A3           INC     DPTR
   \   00003F   E0           MOVX    A,@DPTR
   \   000040   F9           MOV     R1,A
   \   000041   EA           MOV     A,R2
   \   000042   8C82         MOV     DPL,R4
   \   000044   8D83         MOV     DPH,R5
   \   000046   A3           INC     DPTR
   \   000047   A3           INC     DPTR
   \   000048   A3           INC     DPTR
   \   000049   F0           MOVX    @DPTR,A
   \   00004A   A3           INC     DPTR
   \   00004B   E9           MOV     A,R1
   \   00004C   F0           MOVX    @DPTR,A
   2980            buf += 2;
   \   00004D   EE           MOV     A,R6
   \   00004E   2402         ADD     A,#0x2
   \   000050   0E           INC     R6
   \   000051   0E           INC     R6
   \   000052   EF           MOV     A,R7
   \   000053   3400         ADDC    A,#0x0
   \   000055   FF           MOV     R7,A
   2981            desc->AppDevVer = *buf >> 4;
   2982          
   2983            desc->Reserved = 0;
   \   000056   8E82         MOV     DPL,R6
   \   000058   8F83         MOV     DPH,R7
   \   00005A   E0           MOVX    A,@DPTR
   \   00005B   C4           SWAP    A
   \   00005C   540F         ANL     A,#0xf
   \   00005E   8C82         MOV     DPL,R4
   \   000060   8D83         MOV     DPH,R5
   \   000062   A3           INC     DPTR
   \   000063   A3           INC     DPTR
   \   000064   A3           INC     DPTR
   \   000065   A3           INC     DPTR
   \   000066   A3           INC     DPTR
   \   000067   F0           MOVX    @DPTR,A
   2984            buf++;
   \   000068   8E82         MOV     DPL,R6
   \   00006A   8F83         MOV     DPH,R7
   \   00006C   A3           INC     DPTR
   2985          
   2986            // move in input cluster list (if any). allocate aligned memory.
   2987            num = desc->AppNumInClusters = *buf++;
   \   00006D   E0           MOVX    A,@DPTR
   \   00006E   F8           MOV     R0,A
   \   00006F   A3           INC     DPTR
   \   000070   0E           INC     R6
   \   000071   0E           INC     R6
   \   000072   AF83         MOV     R7,DPH
   \   000074   8C82         MOV     DPL,R4
   \   000076   8D83         MOV     DPH,R5
   \   000078   A3           INC     DPTR
   \   000079   A3           INC     DPTR
   \   00007A   A3           INC     DPTR
   \   00007B   A3           INC     DPTR
   \   00007C   A3           INC     DPTR
   \   00007D   A3           INC     DPTR
   \   00007E   F0           MOVX    @DPTR,A
   \   00007F   88..         MOV     ?V0 + 3,R0
   2988            if ( num )
   \   000081   6060         JZ      ??ZDO_ParseSimpleDescBuf_0
   2989            {
   2990              if (!(desc->pAppInClusterList = (uint16 *)osal_mem_alloc(num*sizeof(uint16))))
   \   000083   EC           MOV     A,R4
   \   000084   2407         ADD     A,#0x7
   \   000086   F5..         MOV     ?V0 + 4,A
   \   000088   ED           MOV     A,R5
   \   000089   3400         ADDC    A,#0x0
   \   00008B   F5..         MOV     ?V0 + 5,A
   \   00008D                ; Setup parameters for call to function osal_mem_alloc
   \   00008D   E8           MOV     A,R0
   \   00008E   C3           CLR     C
   \   00008F   33           RLC     A
   \   000090   FA           MOV     R2,A
   \   000091   E4           CLR     A
   \   000092   33           RLC     A
   \   000093   FB           MOV     R3,A
   \   000094   12....       LCALL   ??osal_mem_alloc?relay
   \   000097   85..82       MOV     DPL,?V0 + 4
   \   00009A   85..83       MOV     DPH,?V0 + 5
   \   00009D   EA           MOV     A,R2
   \   00009E   F0           MOVX    @DPTR,A
   \   00009F   A3           INC     DPTR
   \   0000A0   EB           MOV     A,R3
   \   0000A1   F0           MOVX    @DPTR,A
   \   0000A2   85..82       MOV     DPL,?V0 + 4
   \   0000A5   85..83       MOV     DPH,?V0 + 5
   \   0000A8   E0           MOVX    A,@DPTR
   \   0000A9   F8           MOV     R0,A
   \   0000AA   A3           INC     DPTR
   \   0000AB   E0           MOVX    A,@DPTR
   \   0000AC   F9           MOV     R1,A
   \   0000AD   E8           MOV     A,R0
   \   0000AE   49           ORL     A,R1
   \   0000AF   7005         JNZ     ??ZDO_ParseSimpleDescBuf_1
   2991              {
   2992                // malloc failed. we're done.
   2993                return 1;
   \                     ??ZDO_ParseSimpleDescBuf_2:
   \   0000B1   7901         MOV     R1,#0x1
   \   0000B3   02....       LJMP    ??ZDO_ParseSimpleDescBuf_3 & 0xFFFF
   2994              }
   \                     ??ZDO_ParseSimpleDescBuf_1:
   \   0000B6   85....       MOV     ?V0 + 2,?V0 + 3
   2995              for (i=0; i<num; ++i)
   2996              {
   2997                desc->pAppInClusterList[i] = BUILD_UINT16( buf[0], buf[1] );
   \                     ??ZDO_ParseSimpleDescBuf_4:
   \   0000B9   8E82         MOV     DPL,R6
   \   0000BB   8F83         MOV     DPH,R7
   \   0000BD   E0           MOVX    A,@DPTR
   \   0000BE   FC           MOV     R4,A
   \   0000BF   A3           INC     DPTR
   \   0000C0   E0           MOVX    A,@DPTR
   \   0000C1   FB           MOV     R3,A
   \   0000C2   EC           MOV     A,R4
   \   0000C3   8882         MOV     DPL,R0
   \   0000C5   8983         MOV     DPH,R1
   \   0000C7   F0           MOVX    @DPTR,A
   \   0000C8   A3           INC     DPTR
   \   0000C9   EB           MOV     A,R3
   \   0000CA   F0           MOVX    @DPTR,A
   2998                buf += 2;
   \   0000CB   EE           MOV     A,R6
   \   0000CC   2402         ADD     A,#0x2
   \   0000CE   0E           INC     R6
   \   0000CF   0E           INC     R6
   \   0000D0   EF           MOV     A,R7
   \   0000D1   3400         ADDC    A,#0x0
   \   0000D3   FF           MOV     R7,A
   2999              }
   \   0000D4   E8           MOV     A,R0
   \   0000D5   2402         ADD     A,#0x2
   \   0000D7   08           INC     R0
   \   0000D8   08           INC     R0
   \   0000D9   E9           MOV     A,R1
   \   0000DA   3400         ADDC    A,#0x0
   \   0000DC   F9           MOV     R1,A
   \   0000DD   15..         DEC     ?V0 + 2
   \   0000DF   E5..         MOV     A,?V0 + 2
   \   0000E1   70D6         JNZ     ??ZDO_ParseSimpleDescBuf_4
   3000            }
   3001          
   3002            // move in output cluster list (if any). allocate aligned memory.
   3003            num = desc->AppNumOutClusters = *buf++;
   \                     ??ZDO_ParseSimpleDescBuf_0:
   \   0000E3   8E82         MOV     DPL,R6
   \   0000E5   8F83         MOV     DPH,R7
   \   0000E7   E0           MOVX    A,@DPTR
   \   0000E8   F8           MOV     R0,A
   \   0000E9   A3           INC     DPTR
   \   0000EA   AE82         MOV     R6,DPL
   \   0000EC   AF83         MOV     R7,DPH
   \   0000EE   85..82       MOV     DPL,?V0 + 0
   \   0000F1   85..83       MOV     DPH,?V0 + 1
   \   0000F4   A3           INC     DPTR
   \   0000F5   A3           INC     DPTR
   \   0000F6   A3           INC     DPTR
   \   0000F7   A3           INC     DPTR
   \   0000F8   A3           INC     DPTR
   \   0000F9   A3           INC     DPTR
   \   0000FA   A3           INC     DPTR
   \   0000FB   A3           INC     DPTR
   \   0000FC   A3           INC     DPTR
   \   0000FD   F0           MOVX    @DPTR,A
   \   0000FE   88..         MOV     ?V0 + 3,R0
   3004            if (num)
   \   000100   607E         JZ      ??ZDO_ParseSimpleDescBuf_5
   3005            {
   3006              if (!(desc->pAppOutClusterList = (uint16 *)osal_mem_alloc(num*sizeof(uint16))))
   \   000102   E5..         MOV     A,?V0 + 0
   \   000104   240A         ADD     A,#0xa
   \   000106   F5..         MOV     ?V0 + 4,A
   \   000108   E5..         MOV     A,?V0 + 1
   \   00010A   3400         ADDC    A,#0x0
   \   00010C   F5..         MOV     ?V0 + 5,A
   \   00010E                ; Setup parameters for call to function osal_mem_alloc
   \   00010E   E8           MOV     A,R0
   \   00010F   C3           CLR     C
   \   000110   33           RLC     A
   \   000111   FA           MOV     R2,A
   \   000112   E4           CLR     A
   \   000113   33           RLC     A
   \   000114   FB           MOV     R3,A
   \   000115   12....       LCALL   ??osal_mem_alloc?relay
   \   000118   85..82       MOV     DPL,?V0 + 4
   \   00011B   85..83       MOV     DPH,?V0 + 5
   \   00011E   EA           MOV     A,R2
   \   00011F   F0           MOVX    @DPTR,A
   \   000120   A3           INC     DPTR
   \   000121   EB           MOV     A,R3
   \   000122   F0           MOVX    @DPTR,A
   \   000123   85..82       MOV     DPL,?V0 + 4
   \   000126   85..83       MOV     DPH,?V0 + 5
   \   000129   E0           MOVX    A,@DPTR
   \   00012A   F8           MOV     R0,A
   \   00012B   A3           INC     DPTR
   \   00012C   E0           MOVX    A,@DPTR
   \   00012D   F9           MOV     R1,A
   \   00012E   E8           MOV     A,R0
   \   00012F   49           ORL     A,R1
   \   000130   7021         JNZ     ??ZDO_ParseSimpleDescBuf_6
   3007              {
   3008                // malloc failed. free input cluster list memory if there is any
   3009                if ( desc->pAppInClusterList != NULL )
   \   000132   E5..         MOV     A,?V0 + 0
   \   000134   2407         ADD     A,#0x7
   \   000136   F5..         MOV     ?V0 + 4,A
   \   000138   E5..         MOV     A,?V0 + 1
   \   00013A   3400         ADDC    A,#0x0
   \   00013C   85..82       MOV     DPL,?V0 + 4
   \   00013F   F583         MOV     DPH,A
   \   000141   E0           MOVX    A,@DPTR
   \   000142   FA           MOV     R2,A
   \   000143   A3           INC     DPTR
   \   000144   E0           MOVX    A,@DPTR
   \   000145   FB           MOV     R3,A
   \   000146   EA           MOV     A,R2
   \   000147   4B           ORL     A,R3
   \   000148   7003         JNZ     $+5
   \   00014A   02....       LJMP    ??ZDO_ParseSimpleDescBuf_2 & 0xFFFF
   3010                {
   3011                  osal_mem_free(desc->pAppInClusterList);
   \   00014D                ; Setup parameters for call to function osal_mem_free
   \   00014D   12....       LCALL   ??osal_mem_free?relay
   \   000150   02....       LJMP    ??ZDO_ParseSimpleDescBuf_2 & 0xFFFF
   3012                }
   3013                return 1;
   3014              }
   \                     ??ZDO_ParseSimpleDescBuf_6:
   \   000153   85....       MOV     ?V0 + 0,?V0 + 3
   3015              for (i=0; i<num; ++i)
   3016              {
   3017                desc->pAppOutClusterList[i] = BUILD_UINT16( buf[0], buf[1] );
   \                     ??ZDO_ParseSimpleDescBuf_7:
   \   000156   8E82         MOV     DPL,R6
   \   000158   8F83         MOV     DPH,R7
   \   00015A   E0           MOVX    A,@DPTR
   \   00015B   FC           MOV     R4,A
   \   00015C   A3           INC     DPTR
   \   00015D   E0           MOVX    A,@DPTR
   \   00015E   FB           MOV     R3,A
   \   00015F   EC           MOV     A,R4
   \   000160   8882         MOV     DPL,R0
   \   000162   8983         MOV     DPH,R1
   \   000164   F0           MOVX    @DPTR,A
   \   000165   A3           INC     DPTR
   \   000166   EB           MOV     A,R3
   \   000167   F0           MOVX    @DPTR,A
   3018                buf += 2;
   \   000168   EE           MOV     A,R6
   \   000169   2402         ADD     A,#0x2
   \   00016B   0E           INC     R6
   \   00016C   0E           INC     R6
   \   00016D   EF           MOV     A,R7
   \   00016E   3400         ADDC    A,#0x0
   \   000170   FF           MOV     R7,A
   3019              }
   \   000171   E8           MOV     A,R0
   \   000172   2402         ADD     A,#0x2
   \   000174   08           INC     R0
   \   000175   08           INC     R0
   \   000176   E9           MOV     A,R1
   \   000177   3400         ADDC    A,#0x0
   \   000179   F9           MOV     R1,A
   \   00017A   15..         DEC     ?V0 + 0
   \   00017C   E5..         MOV     A,?V0 + 0
   \   00017E   70D6         JNZ     ??ZDO_ParseSimpleDescBuf_7
   3020            }
   3021            return 0;
   \                     ??ZDO_ParseSimpleDescBuf_5:
   \   000180   7900         MOV     R1,#0x0
   \                     ??ZDO_ParseSimpleDescBuf_3:
   \   000182   02....       LJMP    ?Subroutine4 & 0xFFFF
   3022          }
   3023          
   3024          /*********************************************************************
   3025           * @fn          ZDO_ParseDeviceAnnce
   3026           *
   3027           * @brief       Parse a Device Announce message.
   3028           *
   3029           * @param       inMsg - Incoming message
   3030           * @param       pAnnce - place to put the parsed information
   3031           *
   3032           * @return      none
   3033           */

   \                                 In  segment BANKED_CODE, align 1, keep-with-next
   3034          void ZDO_ParseDeviceAnnce( zdoIncomingMsg_t *inMsg, ZDO_DeviceAnnce_t *pAnnce )
   \                     ZDO_ParseDeviceAnnce:
   3035          {
   \   000000   74F6         MOV     A,#-0xa
   \   000002   12....       LCALL   ?BANKED_ENTER_XDATA
   \   000005                ; Saved register size: 10
   \   000005                ; Auto size: 0
   \   000005   8C..         MOV     ?V0 + 0,R4
   \   000007   8D..         MOV     ?V0 + 1,R5
   3036            uint8 *msg;
   3037          
   3038            // Parse incoming message
   3039            msg = inMsg->asdu;
   \   000009   EA           MOV     A,R2
   \   00000A   2413         ADD     A,#0x13
   \   00000C   F582         MOV     DPL,A
   \   00000E   EB           MOV     A,R3
   \   00000F   3400         ADDC    A,#0x0
   \   000011   F583         MOV     DPH,A
   \   000013   E0           MOVX    A,@DPTR
   \   000014   F8           MOV     R0,A
   \   000015   A3           INC     DPTR
   \   000016   E0           MOVX    A,@DPTR
   \   000017   F9           MOV     R1,A
   \   000018   E8           MOV     A,R0
   \   000019   FE           MOV     R6,A
   \   00001A   E9           MOV     A,R1
   \   00001B   FF           MOV     R7,A
   3040            pAnnce->nwkAddr = BUILD_UINT16( msg[0], msg[1] );
   \   00001C   8E82         MOV     DPL,R6
   \   00001E   8F83         MOV     DPH,R7
   \   000020   E0           MOVX    A,@DPTR
   \   000021   FA           MOV     R2,A
   \   000022   A3           INC     DPTR
   \   000023   E0           MOVX    A,@DPTR
   \   000024   F9           MOV     R1,A
   \   000025   EA           MOV     A,R2
   \   000026   8C82         MOV     DPL,R4
   \   000028   8D83         MOV     DPH,R5
   \   00002A   F0           MOVX    @DPTR,A
   \   00002B   A3           INC     DPTR
   \   00002C   E9           MOV     A,R1
   \   00002D   F0           MOVX    @DPTR,A
   3041            msg += 2;
   \   00002E   EE           MOV     A,R6
   \   00002F   2402         ADD     A,#0x2
   \   000031   0E           INC     R6
   \   000032   0E           INC     R6
   \   000033   EF           MOV     A,R7
   \   000034   3400         ADDC    A,#0x0
   \   000036   FF           MOV     R7,A
   3042            osal_cpyExtAddr( pAnnce->extAddr, msg );
   \   000037                ; Setup parameters for call to function sAddrExtCpy
   \   000037   EE           MOV     A,R6
   \   000038   FC           MOV     R4,A
   \   000039   EF           MOV     A,R7
   \   00003A   FD           MOV     R5,A
   \   00003B   E5..         MOV     A,?V0 + 0
   \   00003D   2402         ADD     A,#0x2
   \   00003F   FA           MOV     R2,A
   \   000040   E5..         MOV     A,?V0 + 1
   \   000042   3400         ADDC    A,#0x0
   \   000044   FB           MOV     R3,A
   \   000045   12....       LCALL   ??sAddrExtCpy?relay
   3043            msg += Z_EXTADDR_LEN;
   3044            pAnnce->capabilities = *msg;
   \   000048   8E82         MOV     DPL,R6
   \   00004A   8F83         MOV     DPH,R7
   \   00004C   A3           INC     DPTR
   \   00004D   A3           INC     DPTR
   \   00004E   A3           INC     DPTR
   \   00004F   A3           INC     DPTR
   \   000050   A3           INC     DPTR
   \   000051   A3           INC     DPTR
   \   000052   A3           INC     DPTR
   \   000053   A3           INC     DPTR
   \   000054   E0           MOVX    A,@DPTR
   \   000055   85..82       MOV     DPL,?V0 + 0
   \   000058   85..83       MOV     DPH,?V0 + 1
   \   00005B   A3           INC     DPTR
   \   00005C   A3           INC     DPTR
   \   00005D   A3           INC     DPTR
   \   00005E   A3           INC     DPTR
   \   00005F   A3           INC     DPTR
   \   000060   A3           INC     DPTR
   \   000061   A3           INC     DPTR
   \   000062   A3           INC     DPTR
   \   000063   A3           INC     DPTR
   \   000064   A3           INC     DPTR
   \   000065   F0           MOVX    @DPTR,A
   3045          }
   \   000066   02....       LJMP    ??Subroutine12_0 & 0xFFFF
   3046          
   3047          /*********************************************************************
   3048           * @fn          ZDO_ParseMgmtNwkUpdateNotify
   3049           *
   3050           * @brief       This function handles parsing of the incoming Management
   3051           *              Network Update notify.
   3052           *
   3053           * @param       inMsg - incoming message (request)
   3054           *
   3055           * @return      a pointer to parsed response structure (NULL if not allocated).
   3056           *          This structure was allocated using osal_mem_alloc, so it must be freed
   3057           *          by the calling function [osal_mem_free()].
   3058           */

   \                                 In  segment BANKED_CODE, align 1, keep-with-next
   3059          ZDO_MgmtNwkUpdateNotify_t *ZDO_ParseMgmtNwkUpdateNotify( zdoIncomingMsg_t *inMsg )
   \                     ZDO_ParseMgmtNwkUpdateNotify:
   3060          {
   \   000000   74E8         MOV     A,#-0x18
   \   000002   12....       LCALL   ?BANKED_ENTER_XDATA
   \   000005                ; Saved register size: 24
   \   000005                ; Auto size: 0
   3061            uint8 status;
   3062            uint32 scannedChannels = 0;
   \   000005   90....       MOV     DPTR,#__Constant_0
   \   000008   78..         MOV     R0,#?V0 + 4
   \   00000A   12....       LCALL   ?L_MOV_X
   3063            uint16 totalTransmissions = 0;
   \   00000D   75..00       MOV     ?V0 + 0,#0x0
   \   000010   75..00       MOV     ?V0 + 1,#0x0
   3064            uint16 transmissionFailures = 0;
   \   000013   75..00       MOV     ?V0 + 2,#0x0
   \   000016   75..00       MOV     ?V0 + 3,#0x0
   3065            uint8 listCount = 0;
   \   000019   75..00       MOV     ?V0 + 10,#0x0
   3066            uint8 *msg = inMsg->asdu;
   \   00001C   EA           MOV     A,R2
   \   00001D   2413         ADD     A,#0x13
   \   00001F   F582         MOV     DPL,A
   \   000021   EB           MOV     A,R3
   \   000022   3400         ADDC    A,#0x0
   \   000024   F583         MOV     DPH,A
   \   000026   E0           MOVX    A,@DPTR
   \   000027   FE           MOV     R6,A
   \   000028   A3           INC     DPTR
   \   000029   E0           MOVX    A,@DPTR
   \   00002A   FF           MOV     R7,A
   3067            ZDO_MgmtNwkUpdateNotify_t *pRsp;
   3068          
   3069            status = *msg++;
   \   00002B   8E82         MOV     DPL,R6
   \   00002D   8F83         MOV     DPH,R7
   \   00002F   E0           MOVX    A,@DPTR
   \   000030   F5..         MOV     ?V0 + 11,A
   \   000032   A3           INC     DPTR
   \   000033   AE82         MOV     R6,DPL
   \   000035   AF83         MOV     R7,DPH
   3070            if ( status == ZSuccess )
   \   000037   705A         JNZ     ??ZDO_ParseMgmtNwkUpdateNotify_0
   3071            {
   3072              scannedChannels = osal_build_uint32( msg, 4 );
   \   000039                ; Setup parameters for call to function osal_build_uint32
   \   000039   7904         MOV     R1,#0x4
   \   00003B   EE           MOV     A,R6
   \   00003C   FA           MOV     R2,A
   \   00003D   EF           MOV     A,R7
   \   00003E   FB           MOV     R3,A
   \   00003F   12....       LCALL   ??osal_build_uint32?relay
   \   000042   8A..         MOV     ?V0 + 4,R2
   \   000044   8B..         MOV     ?V0 + 5,R3
   \   000046   8C..         MOV     ?V0 + 6,R4
   \   000048   8D..         MOV     ?V0 + 7,R5
   3073              msg += 4;
   \   00004A   EE           MOV     A,R6
   \   00004B   2404         ADD     A,#0x4
   \   00004D   FE           MOV     R6,A
   \   00004E   EF           MOV     A,R7
   \   00004F   3400         ADDC    A,#0x0
   \   000051   FF           MOV     R7,A
   3074              totalTransmissions = BUILD_UINT16( msg[0], msg[1] );
   \   000052   8E82         MOV     DPL,R6
   \   000054   8F83         MOV     DPH,R7
   \   000056   E0           MOVX    A,@DPTR
   \   000057   FA           MOV     R2,A
   \   000058   A3           INC     DPTR
   \   000059   E0           MOVX    A,@DPTR
   \   00005A   F9           MOV     R1,A
   \   00005B   EA           MOV     A,R2
   \   00005C   2400         ADD     A,#0x0
   \   00005E   F5..         MOV     ?V0 + 0,A
   \   000060   E4           CLR     A
   \   000061   39           ADDC    A,R1
   \   000062   F5..         MOV     ?V0 + 1,A
   3075              msg += 2;
   \   000064   EE           MOV     A,R6
   \   000065   2402         ADD     A,#0x2
   \   000067   0E           INC     R6
   \   000068   0E           INC     R6
   \   000069   EF           MOV     A,R7
   \   00006A   3400         ADDC    A,#0x0
   \   00006C   FF           MOV     R7,A
   3076              transmissionFailures = BUILD_UINT16( msg[0], msg[1] );
   \   00006D   8E82         MOV     DPL,R6
   \   00006F   8F83         MOV     DPH,R7
   \   000071   E0           MOVX    A,@DPTR
   \   000072   FA           MOV     R2,A
   \   000073   A3           INC     DPTR
   \   000074   E0           MOVX    A,@DPTR
   \   000075   F9           MOV     R1,A
   \   000076   EA           MOV     A,R2
   \   000077   2400         ADD     A,#0x0
   \   000079   F5..         MOV     ?V0 + 2,A
   \   00007B   E4           CLR     A
   \   00007C   39           ADDC    A,R1
   \   00007D   F5..         MOV     ?V0 + 3,A
   3077              msg += 2;
   \   00007F   EE           MOV     A,R6
   \   000080   2402         ADD     A,#0x2
   \   000082   0E           INC     R6
   \   000083   0E           INC     R6
   \   000084   EF           MOV     A,R7
   \   000085   3400         ADDC    A,#0x0
   \   000087   FF           MOV     R7,A
   3078              listCount = *msg++;
   \   000088   8E82         MOV     DPL,R6
   \   00008A   8F83         MOV     DPH,R7
   \   00008C   E0           MOVX    A,@DPTR
   \   00008D   F5..         MOV     ?V0 + 10,A
   \   00008F   A3           INC     DPTR
   \   000090   0E           INC     R6
   \   000091   AF83         MOV     R7,DPH
   3079            }
   3080          
   3081            pRsp = (ZDO_MgmtNwkUpdateNotify_t *)osal_mem_alloc( sizeof ( ZDO_MgmtNwkUpdateNotify_t ) + listCount );
   \                     ??ZDO_ParseMgmtNwkUpdateNotify_0:
   \   000093   85..82       MOV     DPL,?V0 + 10
   \   000096   8582..       MOV     ?V0 + 8,DPL
   \   000099                ; Setup parameters for call to function osal_mem_alloc
   \   000099   E5..         MOV     A,?V0 + 8
   \   00009B   240A         ADD     A,#0xa
   \   00009D   FA           MOV     R2,A
   \   00009E   E4           CLR     A
   \   00009F   3400         ADDC    A,#0x0
   \   0000A1   FB           MOV     R3,A
   \   0000A2   12....       LCALL   ??osal_mem_alloc?relay
   \   0000A5   8A..         MOV     ?V0 + 14,R2
   \   0000A7   8B..         MOV     ?V0 + 15,R3
   3082          
   3083            if ( pRsp )
   \   0000A9   EA           MOV     A,R2
   \   0000AA   45..         ORL     A,?V0 + 15
   \   0000AC   6061         JZ      ??ZDO_ParseMgmtNwkUpdateNotify_1
   3084            {
   3085              pRsp->status = status;
   \   0000AE   8A82         MOV     DPL,R2
   \   0000B0   8B83         MOV     DPH,R3
   \   0000B2   E5..         MOV     A,?V0 + 11
   \   0000B4   F0           MOVX    @DPTR,A
   3086              pRsp->scannedChannels = scannedChannels;
   \   0000B5   A3           INC     DPTR
   \   0000B6   78..         MOV     R0,#?V0 + 4
   \   0000B8   12....       LCALL   ?L_MOV_TO_X
   3087              pRsp->totalTransmissions = totalTransmissions;
   \   0000BB   8A82         MOV     DPL,R2
   \   0000BD   8B83         MOV     DPH,R3
   \   0000BF   A3           INC     DPTR
   \   0000C0   A3           INC     DPTR
   \   0000C1   A3           INC     DPTR
   \   0000C2   A3           INC     DPTR
   \   0000C3   A3           INC     DPTR
   \   0000C4   E5..         MOV     A,?V0 + 0
   \   0000C6   F0           MOVX    @DPTR,A
   \   0000C7   A3           INC     DPTR
   \   0000C8   E5..         MOV     A,?V0 + 1
   \   0000CA   F0           MOVX    @DPTR,A
   3088              pRsp->transmissionFailures = transmissionFailures;
   \   0000CB   8A82         MOV     DPL,R2
   \   0000CD   8B83         MOV     DPH,R3
   \   0000CF   A3           INC     DPTR
   \   0000D0   A3           INC     DPTR
   \   0000D1   A3           INC     DPTR
   \   0000D2   A3           INC     DPTR
   \   0000D3   A3           INC     DPTR
   \   0000D4   A3           INC     DPTR
   \   0000D5   A3           INC     DPTR
   \   0000D6   E5..         MOV     A,?V0 + 2
   \   0000D8   F0           MOVX    @DPTR,A
   \   0000D9   A3           INC     DPTR
   \   0000DA   E5..         MOV     A,?V0 + 3
   \   0000DC   F0           MOVX    @DPTR,A
   3089              pRsp->listCount = listCount;
   \   0000DD   8A82         MOV     DPL,R2
   \   0000DF   8B83         MOV     DPH,R3
   \   0000E1   A3           INC     DPTR
   \   0000E2   A3           INC     DPTR
   \   0000E3   A3           INC     DPTR
   \   0000E4   A3           INC     DPTR
   \   0000E5   A3           INC     DPTR
   \   0000E6   A3           INC     DPTR
   \   0000E7   A3           INC     DPTR
   \   0000E8   A3           INC     DPTR
   \   0000E9   A3           INC     DPTR
   \   0000EA   E5..         MOV     A,?V0 + 10
   \   0000EC   F0           MOVX    @DPTR,A
   3090          
   3091              // Allocate a buffer big enough to handle the list.
   3092              if ( listCount > 0 )
   \   0000ED   6020         JZ      ??ZDO_ParseMgmtNwkUpdateNotify_1
   3093                osal_memcpy( pRsp->energyValues, msg, listCount );
   \   0000EF                ; Setup parameters for call to function osal_memcpy
   \   0000EF   8E..         MOV     ?V0 + 0,R6
   \   0000F1   8F..         MOV     ?V0 + 1,R7
   \   0000F3   75..00       MOV     ?V0 + 2,#0x0
   \   0000F6   78..         MOV     R0,#?V0 + 0
   \   0000F8   12....       LCALL   ?PUSH_XSTACK_I_THREE
   \   0000FB   AC..         MOV     R4,?V0 + 8
   \   0000FD   7D00         MOV     R5,#0x0
   \   0000FF   EA           MOV     A,R2
   \   000100   240A         ADD     A,#0xa
   \   000102   FA           MOV     R2,A
   \   000103   EB           MOV     A,R3
   \   000104   3400         ADDC    A,#0x0
   \   000106   FB           MOV     R3,A
   \   000107   12....       LCALL   ??osal_memcpy?relay
   \   00010A   7403         MOV     A,#0x3
   \   00010C   12....       LCALL   ?DEALLOC_XSTACK8
   3094            }
   3095          
   3096            return ( pRsp );
   \                     ??ZDO_ParseMgmtNwkUpdateNotify_1:
   \   00010F   AA..         MOV     R2,?V0 + 14
   \   000111   AB..         MOV     R3,?V0 + 15
   \   000113   02....       LJMP    ??Subroutine13_0 & 0xFFFF
   3097          }
   3098          
   3099          /*********************************************************************
   3100           * @fn          ZDO_ParseMgmtNwkUpdateReq
   3101           *
   3102           * @brief       This function handles parsing the incoming Management
   3103           *              Network Update request and starts the request (if needed).
   3104           *
   3105           * @param       inMsg - incoming message (request)
   3106           * @param       pReq - pointer to place to parse message to
   3107           *
   3108           * @return      none
   3109           */

   \                                 In  segment BANKED_CODE, align 1, keep-with-next
   3110          void ZDO_ParseMgmtNwkUpdateReq( zdoIncomingMsg_t *inMsg, ZDO_MgmtNwkUpdateReq_t *pReq )
   \                     ZDO_ParseMgmtNwkUpdateReq:
   3111          {
   \   000000   74F6         MOV     A,#-0xa
   \   000002   12....       LCALL   ?BANKED_ENTER_XDATA
   \   000005                ; Saved register size: 10
   \   000005                ; Auto size: 0
   \   000005   8C..         MOV     ?V0 + 0,R4
   \   000007   8D..         MOV     ?V0 + 1,R5
   3112            uint8 *msg = inMsg->asdu;
   \   000009   EA           MOV     A,R2
   \   00000A   2413         ADD     A,#0x13
   \   00000C   F582         MOV     DPL,A
   \   00000E   EB           MOV     A,R3
   \   00000F   3400         ADDC    A,#0x0
   \   000011   F583         MOV     DPH,A
   \   000013   E0           MOVX    A,@DPTR
   \   000014   FE           MOV     R6,A
   \   000015   A3           INC     DPTR
   \   000016   E0           MOVX    A,@DPTR
   \   000017   FF           MOV     R7,A
   3113          
   3114            pReq->channelMask = osal_build_uint32( msg, 4 );
   \   000018                ; Setup parameters for call to function osal_build_uint32
   \   000018   7904         MOV     R1,#0x4
   \   00001A   EE           MOV     A,R6
   \   00001B   FA           MOV     R2,A
   \   00001C   EF           MOV     A,R7
   \   00001D   FB           MOV     R3,A
   \   00001E   12....       LCALL   ??osal_build_uint32?relay
   \   000021   85..82       MOV     DPL,?V0 + 0
   \   000024   85..83       MOV     DPH,?V0 + 1
   \   000027   12....       LCALL   ?XSTORE_R2345
   3115            msg += 4;
   \   00002A   EE           MOV     A,R6
   \   00002B   2404         ADD     A,#0x4
   \   00002D   FE           MOV     R6,A
   \   00002E   EF           MOV     A,R7
   \   00002F   3400         ADDC    A,#0x0
   \   000031   FF           MOV     R7,A
   3116            pReq->scanDuration = *msg++;
   \   000032   8E82         MOV     DPL,R6
   \   000034   8F83         MOV     DPH,R7
   \   000036   E0           MOVX    A,@DPTR
   \   000037   FA           MOV     R2,A
   \   000038   E5..         MOV     A,?V0 + 0
   \   00003A   2404         ADD     A,#0x4
   \   00003C   F8           MOV     R0,A
   \   00003D   E5..         MOV     A,?V0 + 1
   \   00003F   3400         ADDC    A,#0x0
   \   000041   F9           MOV     R1,A
   \   000042   EA           MOV     A,R2
   \   000043   8882         MOV     DPL,R0
   \   000045   8983         MOV     DPH,R1
   \   000047   F0           MOVX    @DPTR,A
   \   000048   8E82         MOV     DPL,R6
   \   00004A   8F83         MOV     DPH,R7
   \   00004C   A3           INC     DPTR
   \   00004D   AE82         MOV     R6,DPL
   \   00004F   AF83         MOV     R7,DPH
   3117          
   3118            if ( pReq->scanDuration <= 0x05 )
   \   000051   C3           CLR     C
   \   000052   9406         SUBB    A,#0x6
   \   000054   500E         JNC     ??ZDO_ParseMgmtNwkUpdateReq_0
   3119            {
   3120              // Request is to scan over channelMask
   3121              pReq->scanCount = *msg;
   \   000056   E0           MOVX    A,@DPTR
   \   000057   85..82       MOV     DPL,?V0 + 0
   \   00005A   85..83       MOV     DPH,?V0 + 1
   \   00005D   A3           INC     DPTR
   \   00005E   A3           INC     DPTR
   \   00005F   A3           INC     DPTR
   \   000060   A3           INC     DPTR
   \   000061   A3           INC     DPTR
   \   000062   8042         SJMP    ??ZDO_ParseMgmtNwkUpdateReq_1
   3122            }
   3123            else if ( ( pReq->scanDuration == 0xFE ) || ( pReq->scanDuration == 0xFF ) )
   \                     ??ZDO_ParseMgmtNwkUpdateReq_0:
   \   000064   74FE         MOV     A,#-0x2
   \   000066   6A           XRL     A,R2
   \   000067   6005         JZ      ??ZDO_ParseMgmtNwkUpdateReq_2
   \   000069   74FF         MOV     A,#-0x1
   \   00006B   6A           XRL     A,R2
   \   00006C   7039         JNZ     ??ZDO_ParseMgmtNwkUpdateReq_3
   3124            {
   3125              // Request is to change Channel (0xFE) or apsChannelMask and NwkManagerAddr (0xFF)
   3126              pReq->nwkUpdateId = *msg++;
   \                     ??ZDO_ParseMgmtNwkUpdateReq_2:
   \   00006E   E0           MOVX    A,@DPTR
   \   00006F   85..82       MOV     DPL,?V0 + 0
   \   000072   85..83       MOV     DPH,?V0 + 1
   \   000075   A3           INC     DPTR
   \   000076   A3           INC     DPTR
   \   000077   A3           INC     DPTR
   \   000078   A3           INC     DPTR
   \   000079   A3           INC     DPTR
   \   00007A   A3           INC     DPTR
   \   00007B   F0           MOVX    @DPTR,A
   \   00007C   8E82         MOV     DPL,R6
   \   00007E   8F83         MOV     DPH,R7
   \   000080   A3           INC     DPTR
   \   000081   0E           INC     R6
   \   000082   AF83         MOV     R7,DPH
   3127          
   3128              if ( pReq->scanDuration == 0xFF )
   \   000084   8882         MOV     DPL,R0
   \   000086   8983         MOV     DPH,R1
   \   000088   E0           MOVX    A,@DPTR
   \   000089   F4           CPL     A
   \   00008A   701B         JNZ     ??ZDO_ParseMgmtNwkUpdateReq_3
   3129              {
   3130                pReq->nwkManagerAddr = BUILD_UINT16( msg[0], msg[1] );
   \   00008C   8E82         MOV     DPL,R6
   \   00008E   8F83         MOV     DPH,R7
   \   000090   E0           MOVX    A,@DPTR
   \   000091   FA           MOV     R2,A
   \   000092   A3           INC     DPTR
   \   000093   E0           MOVX    A,@DPTR
   \   000094   F9           MOV     R1,A
   \   000095   EA           MOV     A,R2
   \   000096   85..82       MOV     DPL,?V0 + 0
   \   000099   85..83       MOV     DPH,?V0 + 1
   \   00009C   A3           INC     DPTR
   \   00009D   A3           INC     DPTR
   \   00009E   A3           INC     DPTR
   \   00009F   A3           INC     DPTR
   \   0000A0   A3           INC     DPTR
   \   0000A1   A3           INC     DPTR
   \   0000A2   A3           INC     DPTR
   \   0000A3   F0           MOVX    @DPTR,A
   \   0000A4   A3           INC     DPTR
   \   0000A5   E9           MOV     A,R1
   \                     ??ZDO_ParseMgmtNwkUpdateReq_1:
   \   0000A6   F0           MOVX    @DPTR,A
   3131              }
   3132            }
   3133          }
   \                     ??ZDO_ParseMgmtNwkUpdateReq_3:
   \   0000A7   02....       LJMP    ??Subroutine12_0 & 0xFFFF

   \                                 In  segment BANK_RELAYS, align 1
   \                     ??ZDO_Init?relay:
   \   000000   12....       LCALL   ?BDISPATCH
   \   000003   ......       DC24    ZDO_Init

   \                                 In  segment BANK_RELAYS, align 1
   \                     ??ZDO_StartDevice?relay:
   \   000000   12....       LCALL   ?BDISPATCH
   \   000003   ......       DC24    ZDO_StartDevice

   \                                 In  segment BANK_RELAYS, align 1
   \                     ??ZDO_UpdateNwkStatus?relay:
   \   000000   12....       LCALL   ?BDISPATCH
   \   000003   ......       DC24    ZDO_UpdateNwkStatus

   \                                 In  segment BANK_RELAYS, align 1
   \                     ??ZDO_AnyClusterMatches?relay:
   \   000000   12....       LCALL   ?BDISPATCH
   \   000003   ......       DC24    ZDO_AnyClusterMatches

   \                                 In  segment BANK_RELAYS, align 1
   \                     ??ZDO_ProcessNodeDescReq?relay:
   \   000000   12....       LCALL   ?BDISPATCH
   \   000003   ......       DC24    ZDO_ProcessNodeDescReq

   \                                 In  segment BANK_RELAYS, align 1
   \                     ??ZDO_ProcessPowerDescReq?relay:
   \   000000   12....       LCALL   ?BDISPATCH
   \   000003   ......       DC24    ZDO_ProcessPowerDescReq

   \                                 In  segment BANK_RELAYS, align 1
   \                     ??ZDO_ProcessSimpleDescReq?relay:
   \   000000   12....       LCALL   ?BDISPATCH
   \   000003   ......       DC24    ZDO_ProcessSimpleDescReq

   \                                 In  segment BANK_RELAYS, align 1
   \                     ??ZDO_ProcessActiveEPReq?relay:
   \   000000   12....       LCALL   ?BDISPATCH
   \   000003   ......       DC24    ZDO_ProcessActiveEPReq

   \                                 In  segment BANK_RELAYS, align 1
   \                     ??ZDO_ConvertOTAClusters?relay:
   \   000000   12....       LCALL   ?BDISPATCH
   \   000003   ......       DC24    ZDO_ConvertOTAClusters

   \                                 In  segment BANK_RELAYS, align 1
   \                     ??ZDO_ProcessMatchDescReq?relay:
   \   000000   12....       LCALL   ?BDISPATCH
   \   000003   ......       DC24    ZDO_ProcessMatchDescReq

   \                                 In  segment BANK_RELAYS, align 1
   \                     ??ZDO_ProcessBindUnbindReq?relay:
   \   000000   12....       LCALL   ?BDISPATCH
   \   000003   ......       DC24    ZDO_ProcessBindUnbindReq

   \                                 In  segment BANK_RELAYS, align 1
   \                     ??ZDO_UpdateAddrManager?relay:
   \   000000   12....       LCALL   ?BDISPATCH
   \   000003   ......       DC24    ZDO_UpdateAddrManager

   \                                 In  segment BANK_RELAYS, align 1
   \                     ??ZDO_ProcessServerDiscReq?relay:
   \   000000   12....       LCALL   ?BDISPATCH
   \   000003   ......       DC24    ZDO_ProcessServerDiscReq

   \                                 In  segment BANK_RELAYS, align 1
   \                     ??ZDO_EndDeviceTimeoutCB?relay:
   \   000000   12....       LCALL   ?BDISPATCH
   \   000003   ......       DC24    ZDO_EndDeviceTimeoutCB

   \                                 In  segment BANK_RELAYS, align 1
   \                     ??ZDO_ProcessMgmtLqiReq?relay:
   \   000000   12....       LCALL   ?BDISPATCH
   \   000003   ......       DC24    ZDO_ProcessMgmtLqiReq

   \                                 In  segment BANK_RELAYS, align 1
   \                     ??ZDO_ProcessMgmtNwkDiscReq?relay:
   \   000000   12....       LCALL   ?BDISPATCH
   \   000003   ......       DC24    ZDO_ProcessMgmtNwkDiscReq

   \                                 In  segment BANK_RELAYS, align 1
   \                     ??ZDO_ProcessMgmtRtgReq?relay:
   \   000000   12....       LCALL   ?BDISPATCH
   \   000003   ......       DC24    ZDO_ProcessMgmtRtgReq

   \                                 In  segment BANK_RELAYS, align 1
   \                     ??ZDO_ProcessMgmtBindReq?relay:
   \   000000   12....       LCALL   ?BDISPATCH
   \   000003   ......       DC24    ZDO_ProcessMgmtBindReq

   \                                 In  segment BANK_RELAYS, align 1
   \                     ??ZDO_ProcessMgmtDirectJoinReq?relay:
   \   000000   12....       LCALL   ?BDISPATCH
   \   000003   ......       DC24    ZDO_ProcessMgmtDirectJoinReq

   \                                 In  segment BANK_RELAYS, align 1
   \                     ??ZDO_ProcessMgmtLeaveReq?relay:
   \   000000   12....       LCALL   ?BDISPATCH
   \   000003   ......       DC24    ZDO_ProcessMgmtLeaveReq

   \                                 In  segment BANK_RELAYS, align 1
   \                     ??ZDO_ProcessMgmtPermitJoinReq?relay:
   \   000000   12....       LCALL   ?BDISPATCH
   \   000003   ......       DC24    ZDO_ProcessMgmtPermitJoinReq

   \                                 In  segment BANK_RELAYS, align 1
   \                     ??NLME_PermitJoiningTimeout?relay:
   \   000000   12....       LCALL   ?BDISPATCH
   \   000003   ......       DC24    NLME_PermitJoiningTimeout

   \                                 In  segment BANK_RELAYS, align 1
   \                     ??ZDO_ProcessUserDescReq?relay:
   \   000000   12....       LCALL   ?BDISPATCH
   \   000003   ......       DC24    ZDO_ProcessUserDescReq

   \                                 In  segment BANK_RELAYS, align 1
   \                     ??ZDO_ProcessUserDescSet?relay:
   \   000000   12....       LCALL   ?BDISPATCH
   \   000003   ......       DC24    ZDO_ProcessUserDescSet

   \                                 In  segment BANK_RELAYS, align 1
   \                     ??ZDO_ProcessDeviceAnnce?relay:
   \   000000   12....       LCALL   ?BDISPATCH
   \   000003   ......       DC24    ZDO_ProcessDeviceAnnce

   \                                 In  segment BANK_RELAYS, align 1
   \                     ??ZDO_BuildSimpleDescBuf?relay:
   \   000000   12....       LCALL   ?BDISPATCH
   \   000003   ......       DC24    ZDO_BuildSimpleDescBuf

   \                                 In  segment BANK_RELAYS, align 1
   \                     ??ZDO_MatchEndDeviceBind?relay:
   \   000000   12....       LCALL   ?BDISPATCH
   \   000003   ......       DC24    ZDO_MatchEndDeviceBind

   \                                 In  segment BANK_RELAYS, align 1
   \                     ??ZDO_RemoveMatchMemory?relay:
   \   000000   12....       LCALL   ?BDISPATCH
   \   000003   ......       DC24    ZDO_RemoveMatchMemory

   \                                 In  segment BANK_RELAYS, align 1
   \                     ??ZDO_CopyMatchInfo?relay:
   \   000000   12....       LCALL   ?BDISPATCH
   \   000003   ......       DC24    ZDO_CopyMatchInfo

   \                                 In  segment BANK_RELAYS, align 1
   \                     ??ZDMatchSendState?relay:
   \   000000   12....       LCALL   ?BDISPATCH
   \   000003   ......       DC24    ZDMatchSendState

   \                                 In  segment BANK_RELAYS, align 1
   \                     ??ZDO_EndDeviceBindMatchTimeoutCB?relay:
   \   000000   12....       LCALL   ?BDISPATCH
   \   000003   ......       DC24    ZDO_EndDeviceBindMatchTimeoutCB

   \                                 In  segment BANK_RELAYS, align 1
   \                     ??ZDO_ParseEndDeviceBindReq?relay:
   \   000000   12....       LCALL   ?BDISPATCH
   \   000003   ......       DC24    ZDO_ParseEndDeviceBindReq

   \                                 In  segment BANK_RELAYS, align 1
   \                     ??ZDO_ParseBindUnbindReq?relay:
   \   000000   12....       LCALL   ?BDISPATCH
   \   000003   ......       DC24    ZDO_ParseBindUnbindReq

   \                                 In  segment BANK_RELAYS, align 1
   \                     ??ZDO_ParseAddrRsp?relay:
   \   000000   12....       LCALL   ?BDISPATCH
   \   000003   ......       DC24    ZDO_ParseAddrRsp

   \                                 In  segment BANK_RELAYS, align 1
   \                     ??ZDO_ParseNodeDescRsp?relay:
   \   000000   12....       LCALL   ?BDISPATCH
   \   000003   ......       DC24    ZDO_ParseNodeDescRsp

   \                                 In  segment BANK_RELAYS, align 1
   \                     ??ZDO_ParsePowerDescRsp?relay:
   \   000000   12....       LCALL   ?BDISPATCH
   \   000003   ......       DC24    ZDO_ParsePowerDescRsp

   \                                 In  segment BANK_RELAYS, align 1
   \                     ??ZDO_ParseSimpleDescRsp?relay:
   \   000000   12....       LCALL   ?BDISPATCH
   \   000003   ......       DC24    ZDO_ParseSimpleDescRsp

   \                                 In  segment BANK_RELAYS, align 1
   \                     ??ZDO_ParseEPListRsp?relay:
   \   000000   12....       LCALL   ?BDISPATCH
   \   000003   ......       DC24    ZDO_ParseEPListRsp

   \                                 In  segment BANK_RELAYS, align 1
   \                     ??ZDO_ParseServerDiscRsp?relay:
   \   000000   12....       LCALL   ?BDISPATCH
   \   000003   ......       DC24    ZDO_ParseServerDiscRsp

   \                                 In  segment BANK_RELAYS, align 1
   \                     ??ZDO_ParseMgmtLqiRsp?relay:
   \   000000   12....       LCALL   ?BDISPATCH
   \   000003   ......       DC24    ZDO_ParseMgmtLqiRsp

   \                                 In  segment BANK_RELAYS, align 1
   \                     ??ZDO_ParseMgmNwkDiscRsp?relay:
   \   000000   12....       LCALL   ?BDISPATCH
   \   000003   ......       DC24    ZDO_ParseMgmNwkDiscRsp

   \                                 In  segment BANK_RELAYS, align 1
   \                     ??ZDO_ParseMgmtRtgRsp?relay:
   \   000000   12....       LCALL   ?BDISPATCH
   \   000003   ......       DC24    ZDO_ParseMgmtRtgRsp

   \                                 In  segment BANK_RELAYS, align 1
   \                     ??ZDO_ParseMgmtBindRsp?relay:
   \   000000   12....       LCALL   ?BDISPATCH
   \   000003   ......       DC24    ZDO_ParseMgmtBindRsp

   \                                 In  segment BANK_RELAYS, align 1
   \                     ??ZDO_ParseUserDescRsp?relay:
   \   000000   12....       LCALL   ?BDISPATCH
   \   000003   ......       DC24    ZDO_ParseUserDescRsp

   \                                 In  segment BANK_RELAYS, align 1
   \                     ??ZDO_ParseSimpleDescBuf?relay:
   \   000000   12....       LCALL   ?BDISPATCH
   \   000003   ......       DC24    ZDO_ParseSimpleDescBuf

   \                                 In  segment BANK_RELAYS, align 1
   \                     ??ZDO_ParseDeviceAnnce?relay:
   \   000000   12....       LCALL   ?BDISPATCH
   \   000003   ......       DC24    ZDO_ParseDeviceAnnce

   \                                 In  segment BANK_RELAYS, align 1
   \                     ??ZDO_ParseMgmtNwkUpdateNotify?relay:
   \   000000   12....       LCALL   ?BDISPATCH
   \   000003   ......       DC24    ZDO_ParseMgmtNwkUpdateNotify

   \                                 In  segment BANK_RELAYS, align 1
   \                     ??ZDO_ParseMgmtNwkUpdateReq?relay:
   \   000000   12....       LCALL   ?BDISPATCH
   \   000003   ......       DC24    ZDO_ParseMgmtNwkUpdateReq

   \                                 In  segment XDATA_ROM_C, align 1
   \                     `?<Constant "StartDevice ERR">`:
   \   000000   53746172     DB "StartDevice ERR"
   \            74446576
   \            69636520
   \            45525200

   \                                 In  segment XDATA_ROM_C, align 1
   \                     `?<Constant "MODE unknown">`:
   \   000000   4D4F4445     DB "MODE unknown"
   \            20756E6B
   \            6E6F776E
   \            00      

   \                                 In  segment XDATA_ROM_C, align 1
   \                     `?<Constant "End Device Bind">`:
   \   000000   456E6420     DB "End Device Bind"
   \            44657669
   \            63652042
   \            696E6400

   \                                 In  segment XDATA_ROM_C, align 1
   \                     `?<Constant "Success Sent">`:
   \   000000   53756363     DB "Success Sent"
   \            65737320
   \            53656E74
   \            00      

   \                                 In  segment XDATA_ROM_C, align 1
   \                     `?<Constant "Timeout">`:
   \   000000   54696D65     DB "Timeout"
   \            6F757400

   \                                 In  segment XDATA_ROM_C, align 1
   \                     `?<Constant "Match Desc Req">`:
   \   000000   4D617463     DB "Match Desc Req"
   \            68204465
   \            73632052
   \            657100  

   \                                 In  segment XDATA_ROM_C, align 1
   \                     `?<Constant "Rsp Sent">`:
   \   000000   52737020     DB "Rsp Sent"
   \            53656E74
   \            00      

   \                                 In  segment XDATA_ROM_C, align 1
   \                     `?<Constant "Non Matched">`:
   \   000000   4E6F6E20     DB "Non Matched"
   \            4D617463
   \            68656400

   \                                 In  segment XDATA_ROM_C, align 1
   \                     __Constant_7fff800:
   \   000000   00F8FF07     DD 134215680

   \                                 In  segment XDATA_ROM_C, align 1
   \                     __Constant_0:
   \   000000   00000000     DD 0
   3134          
   3135          /*********************************************************************
   3136          *********************************************************************/
   3137          
   3138          

   Maximum stack usage in bytes:

     Function                       ISTACK PSTACK XSTACK
     --------                       ------ ------ ------
     NLME_PermitJoiningTimeout          0      0      0
     ZDMatchSendState                   1      0     75
       -> APS_SetEndDeviceBindTimeout
                                        0      0     74
       -> sAddrExtCpy                   0      0     74
       -> ZDP_BindUnbindReq             0      0     90
       -> APS_SetEndDeviceBindTimeout
                                        0      0     74
       -> ZDP_SendData                  0      0     84
       -> ZDP_SendData                  0      0     84
       -> ZDO_RemoveMatchMemory         0      0     74
     ZDO_AnyClusterMatches              0      0     15
     ZDO_BuildSimpleDescBuf             1      0     11
     ZDO_ConvertOTAClusters             0      0     10
     ZDO_CopyMatchInfo                  0      0     53
       -> osal_memcpy                   0      0     46
       -> osal_mem_alloc                0      0     40
       -> osal_memcpy                   0      0     46
       -> osal_mem_alloc                0      0     40
       -> osal_memcpy                   0      0     46
       -> osal_mem_free                 0      0     40
       -> osal_mem_free                 0      0     40
     ZDO_EndDeviceBindMatchTimeoutCB
                                        2      0      0
       -> ZDMatchSendState              4      0      0
     ZDO_EndDeviceTimeoutCB             1      0     17
       -> ZDP_SendData                  0      0     34
       -> HalLcdWriteString             0      0     24
       -> HalLcdWriteString             0      0     24
       -> HalLcdWriteString             0      0     24
       -> osal_mem_free                 0      0     24
       -> osal_mem_free                 0      0     24
       -> osal_mem_free                 0      0     24
     ZDO_Init                           2      0      0
       -> sAddrExtCpy                   4      0      0
       -> APS_ReflectorInit             4      0      0
       -> NLME_DeviceJoiningInit        4      0      0
     ZDO_MatchEndDeviceBind             1      0     35
       -> osal_mem_alloc                0      0     60
       -> osal_memset                   0      0     60
       -> ZDO_CopyMatchInfo             0      0     60
       -> APS_SetEndDeviceBindTimeout
                                        0      0     60
       -> ZDO_CopyMatchInfo             0      0     60
       -> osal_mem_alloc                0      0     60
       -> osal_memcpy                   0      0     66
       -> osal_mem_alloc                0      0     60
       -> osal_memcpy                   0      0     66
       -> ZDMatchSendState              0      0     60
       -> ZDP_SendData                  0      0     70
       -> ZDP_SendData                  0      0     70
       -> ZDO_RemoveMatchMemory         0      0     60
     ZDO_ParseAddrRsp                   1      0     14
       -> osal_mem_alloc                0      0     28
       -> sAddrExtCpy                   0      0     28
     ZDO_ParseBindUnbindReq             1      0     10
       -> sAddrExtCpy                   0      0     20
       -> sAddrExtCpy                   0      0     20
     ZDO_ParseDeviceAnnce               1      0     10
       -> sAddrExtCpy                   0      0     20
     ZDO_ParseEPListRsp                 1      0     19
       -> osal_mem_alloc                0      0     32
       -> osal_memcpy                   0      0     38
     ZDO_ParseEndDeviceBindReq          1      0     17
       -> sAddrExtCpy                   0      0     34
       -> osal_mem_alloc                0      0     34
       -> osal_mem_alloc                0      0     34
     ZDO_ParseMgmNwkDiscRsp             1      0     16
       -> osal_mem_alloc                0      0     32
       -> sAddrExtCpy                   0      0     32
     ZDO_ParseMgmtBindRsp               1      0     18
       -> osal_mem_alloc                0      0     36
       -> sAddrExtCpy                   0      0     36
       -> sAddrExtCpy                   0      0     36
     ZDO_ParseMgmtLqiRsp                1      0     16
       -> osal_mem_alloc                0      0     32
       -> sAddrExtCpy                   0      0     32
     ZDO_ParseMgmtNwkUpdateNotify       1      0     27
       -> osal_build_uint32             0      0     48
       -> osal_mem_alloc                0      0     48
       -> osal_memcpy                   0      0     54
     ZDO_ParseMgmtNwkUpdateReq          1      0     10
       -> osal_build_uint32             0      0     20
     ZDO_ParseMgmtRtgRsp                1      0     14
       -> osal_mem_alloc                0      0     28
     ZDO_ParseNodeDescRsp               2      0      9
     ZDO_ParsePowerDescRsp              1      0      9
     ZDO_ParseServerDiscRsp             1      0      9
     ZDO_ParseSimpleDescBuf             1      0     23
       -> osal_mem_alloc                0      0     28
       -> osal_mem_alloc                0      0     28
       -> osal_mem_free                 0      0     28
     ZDO_ParseSimpleDescRsp             1      0      9
       -> ZDO_ParseSimpleDescBuf        0      0     18
     ZDO_ParseUserDescRsp               1      0     19
       -> osal_mem_alloc                0      0     32
       -> osal_memcpy                   0      0     38
     ZDO_ProcessActiveEPReq             0      0     21
       -> NLME_GetShortAddr             0      0     28
       -> afNumEndPoints                0      0     28
       -> afEndPoints                   0      0     28
       -> ZDP_EPRsp                     0      0     42
     ZDO_ProcessBindUnbindReq           0      0     34
       -> sAddrExtCpy                   0      0     58
       -> NLME_GetExtAddr               0      0     58
       -> sAddrExtCmp                   0      0     58
       -> bindNumOfEntries              0      0     58
       -> APSME_BindRequest             0      0     60
       -> ZDApp_NVUpdate                0      0     58
       -> APSME_LookupNwkAddr           0      0     58
       -> ZDP_NwkAddrReq                0      0     58
       -> APSME_UnBindRequest           0      0     60
       -> ZDApp_NVUpdate                0      0     58
       -> ZDP_SendData                  0      0     68
     ZDO_ProcessDeviceAnnce             2      0     42
       -> sAddrExtCpy                   0      0     84
       -> nwkNeighborRemoveAllStranded
                                        0      0     84
       -> NLME_CheckNewAddrSet          0      0     84
       -> NLME_GetCoordExtAddr          0      0     84
       -> sAddrExtCmp                   0      0     84
       -> NLME_GetCoordShortAddr        0      0     84
       -> ZMacSetReq                    0      0     84
       -> NLME_GetShortAddr             4      0     84
       -> AssocGetWithExt               0      0     84
       -> AssocRemove                   0      0     84
       -> NLME_GetShortAddr             0      0     84
       -> AssocChangeNwkAddr            0      0     84
       -> nwkNeighborUpdateNwkAddr      0      0     84
       -> ZDApp_NVUpdate                0      0     84
       -> RTG_RemoveRtgEntry            0      0     84
       -> AddrMgrEntryLookupNwk         0      0     84
       -> osal_memset                   0      0     84
       -> sAddrExtCmp                   0      0     84
       -> AddrMgrExtAddrSet             0      0     84
       -> AddrMgrEntryUpdate            0      0     84
     ZDO_ProcessMatchDescReq            1      0     46
       -> NLME_IsAddressBroadcast       0      0     78
       -> ZDP_EPRsp                     0      0     92
       -> NLME_IsAddressBroadcast       0      0     78
       -> osal_mem_alloc                0      0     78
       -> osal_mem_alloc                0      0     78
       -> osal_msg_allocate             0      0     78
       -> osal_memcpy                   0      0     84
       -> osal_memcpy                   0      0     84
       -> osal_msg_send                 0      0     78
       -> osal_mem_free                 0      0     78
       -> ZDP_EPRsp                     0      0     92
       -> HalLcdWriteScreen             0      0     78
       -> HalLcdWriteScreen             0      0     78
       -> osal_mem_free                 0      0     78
       -> osal_mem_free                 0      0     78
     ZDO_ProcessMgmtBindReq             0      0     29
       -> APSME_GetRequest              0      0     48
       -> osal_mem_alloc                0      0     48
       -> APSME_GetRequest              0      0     48
       -> ZDP_MgmtBindRsp               0      0     58
       -> osal_mem_free                 0      0     48
     ZDO_ProcessMgmtDirectJoinReq       1      0     16
       -> NLME_DirectJoinRequest        0      0     22
       -> ZDP_SendData                  0      0     32
     ZDO_ProcessMgmtLeaveReq            1      0     23
       -> AddrMgrExtAddrValid           0      0     36
       -> NLME_GetExtAddr               0      0     36
       -> sAddrExtCmp                   0      0     36
       -> NLME_LeaveReq                 0      0     36
       -> ZDP_SendData                  0      0     46
     ZDO_ProcessMgmtLqiReq              1      0     66
       -> NLME_GetRequest               0      0    122
       -> AssocCount                    0      0    122
       -> osal_mem_alloc                0      0    122
       -> osal_memset                   0      0    122
       -> AssocFindDevice               0      0    122
       -> sAddrExtCpy                   0      0    122
       -> AddrMgrEntryLookupNwk         0      0    122
       -> sAddrExtCpy                   0      0    122
       -> NLME_GetRequest               0      0    122
       -> sAddrExtCpy                   0      0    122
       -> osal_memset                   0      0    122
       -> ZDP_MgmtLqiRsp                0      0    132
       -> osal_mem_free                 0      0    122
     ZDO_ProcessMgmtNwkDiscReq          1      0     17
       -> osal_build_uint32             0      0     34
       -> NLME_NwkDiscReq2              0      0     34
       -> NLME_NwkDiscTerm              0      0     34
     ZDO_ProcessMgmtPermitJoinReq       1      0     16
       -> NLME_PermitJoiningRequest     0      0     22
       -> ZDP_SendData                  0      0     32
     ZDO_ProcessMgmtRtgReq              0      0     26
       -> NLME_GetRequest               0      0     42
       -> osal_mem_alloc                0      0     42
       -> NLME_GetRequest               0      0     42
       -> ZDP_MgmtRtgRsp                0      0     52
       -> osal_mem_free                 0      0     42
     ZDO_ProcessNodeDescReq             0      0     14
       -> ZDP_NodeDescMsg               0      0     24
       -> ZDP_GenericRsp                0      0     28
     ZDO_ProcessPowerDescReq            0      0     14
       -> ZDP_PowerDescMsg              0      0     24
       -> ZDP_GenericRsp                0      0     28
     ZDO_ProcessServerDiscReq           0      0     14
       -> ZDP_ServerDiscRsp             0      0     28
     ZDO_ProcessSimpleDescReq           0      0     12
       -> afFindSimpleDesc              0      0     24
       -> ZDP_SimpleDescMsg             0      0     24
       -> osal_mem_free                 0      0     24
     ZDO_ProcessUserDescReq             0      0     33
       -> osal_nv_read                  0      0     66
       -> ZDP_UserDescRsp               0      0     64
       -> ZDP_GenericRsp                0      0     66
     ZDO_ProcessUserDescSet             1      0     41
       -> osal_memcpy                   0      0     78
       -> osal_nv_write                 0      0     80
       -> ZDP_SendData                  0      0     82
     ZDO_RemoveMatchMemory              2      0     37
       -> osal_mem_free                 4      0      0
       -> osal_mem_free                 4      0      0
       -> osal_mem_free                 4      0      0
       -> osal_mem_free                 4      0      0
       -> osal_mem_free                 4      0      0
       -> osal_mem_free                 4      0      0
       -> osal_mem_free                 4      0      0
     ZDO_StartDevice                    0      0     20
       -> NLME_NetworkDiscoveryRequest
                                        0      0     40
       -> osal_start_timerEx            0      0     40
       -> nwk_ScanJoiningOrphan         0      0     40
       -> NLME_OrphanJoinRequest        0      0     40
       -> HalLcdWriteScreen             0      0     40
     ZDO_UpdateAddrManager              2      0     13
       -> AddrMgrExtAddrSet             4      0     26
       -> AddrMgrEntryUpdate            4      0     26
     ZDO_UpdateNwkStatus                1      0     12
       -> osal_msg_find                 0      0     24
       -> osal_msg_allocate             0      0     24
       -> osal_set_event                0      0     24
       -> osal_msg_send                 0      0     24
       -> NLME_GetShortAddr             0      0     24
       -> NLME_GetExtAddr               0      0     24


   Segment part sizes:

     Function/Label                          Bytes
     --------------                          -----
     ZDOBuildBuf                               52
     ZDO_EDBind                                 2
     matchED                                    2
     apsChannelMask                             4
     ZDO_Init                                  43
     ?Subroutine0                               7
     ZDO_StartDevice                          247
     ?Subroutine1                               5
     discRetries                                1
     scanCnt                                    1
     ZDO_UpdateNwkStatus                      143
     ??Subroutine15_0                           5
     ZDO_AnyClusterMatches                    110
     ZDO_ProcessNodeDescReq                   139
     ??Subroutine12_0                           5
     ZDO_ProcessPowerDescReq                  140
     ?Subroutine3                               2
     ??Subroutine11_0                           3
     ZDO_ProcessSimpleDescReq                 183
     ZDO_ProcessActiveEPReq                   165
     ?Subroutine4                               5
     ZDO_ConvertOTAClusters                    54
     ZDO_ProcessMatchDescReq                 1622
     ?Subroutine5                               3
     ??Subroutine13_0                           5
     ZDO_ProcessBindUnbindReq                 514
     ?Subroutine6                               5
     ZDO_UpdateAddrManager                     59
     ZDO_ProcessServerDiscReq                 109
     ZDO_EndDeviceTimeoutCB                   277
     ZDO_ProcessMgmtLqiReq                    914
     ZDO_ProcessMgmtNwkDiscReq                169
     ZDO_ProcessMgmtRtgReq                    288
     ?Subroutine7                               3
     ??Subroutine14_0                           5
     ZDO_ProcessMgmtBindReq                   314
     ZDO_ProcessMgmtDirectJoinReq             115
     ?Subroutine10                              5
     ZDO_ProcessMgmtLeaveReq                  210
     ?Subroutine2                               3
     ZDO_ProcessMgmtPermitJoinReq             122
     NLME_PermitJoiningTimeout                  3
     ZDO_ProcessUserDescReq                   229
     ZDO_ProcessUserDescSet                   329
     ZDO_ProcessDeviceAnnce                   531
     ZDO_BuildSimpleDescBuf                   334
     ZDO_MatchEndDeviceBind                  1112
     ZDO_RemoveMatchMemory                    205
     ZDO_CopyMatchInfo                        318
     ZDMatchSendState                         967
     ?Subroutine8                               5
     ZDO_EndDeviceBindMatchTimeoutCB
                                               16
     ZDO_ParseEndDeviceBindReq                505
     ZDO_ParseBindUnbindReq                   204
     ZDO_ParseAddrRsp                         312
     ZDO_ParseNodeDescRsp                     419
     ZDO_ParsePowerDescRsp                    197
     ZDO_ParseSimpleDescRsp                    82
     ZDO_ParseEPListRsp                       155
     ?Subroutine9                               4
     ??Subroutine16_0                           5
     ZDO_ParseServerDiscRsp                    68
     ZDO_ParseMgmtLqiRsp                      279
     ZDO_ParseMgmNwkDiscRsp                   385
     ZDO_ParseMgmtRtgRsp                      220
     ZDO_ParseMgmtBindRsp                     378
     ZDO_ParseUserDescRsp                     165
     ZDO_ParseSimpleDescBuf                   389
     ZDO_ParseDeviceAnnce                     105
     ZDO_ParseMgmtNwkUpdateNotify             278
     ZDO_ParseMgmtNwkUpdateReq                170
     ??ZDO_Init?relay                           6
     ??ZDO_StartDevice?relay                    6
     ??ZDO_UpdateNwkStatus?relay                6
     ??ZDO_AnyClusterMatches?relay              6
     ??ZDO_ProcessNodeDescReq?relay             6
     ??ZDO_ProcessPowerDescReq?relay            6
     ??ZDO_ProcessSimpleDescReq?relay           6
     ??ZDO_ProcessActiveEPReq?relay             6
     ??ZDO_ConvertOTAClusters?relay             6
     ??ZDO_ProcessMatchDescReq?relay            6
     ??ZDO_ProcessBindUnbindReq?relay           6
     ??ZDO_UpdateAddrManager?relay              6
     ??ZDO_ProcessServerDiscReq?relay           6
     ??ZDO_EndDeviceTimeoutCB?relay             6
     ??ZDO_ProcessMgmtLqiReq?relay              6
     ??ZDO_ProcessMgmtNwkDiscReq?relay          6
     ??ZDO_ProcessMgmtRtgReq?relay              6
     ??ZDO_ProcessMgmtBindReq?relay             6
     ??ZDO_ProcessMgmtDirectJoinReq?relay       6
     ??ZDO_ProcessMgmtLeaveReq?relay            6
     ??ZDO_ProcessMgmtPermitJoinReq?relay       6
     ??NLME_PermitJoiningTimeout?relay          6
     ??ZDO_ProcessUserDescReq?relay             6
     ??ZDO_ProcessUserDescSet?relay             6
     ??ZDO_ProcessDeviceAnnce?relay             6
     ??ZDO_BuildSimpleDescBuf?relay             6
     ??ZDO_MatchEndDeviceBind?relay             6
     ??ZDO_RemoveMatchMemory?relay              6
     ??ZDO_CopyMatchInfo?relay                  6
     ??ZDMatchSendState?relay                   6
     ??ZDO_EndDeviceBindMatchTimeoutCB?relay    6
     ??ZDO_ParseEndDeviceBindReq?relay          6
     ??ZDO_ParseBindUnbindReq?relay             6
     ??ZDO_ParseAddrRsp?relay                   6
     ??ZDO_ParseNodeDescRsp?relay               6
     ??ZDO_ParsePowerDescRsp?relay              6
     ??ZDO_ParseSimpleDescRsp?relay             6
     ??ZDO_ParseEPListRsp?relay                 6
     ??ZDO_ParseServerDiscRsp?relay             6
     ??ZDO_ParseMgmtLqiRsp?relay                6
     ??ZDO_ParseMgmNwkDiscRsp?relay             6
     ??ZDO_ParseMgmtRtgRsp?relay                6
     ??ZDO_ParseMgmtBindRsp?relay               6
     ??ZDO_ParseUserDescRsp?relay               6
     ??ZDO_ParseSimpleDescBuf?relay             6
     ??ZDO_ParseDeviceAnnce?relay               6
     ??ZDO_ParseMgmtNwkUpdateNotify?relay       6
     ??ZDO_ParseMgmtNwkUpdateReq?relay          6
     ?<Constant "StartDevice ERR">             16
     ?<Constant "MODE unknown">                13
     ?<Constant "End Device Bind">             16
     ?<Constant "Success Sent">                13
     ?<Constant "Timeout">                      8
     ?<Constant "Match Desc Req">              15
     ?<Constant "Rsp Sent">                     9
     ?<Constant "Non Matched">                 12
     __Constant_7fff800                         4
     __Constant_0                               4

 
 14 367 bytes in segment BANKED_CODE
    288 bytes in segment BANK_RELAYS
    110 bytes in segment XDATA_ROM_C
     62 bytes in segment XDATA_Z
 
 14 655 bytes of CODE  memory
    102 bytes of CONST memory (+ 8 bytes shared)
     62 bytes of XDATA memory

Errors: none
Warnings: none
